libmagma.so:.gomp_critical_user_magma_dlaex3.var
libmagma.so:.gomp_critical_user_magma_dlaex3_m.var
libmagma.so:.gomp_critical_user_magma_slaex3.var
libmagma.so:.gomp_critical_user_magma_slaex3_m.var
libmagma.so:MAGMA_C_INF
libmagma.so:MAGMA_C_NAN
libmagma.so:MAGMA_D_INF
libmagma.so:MAGMA_D_NAN
libmagma.so:MAGMA_S_INF
libmagma.so:MAGMA_S_NAN
libmagma.so:MAGMA_Z_INF
libmagma.so:MAGMA_Z_NAN
libmagma.so:_Z11cgeadd_fullii17magmaFloatComplexPKS_iPS_i
libmagma.so:_Z11clascl_fulliifP17magmaFloatComplexi
libmagma.so:_Z11dgeadd_fulliidPKdiPdi
libmagma.so:_Z11dlascl_fulliidPdi
libmagma.so:_Z11dpotf2_ddotiPdiP11magma_queue
libmagma.so:_Z11kernel_ddotiPdii
libmagma.so:_Z11kernel_sdotiPfii
libmagma.so:_Z11sgeadd_fulliifPKfiPfi
libmagma.so:_Z11slascl_fulliifPfi
libmagma.so:_Z11spotf2_sdotiPfiP11magma_queue
libmagma.so:_Z11zgeadd_fullii18magmaDoubleComplexPKS_iPS_i
libmagma.so:_Z11zlascl_fulliidP18magmaDoubleComplexi
libmagma.so:_Z12cgeadd2_fullii17magmaFloatComplexPKS_iS_PS_i
libmagma.so:_Z12clascl2_fulliiPKfP17magmaFloatComplexi
libmagma.so:_Z12clascl_loweriifP17magmaFloatComplexi
libmagma.so:_Z12clascl_upperiifP17magmaFloatComplexi
libmagma.so:_Z12clat2z_loweriPK17magmaFloatComplexiP18magmaDoubleComplexi
libmagma.so:_Z12clat2z_upperiPK17magmaFloatComplexiP18magmaDoubleComplexi
libmagma.so:_Z12cpotf2_cdotciP17magmaFloatComplexiP11magma_queue
libmagma.so:_Z12cswap_kerneliP17magmaFloatComplexiS0_i
libmagma.so:_Z12dgeadd2_fulliidPKdidPdi
libmagma.so:_Z12dlascl2_fulliiPKdPdi
libmagma.so:_Z12dlascl_loweriidPdi
libmagma.so:_Z12dlascl_upperiidPdi
libmagma.so:_Z12dlat2s_loweriPKdiPfid
libmagma.so:_Z12dlat2s_upperiPKdiPfid
libmagma.so:_Z12dpotf2_dscaliPdiP11magma_queue
libmagma.so:_Z12dswap_kerneliPdiS_i
libmagma.so:_Z12kernel_cdotciP17magmaFloatComplexii
libmagma.so:_Z12kernel_cswapiP17magmaFloatComplexiii
libmagma.so:_Z12kernel_dscaliPdi
libmagma.so:_Z12kernel_dswapiPdiii
libmagma.so:_Z12kernel_sscaliPfi
libmagma.so:_Z12kernel_sswapiPfiii
libmagma.so:_Z12kernel_zdotciP18magmaDoubleComplexii
libmagma.so:_Z12kernel_zswapiP18magmaDoubleComplexiii
libmagma.so:_Z12magma_dger_1iiiiPdS_i
libmagma.so:_Z12magma_dger_2iiiiPdiS_i
libmagma.so:_Z12magma_sger_1iiiiPfS_i
libmagma.so:_Z12magma_sger_2iiiiPfiS_i
libmagma.so:_Z12magma_xerror10hipError_tPKcS1_i
libmagma.so:_Z12magma_xerror15hipblasStatus_tPKcS1_i
libmagma.so:_Z12magma_xerroriPKcS0_i
libmagma.so:_Z12sgeadd2_fulliifPKfifPfi
libmagma.so:_Z12slascl2_fulliiPKfPfi
libmagma.so:_Z12slascl_loweriifPfi
libmagma.so:_Z12slascl_upperiifPfi
libmagma.so:_Z12slat2d_loweriPKfiPdi
libmagma.so:_Z12slat2d_upperiPKfiPdi
libmagma.so:_Z12spotf2_sscaliPfiP11magma_queue
libmagma.so:_Z12sswap_kerneliPfiS_i
libmagma.so:_Z12zgeadd2_fullii18magmaDoubleComplexPKS_iS_PS_i
libmagma.so:_Z12zlascl2_fulliiPKdP18magmaDoubleComplexi
libmagma.so:_Z12zlascl_loweriidP18magmaDoubleComplexi
libmagma.so:_Z12zlascl_upperiidP18magmaDoubleComplexi
libmagma.so:_Z12zlat2c_loweriPK18magmaDoubleComplexiP17magmaFloatComplexid
libmagma.so:_Z12zlat2c_upperiPK18magmaDoubleComplexiP17magmaFloatComplexid
libmagma.so:_Z12zpotf2_zdotciP18magmaDoubleComplexiP11magma_queue
libmagma.so:_Z12zswap_kerneliP18magmaDoubleComplexiS0_i
libmagma.so:_Z13clag2z_kerneliiPK17magmaFloatComplexiP18magmaDoubleComplexi
libmagma.so:_Z13clarfg_kerneliP17magmaFloatComplexS0_iS0_
libmagma.so:_Z13clascl2_loweriiPKfP17magmaFloatComplexi
libmagma.so:_Z13clascl2_upperiiPKfP17magmaFloatComplexi
libmagma.so:_Z13claswp_kerneliP17magmaFloatComplexi15claswp_params_t
libmagma.so:_Z13cpotf2_csscaliP17magmaFloatComplexiP11magma_queue
libmagma.so:_Z13dlag2s_kerneliiPKdiPfid
libmagma.so:_Z13dlarfg_kerneliPdS_iS_
libmagma.so:_Z13dlascl2_loweriiPKdPdi
libmagma.so:_Z13dlascl2_upperiiPKdPdi
libmagma.so:_Z13dlaswp_kerneliPdi15dlaswp_params_t
libmagma.so:_Z13hlag2s_kerneliiPK6__halfiPfi
libmagma.so:_Z13hlaswp_kerneliP6__halfi15hlaswp_params_t
libmagma.so:_Z13kernel_clacgviP17magmaFloatComplexi
libmagma.so:_Z13kernel_csscaliP17magmaFloatComplexi
libmagma.so:_Z13kernel_zdscaliP18magmaDoubleComplexi
libmagma.so:_Z13kernel_zlacgviP18magmaDoubleComplexi
libmagma.so:_Z13magma_cgeru_1iiiiP17magmaFloatComplexS0_i
libmagma.so:_Z13magma_cgeru_2iiiiP17magmaFloatComplexiS0_i
libmagma.so:_Z13magma_zgeru_1iiiiP18magmaDoubleComplexS0_i
libmagma.so:_Z13magma_zgeru_2iiiiP18magmaDoubleComplexiS0_i
libmagma.so:_Z13slag2d_kerneliiPKfiPdi
libmagma.so:_Z13slag2h_kerneliiPKfiP6__halfifPi
libmagma.so:_Z13slarfg_kerneliPfS_iS_
libmagma.so:_Z13slascl2_loweriiPKfPfi
libmagma.so:_Z13slascl2_upperiiPKfPfi
libmagma.so:_Z13slaswp_kerneliPfi15slaswp_params_t
libmagma.so:_Z13zlag2c_kerneliiPK18magmaDoubleComplexiP17magmaFloatComplexid
libmagma.so:_Z13zlarfg_kerneliP18magmaDoubleComplexS0_iS0_
libmagma.so:_Z13zlascl2_loweriiPKdP18magmaDoubleComplexi
libmagma.so:_Z13zlascl2_upperiiPKdP18magmaDoubleComplexi
libmagma.so:_Z13zlaswp_kerneliP18magmaDoubleComplexi15zlaswp_params_t
libmagma.so:_Z13zpotf2_zdscaliP18magmaDoubleComplexiP11magma_queue
libmagma.so:_Z14caxpycp_kerneliP17magmaFloatComplexS0_PKS_
libmagma.so:_Z14chemv_kernel_LiPK17magmaFloatComplexiS1_iPS_
libmagma.so:_Z14claswp2_kerneliP17magmaFloatComplexiiPKii
libmagma.so:_Z14claswpx_kerneliP17magmaFloatComplexii15claswp_params_t
libmagma.so:_Z14csymv_kernel_LiPK17magmaFloatComplexiS1_iPS_
libmagma.so:_Z14daxpycp_kerneliPdS_PKd
libmagma.so:_Z14dlaswp2_kerneliPdiiPKii
libmagma.so:_Z14dlaswpx_kerneliPdii15dlaswp_params_t
libmagma.so:_Z14dslaswp_kerneliPdiPfiiPKi
libmagma.so:_Z14dsymv_kernel_LiPKdiS0_iPd
libmagma.so:_Z14hlaswp2_kerneliP6__halfiiPKii
libmagma.so:_Z14magma_cpivcastPi
libmagma.so:_Z14magma_dpivcastPi
libmagma.so:_Z14magma_spivcastPi
libmagma.so:_Z14magma_zpivcastPi
libmagma.so:_Z14saxpycp_kerneliPfS_PKf
libmagma.so:_Z14slaswp2_kerneliPfiiPKii
libmagma.so:_Z14slaswpx_kerneliPfii15slaswp_params_t
libmagma.so:_Z14ssymv_kernel_LiPKfiS0_iPf
libmagma.so:_Z14zaxpycp_kerneliP18magmaDoubleComplexS0_PKS_
libmagma.so:_Z14zclaswp_kerneliP18magmaDoubleComplexiP17magmaFloatComplexiiPKi
libmagma.so:_Z14zhemv_kernel_LiPK18magmaDoubleComplexiS1_iPS_
libmagma.so:_Z14zlaswp2_kerneliP18magmaDoubleComplexiiPKii
libmagma.so:_Z14zlaswpx_kerneliP18magmaDoubleComplexii15zlaswp_params_t
libmagma.so:_Z14zsymv_kernel_LiPK18magmaDoubleComplexiS1_iPS_
libmagma.so:_Z15cgeam_kernel_ccii17magmaFloatComplexPKS_iS_S1_iPS_i
libmagma.so:_Z15cgeam_kernel_cnii17magmaFloatComplexPKS_iS_S1_iPS_i
libmagma.so:_Z15cgeam_kernel_ncii17magmaFloatComplexPKS_iS_S1_iPS_i
libmagma.so:_Z15cgeam_kernel_nnii17magmaFloatComplexPKS_iS_S1_iPS_i
libmagma.so:_Z15dgeam_kernel_cciidPKdidS0_iPdi
libmagma.so:_Z15dgeam_kernel_cniidPKdidS0_iPdi
libmagma.so:_Z15dgeam_kernel_nciidPKdidS0_iPdi
libmagma.so:_Z15dgeam_kernel_nniidPKdidS0_iPdi
libmagma.so:_Z15dsaxpycp_kerneliPfPdPKdS0_
libmagma.so:_Z15sgeam_kernel_cciifPKfifS0_iPfi
libmagma.so:_Z15sgeam_kernel_cniifPKfifS0_iPfi
libmagma.so:_Z15sgeam_kernel_nciifPKfifS0_iPfi
libmagma.so:_Z15sgeam_kernel_nniifPKfifS0_iPfi
libmagma.so:_Z15zcaxpycp_kerneliP17magmaFloatComplexP18magmaDoubleComplexPKS1_S2_
libmagma.so:_Z15zgeam_kernel_ccii18magmaDoubleComplexPKS_iS_S1_iPS_i
libmagma.so:_Z15zgeam_kernel_cnii18magmaDoubleComplexPKS_iS_S1_iPS_i
libmagma.so:_Z15zgeam_kernel_ncii18magmaDoubleComplexPKS_iS_S1_iPS_i
libmagma.so:_Z15zgeam_kernel_nnii18magmaDoubleComplexPKS_iS_S1_iPS_i
libmagma.so:_Z16clascl_2x2_loweriPK17magmaFloatComplexiPS_i
libmagma.so:_Z16clascl_2x2_upperiPK17magmaFloatComplexiPS_i
libmagma.so:_Z16cswapdblk_kerneliP17magmaFloatComplexiiS0_ii
libmagma.so:_Z16dlascl_2x2_loweriPKdiPdi
libmagma.so:_Z16dlascl_2x2_upperiPKdiPdi
libmagma.so:_Z16dswapdblk_kerneliPdiiS_ii
libmagma.so:_Z16magma_cswap_scaliiiP17magmaFloatComplexS0_i
libmagma.so:_Z16magma_dscal_dgeriiPdiP11magma_queue
libmagma.so:_Z16magma_dswap_scaliiiPdS_i
libmagma.so:_Z16magma_sscal_sgeriiPfiP11magma_queue
libmagma.so:_Z16magma_sswap_scaliiiPfS_i
libmagma.so:_Z16magma_zswap_scaliiiP18magmaDoubleComplexS0_i
libmagma.so:_Z16magmablas_clacgviP17magmaFloatComplexiP11magma_queue
libmagma.so:_Z16magmablas_zlacgviP18magmaDoubleComplexiP11magma_queue
libmagma.so:_Z16slascl_2x2_loweriPKfiPfi
libmagma.so:_Z16slascl_2x2_upperiPKfiPfi
libmagma.so:_Z16sswapdblk_kerneliPfiiS_ii
libmagma.so:_Z16zlascl_2x2_loweriPK18magmaDoubleComplexiPS_i
libmagma.so:_Z16zlascl_2x2_upperiPK18magmaDoubleComplexiPS_i
libmagma.so:_Z16zswapdblk_kerneliP18magmaDoubleComplexiiS0_ii
libmagma.so:_Z17cdiinertia_kerneliPK17magmaFloatComplexiPi
libmagma.so:_Z17cgemv_conj_kernelii17magmaFloatComplexPKS_iS1_iS_PS_i
libmagma.so:_Z17cherk_d_workspace12magma_uplo_tii17magmaFloatComplexPS0_iS0_S1_iS1_i
libmagma.so:_Z17chetrf_diag_nopiv12magma_uplo_tiP17magmaFloatComplexi
libmagma.so:_Z17clascl_diag_loweriiPK17magmaFloatComplexiPS_i
libmagma.so:_Z17clascl_diag_upperiiPK17magmaFloatComplexiPS_i
libmagma.so:_Z17claset_band_lowerii17magmaFloatComplexS_PS_i
libmagma.so:_Z17claset_band_upperii17magmaFloatComplexS_PS_i
libmagma.so:_Z17claswp_sym_kernel19claswp_sym_params_t
libmagma.so:_Z17csplit_diag_blockiP17magmaFloatComplexiS0_
libmagma.so:_Z17csymmetrize_loweriP17magmaFloatComplexi
libmagma.so:_Z17csymmetrize_upperiP17magmaFloatComplexi
libmagma.so:_Z17csyrk_d_workspace12magma_uplo_tii17magmaFloatComplexPS0_iS0_S1_iS1_i
libmagma.so:_Z17csytrf_diag_nopiv12magma_uplo_tiP17magmaFloatComplexi
libmagma.so:_Z17ctranspose_kerneliiPK17magmaFloatComplexiPS_i
libmagma.so:_Z17ddiinertia_kerneliPKdiPi
libmagma.so:_Z17dgemv_conj_kerneliidPKdiS0_idPdi
libmagma.so:_Z17dlascl_diag_loweriiPKdiPdi
libmagma.so:_Z17dlascl_diag_upperiiPKdiPdi
libmagma.so:_Z17dlaset_band_loweriiddPdi
libmagma.so:_Z17dlaset_band_upperiiddPdi
libmagma.so:_Z17dlaswp_sym_kernel19dlaswp_sym_params_t
libmagma.so:_Z17dsplit_diag_blockiPdiS_
libmagma.so:_Z17dsymmetrize_loweriPdi
libmagma.so:_Z17dsymmetrize_upperiPdi
libmagma.so:_Z17dsyrk_d_workspace12magma_uplo_tiidPdidS0_iS0_i
libmagma.so:_Z17dsytrf_diag_nopiv12magma_uplo_tiPdi
libmagma.so:_Z17dtranspose_kerneliiPKdiPdi
libmagma.so:_Z17kernel_dscal_dgeriiPdi
libmagma.so:_Z17kernel_sscal_sgeriiPfi
libmagma.so:_Z17magma_cgetf2_swapiP17magmaFloatComplexiiiP11magma_queue
libmagma.so:_Z17magma_cscal_cgeruiiP17magmaFloatComplexiP11magma_queue
libmagma.so:_Z17magma_dgetf2_swapiPdiiiP11magma_queue
libmagma.so:_Z17magma_sgetf2_swapiPfiiiP11magma_queue
libmagma.so:_Z17magma_zgetf2_swapiP18magmaDoubleComplexiiiP11magma_queue
libmagma.so:_Z17magma_zscal_zgeruiiP18magmaDoubleComplexiP11magma_queue
libmagma.so:_Z17prefix_sum_kernelPiS_iS_i
libmagma.so:_Z17sdiinertia_kerneliPKfiPi
libmagma.so:_Z17sgemv_conj_kerneliifPKfiS0_ifPfi
libmagma.so:_Z17slascl_diag_loweriiPKfiPfi
libmagma.so:_Z17slascl_diag_upperiiPKfiPfi
libmagma.so:_Z17slaset_band_loweriiffPfi
libmagma.so:_Z17slaset_band_upperiiffPfi
libmagma.so:_Z17slaswp_sym_kernel19slaswp_sym_params_t
libmagma.so:_Z17ssplit_diag_blockiPfiS_
libmagma.so:_Z17ssymmetrize_loweriPfi
libmagma.so:_Z17ssymmetrize_upperiPfi
libmagma.so:_Z17ssyrk_d_workspace12magma_uplo_tiifPfifS0_iS0_i
libmagma.so:_Z17ssytrf_diag_nopiv12magma_uplo_tiPfi
libmagma.so:_Z17stranspose_kerneliiPKfiPfi
libmagma.so:_Z17zdiinertia_kerneliPK18magmaDoubleComplexiPi
libmagma.so:_Z17zgemv_conj_kernelii18magmaDoubleComplexPKS_iS1_iS_PS_i
libmagma.so:_Z17zherk_d_workspace12magma_uplo_tii18magmaDoubleComplexPS0_iS0_S1_iS1_i
libmagma.so:_Z17zhetrf_diag_nopiv12magma_uplo_tiP18magmaDoubleComplexi
libmagma.so:_Z17zlascl_diag_loweriiPK18magmaDoubleComplexiPS_i
libmagma.so:_Z17zlascl_diag_upperiiPK18magmaDoubleComplexiPS_i
libmagma.so:_Z17zlaset_band_lowerii18magmaDoubleComplexS_PS_i
libmagma.so:_Z17zlaset_band_upperii18magmaDoubleComplexS_PS_i
libmagma.so:_Z17zlaswp_sym_kernel19zlaswp_sym_params_t
libmagma.so:_Z17zsplit_diag_blockiP18magmaDoubleComplexiS0_
libmagma.so:_Z17zsymmetrize_loweriP18magmaDoubleComplexi
libmagma.so:_Z17zsymmetrize_upperiP18magmaDoubleComplexi
libmagma.so:_Z17zsyrk_d_workspace12magma_uplo_tii18magmaDoubleComplexPS0_iS0_S1_iS1_i
libmagma.so:_Z17zsytrf_diag_nopiv12magma_uplo_tiP18magmaDoubleComplexi
libmagma.so:_Z17ztranspose_kerneliiPK18magmaDoubleComplexiPS_i
libmagma.so:_Z18adjust_ipiv_kernelPiii
libmagma.so:_Z18chemv_kernel_L_sumi17magmaFloatComplexiS_PS_iPKS_
libmagma.so:_Z18clacpy_conj_kerneliP17magmaFloatComplexiS0_i
libmagma.so:_Z18clacpy_full_kerneliiPK17magmaFloatComplexiPS_i
libmagma.so:_Z18claset_full_kernelii17magmaFloatComplexS_PS_i
libmagma.so:_Z18csymv_kernel_L_sumi17magmaFloatComplexiS_PS_iPKS_
libmagma.so:_Z18dlacpy_conj_kerneliPdiS_i
libmagma.so:_Z18dlacpy_full_kerneliiPKdiPdi
libmagma.so:_Z18dlaset_full_kerneliiddPdi
libmagma.so:_Z18dslaswp_inv_kerneliPdiPfiiPKi
libmagma.so:_Z18dsymv_kernel_L_sumididPdiPKd
libmagma.so:_Z18kernel_cscal_cgeruiiP17magmaFloatComplexi
libmagma.so:_Z18kernel_zscal_zgeruiiP18magmaDoubleComplexi
libmagma.so:_Z18magma_clarf_kerneliPK17magmaFloatComplexS1_PS_i
libmagma.so:_Z18magma_dlarf_kerneliPKdS0_Pdi
libmagma.so:_Z18magma_get_ctrmm_nbi
libmagma.so:_Z18magma_get_ctrmv_nbi
libmagma.so:_Z18magma_get_dtrmm_nbi
libmagma.so:_Z18magma_get_dtrmv_nbi
libmagma.so:_Z18magma_get_strmm_nbi
libmagma.so:_Z18magma_get_strmv_nbi
libmagma.so:_Z18magma_get_ztrmm_nbi
libmagma.so:_Z18magma_get_ztrmv_nbi
libmagma.so:_Z18magma_slarf_kerneliPKfS0_Pfi
libmagma.so:_Z18magma_zlarf_kerneliPK18magmaDoubleComplexS1_PS_i
libmagma.so:_Z18slacpy_conj_kerneliPfiS_i
libmagma.so:_Z18slacpy_full_kerneliiPKfiPfi
libmagma.so:_Z18slaset_full_kerneliiffPfi
libmagma.so:_Z18ssymv_kernel_L_sumififPfiPKf
libmagma.so:_Z18zclaswp_inv_kerneliP18magmaDoubleComplexiP17magmaFloatComplexiiPKi
libmagma.so:_Z18zhemv_kernel_L_sumi18magmaDoubleComplexiS_PS_iPKS_
libmagma.so:_Z18zlacpy_conj_kerneliP18magmaDoubleComplexiS0_i
libmagma.so:_Z18zlacpy_full_kerneliiPK18magmaDoubleComplexiPS_i
libmagma.so:_Z18zlaset_full_kernelii18magmaDoubleComplexS_PS_i
libmagma.so:_Z18zsymv_kernel_L_sumi18magmaDoubleComplexiS_PS_iPKS_
libmagma.so:_Z19chemv_kernel_L_mgpuiPK17magmaFloatComplexiS1_iPS_iii
libmagma.so:_Z19clacpy_lower_kerneliiPK17magmaFloatComplexiPS_i
libmagma.so:_Z19clacpy_upper_kerneliiPK17magmaFloatComplexiPS_i
libmagma.so:_Z19claset_lower_kernelii17magmaFloatComplexS_PS_i
libmagma.so:_Z19claset_upper_kernelii17magmaFloatComplexS_PS_i
libmagma.so:_Z19cswap_kernel_nativeiP17magmaFloatComplexiiPi
libmagma.so:_Z19dlacpy_lower_kerneliiPKdiPdi
libmagma.so:_Z19dlacpy_upper_kerneliiPKdiPdi
libmagma.so:_Z19dlaset_lower_kerneliiddPdi
libmagma.so:_Z19dlaset_upper_kerneliiddPdi
libmagma.so:_Z19dswap_kernel_nativeiPdiiPi
libmagma.so:_Z19dsymv_kernel_L_mgpuiPKdiS0_iPdiii
libmagma.so:_Z19kernel_cset_pointerPP17magmaFloatComplexS0_iiii
libmagma.so:_Z19kernel_dset_pointerPPdS_iiii
libmagma.so:_Z19kernel_hset_pointerPP6__halfS0_iiii
libmagma.so:_Z19kernel_sset_pointerPPfS_iiii
libmagma.so:_Z19kernel_zset_pointerPP18magmaDoubleComplexS0_iiii
libmagma.so:_Z19magma_clarfx_kerneliP17magmaFloatComplexS0_S0_iPfS0_i
libmagma.so:_Z19magma_dlarfx_kerneliPdS_S_iS_S_i
libmagma.so:_Z19magma_slarfx_kerneliPfS_S_iS_S_i
libmagma.so:_Z19magma_zlarfx_kerneliP18magmaDoubleComplexS0_S0_iPdS0_i
libmagma.so:_Z19magmagpu_cswapblkcm26magmagpu_cswapblk_params_t
libmagma.so:_Z19magmagpu_cswapblkrm26magmagpu_cswapblk_params_t
libmagma.so:_Z19magmagpu_dswapblkcm26magmagpu_dswapblk_params_t
libmagma.so:_Z19magmagpu_dswapblkrm26magmagpu_dswapblk_params_t
libmagma.so:_Z19magmagpu_sswapblkcm26magmagpu_sswapblk_params_t
libmagma.so:_Z19magmagpu_sswapblkrm26magmagpu_sswapblk_params_t
libmagma.so:_Z19magmagpu_zswapblkcm26magmagpu_zswapblk_params_t
libmagma.so:_Z19magmagpu_zswapblkrm26magmagpu_zswapblk_params_t
libmagma.so:_Z19slacpy_lower_kerneliiPKfiPfi
libmagma.so:_Z19slacpy_upper_kerneliiPKfiPfi
libmagma.so:_Z19slaset_lower_kerneliiffPfi
libmagma.so:_Z19slaset_upper_kerneliiffPfi
libmagma.so:_Z19sswap_kernel_nativeiPfiiPi
libmagma.so:_Z19ssymv_kernel_L_mgpuiPKfiS0_iPfiii
libmagma.so:_Z19zhemv_kernel_L_mgpuiPK18magmaDoubleComplexiS1_iPS_iii
libmagma.so:_Z19zlacpy_lower_kerneliiPK18magmaDoubleComplexiPS_i
libmagma.so:_Z19zlacpy_upper_kerneliiPK18magmaDoubleComplexiPS_i
libmagma.so:_Z19zlaset_lower_kernelii18magmaDoubleComplexS_PS_i
libmagma.so:_Z19zlaset_upper_kernelii18magmaDoubleComplexS_PS_i
libmagma.so:_Z19zswap_kernel_nativeiP18magmaDoubleComplexiiPi
libmagma.so:_Z20convert_dp2hp_kerneliiPKdiP6__halfi
libmagma.so:_Z20convert_hp2dp_kerneliiPK6__halfiPdi
libmagma.so:_Z20convert_hp2sp_kerneliiPK6__halfiPfi
libmagma.so:_Z20convert_sp2hp_kerneliiPKfiP6__halfi
libmagma.so:_Z20cswap_kernel_batchediPP17magmaFloatComplexiiiiPPi
libmagma.so:_Z20dswap_kernel_batchediPPdiiiiPPi
libmagma.so:_Z20icamax_kernel_nativeiP17magmaFloatComplexiPiS1_ii
libmagma.so:_Z20idamax_kernel_nativeiPdiPiS0_ii
libmagma.so:_Z20isamax_kernel_nativeiPfiPiS0_ii
libmagma.so:_Z20izamax_kernel_nativeiP18magmaDoubleComplexiPiS1_ii
libmagma.so:_Z20magma_clarf_smkerneliiP17magmaFloatComplexS0_S0_i
libmagma.so:_Z20magma_dlarf_smkerneliiPdS_S_i
libmagma.so:_Z20magma_slarf_smkerneliiPfS_S_i
libmagma.so:_Z20magma_zlarf_smkerneliiP18magmaDoubleComplexS0_S0_i
libmagma.so:_Z20magmablas_ctrmm_core12magma_side_t12magma_uplo_t13magma_trans_t12magma_diag_tii17magmaFloatComplexPS3_iS4_iP11magma_queue
libmagma.so:_Z20magmablas_ctrmv_core12magma_uplo_t13magma_trans_t12magma_diag_tiP17magmaFloatComplexiS3_iP11magma_queue
libmagma.so:_Z20magmablas_dtrmm_core12magma_side_t12magma_uplo_t13magma_trans_t12magma_diag_tiidPdiS3_iP11magma_queue
libmagma.so:_Z20magmablas_dtrmv_core12magma_uplo_t13magma_trans_t12magma_diag_tiPdiS2_iP11magma_queue
libmagma.so:_Z20magmablas_strmm_core12magma_side_t12magma_uplo_t13magma_trans_t12magma_diag_tiifPfiS3_iP11magma_queue
libmagma.so:_Z20magmablas_strmv_core12magma_uplo_t13magma_trans_t12magma_diag_tiPfiS2_iP11magma_queue
libmagma.so:_Z20magmablas_ztrmm_core12magma_side_t12magma_uplo_t13magma_trans_t12magma_diag_tii18magmaDoubleComplexPS3_iS4_iP11magma_queue
libmagma.so:_Z20magmablas_ztrmv_core12magma_uplo_t13magma_trans_t12magma_diag_tiP18magmaDoubleComplexiS3_iP11magma_queue
libmagma.so:_Z20prefix_update_kernelPiiS_
libmagma.so:_Z20setup_pivinfo_kernelPiS_ii
libmagma.so:_Z20sswap_kernel_batchediPPfiiiiPPi
libmagma.so:_Z20zswap_kernel_batchediPP18magmaDoubleComplexiiiiPPi
libmagma.so:_Z21axpy_vbatched_checkerPiS_S_i
libmagma.so:_Z21cgeadd_batched_kernelii17magmaFloatComplexPKPKS_iPPS_i
libmagma.so:_Z21cgeqr2_kernel_batchediiPP17magmaFloatComplexiS1_
libmagma.so:_Z21cswap_kernel_vbatchediPiS_PP17magmaFloatComplexiiS_PS_i
libmagma.so:_Z21dgeadd_batched_kerneliidPKPKdiPPdi
libmagma.so:_Z21dgeqr2_kernel_batchediiPPdiS0_
libmagma.so:_Z21dswap_kernel_vbatchediPiS_PPdiiS_PS_i
libmagma.so:_Z21gemm_vbatched_checker13magma_trans_tS_PiS0_S0_S0_S0_S0_i
libmagma.so:_Z21gemv_vbatched_checker13magma_trans_tPiS0_S0_S0_S0_i
libmagma.so:_Z21hemm_vbatched_checker12magma_side_tPiS0_S0_S0_S0_i
libmagma.so:_Z21hemv_vbatched_checker12magma_uplo_tPiS0_S0_S0_i
libmagma.so:_Z21herk_vbatched_checker13magma_trans_tPiS0_S0_S0_i
libmagma.so:_Z21hlag2s_kernel_batchediiPKPK6__halfiPPfi
libmagma.so:_Z21icamax_kernel_batchediPP17magmaFloatComplexiiiiPPiiS2_ii
libmagma.so:_Z21idamax_kernel_batchediPPdiiiiPPiiS1_ii
libmagma.so:_Z21isamax_kernel_batchediPPfiiiiPPiiS1_ii
libmagma.so:_Z21izamax_kernel_batchediPP18magmaDoubleComplexiiiiPPiiS2_ii
libmagma.so:_Z21magma_ivec_add_kerneliiPiiS_S_
libmagma.so:_Z21magma_ivec_max_kerneliPiS_i
libmagma.so:_Z21magma_ivec_mul_kerneliPiS_S_
libmagma.so:_Z21magmablas_ctrmm_small12magma_side_t12magma_uplo_t13magma_trans_t12magma_diag_tii17magmaFloatComplexPS3_iS4_iP11magma_queue
libmagma.so:_Z21magmablas_ctrmv_small12magma_uplo_t13magma_trans_t12magma_diag_tiP17magmaFloatComplexiS3_iP11magma_queue
libmagma.so:_Z21magmablas_dtrmm_small12magma_side_t12magma_uplo_t13magma_trans_t12magma_diag_tiidPdiS3_iP11magma_queue
libmagma.so:_Z21magmablas_dtrmv_small12magma_uplo_t13magma_trans_t12magma_diag_tiPdiS2_iP11magma_queue
libmagma.so:_Z21magmablas_strmm_small12magma_side_t12magma_uplo_t13magma_trans_t12magma_diag_tiifPfiS3_iP11magma_queue
libmagma.so:_Z21magmablas_strmv_small12magma_uplo_t13magma_trans_t12magma_diag_tiPfiS2_iP11magma_queue
libmagma.so:_Z21magmablas_ztrmm_small12magma_side_t12magma_uplo_t13magma_trans_t12magma_diag_tii18magmaDoubleComplexPS3_iS4_iP11magma_queue
libmagma.so:_Z21magmablas_ztrmv_small12magma_uplo_t13magma_trans_t12magma_diag_tiP18magmaDoubleComplexiS3_iP11magma_queue
libmagma.so:_Z21sgeadd_batched_kerneliifPKPKfiPPfi
libmagma.so:_Z21sgeqr2_kernel_batchediiPPfiS0_
libmagma.so:_Z21slag2h_kernel_batchediiPKPKfiPP6__halfifPiP11magma_queue
libmagma.so:_Z21sswap_kernel_vbatchediPiS_PPfiiS_PS_i
libmagma.so:_Z21trmm_vbatched_checker12magma_side_tPiS0_S0_S0_i
libmagma.so:_Z21trsm_vbatched_checker12magma_side_tPiS0_S0_S0_i
libmagma.so:_Z21zgeadd_batched_kernelii18magmaDoubleComplexPKPKS_iPPS_i
libmagma.so:_Z21zgeqr2_kernel_batchediiPP18magmaDoubleComplexiS1_
libmagma.so:_Z21zswap_kernel_vbatchediPiS_PP18magmaDoubleComplexiiS_PS_i
libmagma.so:_Z22ctranspose_conj_kerneliiPK17magmaFloatComplexiPS_i
libmagma.so:_Z22ctranspose_inplace_oddiP17magmaFloatComplexi
libmagma.so:_Z22dtranspose_inplace_oddiPdi
libmagma.so:_Z22getrf_vbatched_checkerPiS_S_S_i
libmagma.so:_Z22her2k_vbatched_checker13magma_trans_tPiS0_S0_S0_S0_i
libmagma.so:_Z22icamax_kernel_vbatchediPiS_PP17magmaFloatComplexiiS_PS_iS_ii
libmagma.so:_Z22idamax_kernel_vbatchediPiS_PPdiiS_PS_iS_ii
libmagma.so:_Z22isamax_kernel_vbatchediPiS_PPfiiS_PS_iS_ii
libmagma.so:_Z22izamax_kernel_vbatchediPiS_PP18magmaDoubleComplexiiS_PS_iS_ii
libmagma.so:_Z22magma_cbulge_data_initP19magma_cbulge_data_siiiiiiiP17magmaFloatComplexiS2_iS2_S2_iPVi
libmagma.so:_Z22magma_dbulge_data_initP19magma_dbulge_data_siiiiiiiPdiS1_iS1_S1_iPVi
libmagma.so:_Z22magma_ivec_addc_kerneliPiiS_
libmagma.so:_Z22magma_ivec_maxc_kerneliPiiS_
libmagma.so:_Z22magma_ivec_minc_kerneliPiiS_
libmagma.so:_Z22magma_ivec_mulc_kerneliPiiS_
libmagma.so:_Z22magma_sbulge_data_initP19magma_sbulge_data_siiiiiiiPfiS1_iS1_S1_iPVi
libmagma.so:_Z22magma_zbulge_data_initP19magma_zbulge_data_siiiiiiiP18magmaDoubleComplexiS2_iS2_S2_iPVi
libmagma.so:_Z22magmablas_dnrm2_kerneliPdiS_
libmagma.so:_Z22magmablas_snrm2_kerneliPfiS_
libmagma.so:_Z22potrf_vbatched_checker12magma_uplo_tPiS0_i
libmagma.so:_Z22stranspose_inplace_oddiPfi
libmagma.so:_Z22ztranspose_conj_kerneliiPK18magmaDoubleComplexiPS_i
libmagma.so:_Z22ztranspose_inplace_oddiP18magmaDoubleComplexi
libmagma.so:_Z23cheinertia_lower_kerneliPK17magmaFloatComplexiPiS2_
libmagma.so:_Z23cheinertia_upper_kerneliPK17magmaFloatComplexiPiS2_
libmagma.so:_Z23chemv_kernel_L_mgpu_sumi17magmaFloatComplexiPS_iPKS_iii
libmagma.so:_Z23clanhe_inf_kernel_loweriPK17magmaFloatComplexiPfii
libmagma.so:_Z23clanhe_inf_kernel_upperiPK17magmaFloatComplexiPfii
libmagma.so:_Z23clanhe_max_kernel_loweriPK17magmaFloatComplexiPf
libmagma.so:_Z23clanhe_max_kernel_upperiPK17magmaFloatComplexiPf
libmagma.so:_Z23csymmetrize_tiles_loweriP17magmaFloatComplexiii
libmagma.so:_Z23csymmetrize_tiles_upperiP17magmaFloatComplexiii
libmagma.so:_Z23ctranspose_inplace_eveniP17magmaFloatComplexi
libmagma.so:_Z23dlansy_inf_kernel_loweriPKdiPdii
libmagma.so:_Z23dlansy_inf_kernel_upperiPKdiPdii
libmagma.so:_Z23dlansy_max_kernel_loweriPKdiPd
libmagma.so:_Z23dlansy_max_kernel_upperiPKdiPd
libmagma.so:_Z23dsiinertia_lower_kerneliPKdiPiS1_
libmagma.so:_Z23dsiinertia_upper_kerneliPKdiPiS1_
libmagma.so:_Z23dsymmetrize_tiles_loweriPdiii
libmagma.so:_Z23dsymmetrize_tiles_upperiPdiii
libmagma.so:_Z23dsymv_kernel_L_mgpu_sumidiPdiPKdiii
libmagma.so:_Z23dtranspose_inplace_eveniPdi
libmagma.so:_Z23kernel_cset_pointer_varPP17magmaFloatComplexS0_PiiiS2_
libmagma.so:_Z23kernel_dset_pointer_varPPdS_PiiiS1_
libmagma.so:_Z23kernel_sset_pointer_varPPfS_PiiiS1_
libmagma.so:_Z23kernel_zset_pointer_varPP18magmaDoubleComplexS0_PiiiS2_
libmagma.so:_Z23magma_capplyQ_data_initP20magma_capplyQ_data_siiiiiiP17magmaFloatComplexiS2_iS2_S2_iS2_i
libmagma.so:_Z23magma_clarfg_gpu_kerneliP17magmaFloatComplexS0_S0_PfS0_
libmagma.so:_Z23magma_dapplyQ_data_initP20magma_dapplyQ_data_siiiiiiPdiS1_iS1_S1_iS1_i
libmagma.so:_Z23magma_dlarfg_gpu_kerneliPdS_S_S_S_
libmagma.so:_Z23magma_sapplyQ_data_initP20magma_sapplyQ_data_siiiiiiPfiS1_iS1_S1_iS1_i
libmagma.so:_Z23magma_slarfg_gpu_kerneliPfS_S_S_S_
libmagma.so:_Z23magma_zapplyQ_data_initP20magma_zapplyQ_data_siiiiiiP18magmaDoubleComplexiS2_iS2_S2_iS2_i
libmagma.so:_Z23magma_zlarfg_gpu_kerneliP18magmaDoubleComplexS0_S0_PdS0_
libmagma.so:_Z23magmablas_dscal_inversePdS_i
libmagma.so:_Z23magmablas_dznrm2_kerneliP18magmaDoubleComplexiPd
libmagma.so:_Z23magmablas_scnrm2_kerneliP17magmaFloatComplexiPf
libmagma.so:_Z23magmablas_sscal_inversePfS_i
libmagma.so:_Z23setup_pivinfo_sm_kernelPiS_ii
libmagma.so:_Z23slansy_inf_kernel_loweriPKfiPfii
libmagma.so:_Z23slansy_inf_kernel_upperiPKfiPfii
libmagma.so:_Z23slansy_max_kernel_loweriPKfiPf
libmagma.so:_Z23slansy_max_kernel_upperiPKfiPf
libmagma.so:_Z23ssiinertia_lower_kerneliPKfiPiS1_
libmagma.so:_Z23ssiinertia_upper_kerneliPKfiPiS1_
libmagma.so:_Z23ssymmetrize_tiles_loweriPfiii
libmagma.so:_Z23ssymmetrize_tiles_upperiPfiii
libmagma.so:_Z23ssymv_kernel_L_mgpu_sumifiPfiPKfiii
libmagma.so:_Z23stranspose_inplace_eveniPfi
libmagma.so:_Z23zheinertia_lower_kerneliPK18magmaDoubleComplexiPiS2_
libmagma.so:_Z23zheinertia_upper_kerneliPK18magmaDoubleComplexiPiS2_
libmagma.so:_Z23zhemv_kernel_L_mgpu_sumi18magmaDoubleComplexiPS_iPKS_iii
libmagma.so:_Z23zlanhe_inf_kernel_loweriPK18magmaDoubleComplexiPdii
libmagma.so:_Z23zlanhe_inf_kernel_upperiPK18magmaDoubleComplexiPdii
libmagma.so:_Z23zlanhe_max_kernel_loweriPK18magmaDoubleComplexiPd
libmagma.so:_Z23zlanhe_max_kernel_upperiPK18magmaDoubleComplexiPd
libmagma.so:_Z23zsymmetrize_tiles_loweriP18magmaDoubleComplexiii
libmagma.so:_Z23zsymmetrize_tiles_upperiP18magmaDoubleComplexiii
libmagma.so:_Z23ztranspose_inplace_eveniP18magmaDoubleComplexi
libmagma.so:_Z24cgeqr2_sm_kernel_batchediiPP17magmaFloatComplexiS1_
libmagma.so:_Z24csplit_diag_block_invertiP17magmaFloatComplexiS0_
libmagma.so:_Z24ctrtri_diag_lower_kernel12magma_diag_tiPK17magmaFloatComplexiPS0_
libmagma.so:_Z24ctrtri_diag_upper_kernel12magma_diag_tiPK17magmaFloatComplexiPS0_
libmagma.so:_Z24dgeqr2_sm_kernel_batchediiPPdiS0_
libmagma.so:_Z24dsplit_diag_block_invertiPdiS_
libmagma.so:_Z24dtrtri_diag_lower_kernel12magma_diag_tiPKdiPd
libmagma.so:_Z24dtrtri_diag_upper_kernel12magma_diag_tiPKdiPd
libmagma.so:_Z24magma_clarfgx_gpu_kerneliP17magmaFloatComplexS0_S0_PfS0_i
libmagma.so:_Z24magma_dlarfgx_gpu_kerneliPdS_S_S_S_i
libmagma.so:_Z24magma_imax_size_kernel_1Pii
libmagma.so:_Z24magma_imax_size_kernel_2PiS_i
libmagma.so:_Z24magma_imax_size_kernel_3PiS_S_i
libmagma.so:_Z24magma_isum_reduce_kerneliPiS_i
libmagma.so:_Z24magma_ivec_min_vv_kerneliPiS_S_
libmagma.so:_Z24magma_slarfgx_gpu_kerneliPfS_S_S_S_i
libmagma.so:_Z24magma_zlarfgx_gpu_kerneliP18magmaDoubleComplexS0_S0_PdS0_i
libmagma.so:_Z24magmablas_csscal_inverseP17magmaFloatComplexS0_i
libmagma.so:_Z24magmablas_dnrm2_smkerneliiPdiS_
libmagma.so:_Z24magmablas_snrm2_smkerneliiPfiS_
libmagma.so:_Z24magmablas_zdscal_inverseP18magmaDoubleComplexS0_i
libmagma.so:_Z24sgeqr2_sm_kernel_batchediiPPfiS0_
libmagma.so:_Z24ssplit_diag_block_invertiPfiS_
libmagma.so:_Z24strtri_diag_lower_kernel12magma_diag_tiPKfiPf
libmagma.so:_Z24strtri_diag_upper_kernel12magma_diag_tiPKfiPf
libmagma.so:_Z24zgeqr2_sm_kernel_batchediiPP18magmaDoubleComplexiS1_
libmagma.so:_Z24zsplit_diag_block_invertiP18magmaDoubleComplexiS0_
libmagma.so:_Z24ztrtri_diag_lower_kernel12magma_diag_tiPK18magmaDoubleComplexiPS0_
libmagma.so:_Z24ztrtri_diag_upper_kernel12magma_diag_tiPK18magmaDoubleComplexiPS0_
libmagma.so:_Z25cgetf2_native_init_kerneliiPiS_
libmagma.so:_Z25cgetf2trsm_kernel_batchediiPP17magmaFloatComplexii
libmagma.so:_Z25clacpy_sym_in_full_kerneliiPK17magmaFloatComplexiPS_i
libmagma.so:_Z25clarft_gemvcolwise_kerneliP17magmaFloatComplexiS0_S0_ii
libmagma.so:_Z25clarft_gemvrowwise_kerneliiP17magmaFloatComplexS0_iS0_i
libmagma.so:_Z25claswp_rowparallel_kerneliiiP17magmaFloatComplexiS0_iPi
libmagma.so:_Z25cswap_kernel_vbatched_orgiPiS_PP17magmaFloatComplexiiS_iPS_
libmagma.so:_Z25ctranspose_kernel_batchediiPP17magmaFloatComplexiS1_i
libmagma.so:_Z25dgetf2_native_init_kerneliiPiS_
libmagma.so:_Z25dgetf2trsm_kernel_batchediiPPdii
libmagma.so:_Z25dlacpy_sym_in_full_kerneliiPKdiPdi
libmagma.so:_Z25dlarft_gemvcolwise_kerneliPdiS_S_ii
libmagma.so:_Z25dlarft_gemvrowwise_kerneliiPdS_iS_i
libmagma.so:_Z25dlaswp_rowparallel_kerneliiiPdiS_iPi
libmagma.so:_Z25dswap_kernel_vbatched_orgiPiS_PPdiiS_iPS_
libmagma.so:_Z25dtranspose_kernel_batchediiPPdiS0_i
libmagma.so:_Z25idisplace_pointers_kernelPPiS0_iii
libmagma.so:_Z25magma_cbulge_data_destroyP19magma_cbulge_data_s
libmagma.so:_Z25magma_cbulge_id_data_initP22magma_cbulge_id_data_siP19magma_cbulge_data_s
libmagma.so:_Z25magma_dbulge_data_destroyP19magma_dbulge_data_s
libmagma.so:_Z25magma_dbulge_id_data_initP22magma_dbulge_id_data_siP19magma_dbulge_data_s
libmagma.so:_Z25magma_ivec_ceildiv_kerneliPiiS_
libmagma.so:_Z25magma_ivec_roundup_kerneliPiiS_
libmagma.so:_Z25magma_prefix_sum_internalPiS_iP11magma_queue
libmagma.so:_Z25magma_sbulge_data_destroyP19magma_sbulge_data_s
libmagma.so:_Z25magma_sbulge_id_data_initP22magma_sbulge_id_data_siP19magma_sbulge_data_s
libmagma.so:_Z25magma_zbulge_data_destroyP19magma_zbulge_data_s
libmagma.so:_Z25magma_zbulge_id_data_initP22magma_zbulge_id_data_siP19magma_zbulge_data_s
libmagma.so:_Z25magmablas_dznrm2_smkerneliiP18magmaDoubleComplexiPd
libmagma.so:_Z25magmablas_scnrm2_smkerneliiP17magmaFloatComplexiPf
libmagma.so:_Z25sgetf2_native_init_kerneliiPiS_
libmagma.so:_Z25sgetf2trsm_kernel_batchediiPPfii
libmagma.so:_Z25slacpy_sym_in_full_kerneliiPKfiPfi
libmagma.so:_Z25slarft_gemvcolwise_kerneliPfiS_S_ii
libmagma.so:_Z25slarft_gemvrowwise_kerneliiPfS_iS_i
libmagma.so:_Z25slaswp_rowparallel_kerneliiiPfiS_iPi
libmagma.so:_Z25sswap_kernel_vbatched_orgiPiS_PPfiiS_iPS_
libmagma.so:_Z25stranspose_kernel_batchediiPPfiS0_i
libmagma.so:_Z25zdisplace_pointers_kernelPP17magmaFloatComplexS1_iii
libmagma.so:_Z25zdisplace_pointers_kernelPP18magmaDoubleComplexS1_iii
libmagma.so:_Z25zdisplace_pointers_kernelPPdS0_iii
libmagma.so:_Z25zdisplace_pointers_kernelPPfS0_iii
libmagma.so:_Z25zgetf2_native_init_kerneliiPiS_
libmagma.so:_Z25zgetf2trsm_kernel_batchediiPP18magmaDoubleComplexii
libmagma.so:_Z25zlacpy_sym_in_full_kerneliiPK18magmaDoubleComplexiPS_i
libmagma.so:_Z25zlarft_gemvcolwise_kerneliP18magmaDoubleComplexiS0_S0_ii
libmagma.so:_Z25zlarft_gemvrowwise_kerneliiP18magmaDoubleComplexS0_iS0_i
libmagma.so:_Z25zlaswp_rowparallel_kerneliiiP18magmaDoubleComplexiS0_iPi
libmagma.so:_Z25zswap_kernel_vbatched_orgiPiS_PP18magmaDoubleComplexiiS_iPS_
libmagma.so:_Z25ztranspose_kernel_batchediiPP18magmaDoubleComplexiS1_i
libmagma.so:_Z26__device_stub__cgeadd_fullii17magmaFloatComplexPKS_iPS_i
libmagma.so:_Z26__device_stub__clascl_fulliifP17magmaFloatComplexi
libmagma.so:_Z26__device_stub__dgeadd_fulliidPKdiPdi
libmagma.so:_Z26__device_stub__dlascl_fulliidPdi
libmagma.so:_Z26__device_stub__kernel_ddotiPdii
libmagma.so:_Z26__device_stub__kernel_sdotiPfii
libmagma.so:_Z26__device_stub__sgeadd_fulliifPKfiPfi
libmagma.so:_Z26__device_stub__slascl_fulliifPfi
libmagma.so:_Z26__device_stub__zgeadd_fullii18magmaDoubleComplexPKS_iPS_i
libmagma.so:_Z26__device_stub__zlascl_fulliidP18magmaDoubleComplexi
libmagma.so:_Z26adjust_ipiv_kernel_batchedPPiiii
libmagma.so:_Z26clacpy_full_kernel_batchediiPKPK17magmaFloatComplexiPPS_i
libmagma.so:_Z26clacpy_sym_in_lower_kerneliiPiS_PK17magmaFloatComplexiPS0_i
libmagma.so:_Z26clacpy_sym_in_upper_kerneliiPK17magmaFloatComplexiPS_i
libmagma.so:_Z26clacpy_sym_out_full_kerneliiPK17magmaFloatComplexiPS_i
libmagma.so:_Z26claset_full_kernel_batchedii17magmaFloatComplexS_PPS_i
libmagma.so:_Z26claswp_columnserial_kerneliP17magmaFloatComplexiiiPi
libmagma.so:_Z26dlacpy_full_kernel_batchediiPKPKdiPPdi
libmagma.so:_Z26dlacpy_sym_in_lower_kerneliiPiS_PKdiPdi
libmagma.so:_Z26dlacpy_sym_in_upper_kerneliiPKdiPdi
libmagma.so:_Z26dlacpy_sym_out_full_kerneliiPKdiPdi
libmagma.so:_Z26dlaset_full_kernel_batchediiddPPdi
libmagma.so:_Z26dlaswp_columnserial_kerneliPdiiiPi
libmagma.so:_Z26magma_capplyQ_data_destroyP20magma_capplyQ_data_s
libmagma.so:_Z26magma_capplyQ_id_data_initP21magma_capplyQ_id_dataiP20magma_capplyQ_data_s
libmagma.so:_Z26magma_dapplyQ_data_destroyP20magma_dapplyQ_data_s
libmagma.so:_Z26magma_dapplyQ_id_data_initP21magma_dapplyQ_id_dataiP20magma_dapplyQ_data_s
libmagma.so:_Z26magma_get_ctrmm_batched_nbi
libmagma.so:_Z26magma_get_ctrsm_batched_nbi
libmagma.so:_Z26magma_get_dtrmm_batched_nbi
libmagma.so:_Z26magma_get_dtrsm_batched_nbi
libmagma.so:_Z26magma_get_strmm_batched_nbi
libmagma.so:_Z26magma_get_strsm_batched_nbi
libmagma.so:_Z26magma_get_ztrmm_batched_nbi
libmagma.so:_Z26magma_get_ztrsm_batched_nbi
libmagma.so:_Z26magma_sapplyQ_data_destroyP20magma_sapplyQ_data_s
libmagma.so:_Z26magma_sapplyQ_id_data_initP21magma_sapplyQ_id_dataiP20magma_sapplyQ_data_s
libmagma.so:_Z26magma_zapplyQ_data_destroyP20magma_zapplyQ_data_s
libmagma.so:_Z26magma_zapplyQ_id_data_initP21magma_zapplyQ_id_dataiP20magma_zapplyQ_data_s
libmagma.so:_Z26slacpy_full_kernel_batchediiPKPKfiPPfi
libmagma.so:_Z26slacpy_sym_in_lower_kerneliiPiS_PKfiPfi
libmagma.so:_Z26slacpy_sym_in_upper_kerneliiPKfiPfi
libmagma.so:_Z26slacpy_sym_out_full_kerneliiPKfiPfi
libmagma.so:_Z26slaset_full_kernel_batchediiffPPfi
libmagma.so:_Z26slaswp_columnserial_kerneliPfiiiPi
libmagma.so:_Z26zlacpy_full_kernel_batchediiPKPK18magmaDoubleComplexiPPS_i
libmagma.so:_Z26zlacpy_sym_in_lower_kerneliiPiS_PK18magmaDoubleComplexiPS0_i
libmagma.so:_Z26zlacpy_sym_in_upper_kerneliiPK18magmaDoubleComplexiPS_i
libmagma.so:_Z26zlacpy_sym_out_full_kerneliiPK18magmaDoubleComplexiPS_i
libmagma.so:_Z26zlaset_full_kernel_batchedii18magmaDoubleComplexS_PPS_i
libmagma.so:_Z26zlaswp_columnserial_kerneliP18magmaDoubleComplexiiiPi
libmagma.so:_Z27__device_stub__cgeadd2_fullii17magmaFloatComplexPKS_iS_PS_i
libmagma.so:_Z27__device_stub__clascl2_fulliiPKfP17magmaFloatComplexi
libmagma.so:_Z27__device_stub__clascl_loweriifP17magmaFloatComplexi
libmagma.so:_Z27__device_stub__clascl_upperiifP17magmaFloatComplexi
libmagma.so:_Z27__device_stub__clat2z_loweriPK17magmaFloatComplexiP18magmaDoubleComplexi
libmagma.so:_Z27__device_stub__clat2z_upperiPK17magmaFloatComplexiP18magmaDoubleComplexi
libmagma.so:_Z27__device_stub__cswap_kerneliP17magmaFloatComplexiS0_i
libmagma.so:_Z27__device_stub__dgeadd2_fulliidPKdidPdi
libmagma.so:_Z27__device_stub__dlascl2_fulliiPKdPdi
libmagma.so:_Z27__device_stub__dlascl_loweriidPdi
libmagma.so:_Z27__device_stub__dlascl_upperiidPdi
libmagma.so:_Z27__device_stub__dlat2s_loweriPKdiPfid
libmagma.so:_Z27__device_stub__dlat2s_upperiPKdiPfid
libmagma.so:_Z27__device_stub__dswap_kerneliPdiS_i
libmagma.so:_Z27__device_stub__kernel_cdotciP17magmaFloatComplexii
libmagma.so:_Z27__device_stub__kernel_cswapiP17magmaFloatComplexiii
libmagma.so:_Z27__device_stub__kernel_dscaliPdi
libmagma.so:_Z27__device_stub__kernel_dswapiPdiii
libmagma.so:_Z27__device_stub__kernel_sscaliPfi
libmagma.so:_Z27__device_stub__kernel_sswapiPfiii
libmagma.so:_Z27__device_stub__kernel_zdotciP18magmaDoubleComplexii
libmagma.so:_Z27__device_stub__kernel_zswapiP18magmaDoubleComplexiii
libmagma.so:_Z27__device_stub__magma_dger_1iiiiPdS_i
libmagma.so:_Z27__device_stub__magma_dger_2iiiiPdiS_i
libmagma.so:_Z27__device_stub__magma_sger_1iiiiPfS_i
libmagma.so:_Z27__device_stub__magma_sger_2iiiiPfiS_i
libmagma.so:_Z27__device_stub__sgeadd2_fulliifPKfifPfi
libmagma.so:_Z27__device_stub__slascl2_fulliiPKfPfi
libmagma.so:_Z27__device_stub__slascl_loweriifPfi
libmagma.so:_Z27__device_stub__slascl_upperiifPfi
libmagma.so:_Z27__device_stub__slat2d_loweriPKfiPdi
libmagma.so:_Z27__device_stub__slat2d_upperiPKfiPdi
libmagma.so:_Z27__device_stub__sswap_kerneliPfiS_i
libmagma.so:_Z27__device_stub__zgeadd2_fullii18magmaDoubleComplexPKS_iS_PS_i
libmagma.so:_Z27__device_stub__zlascl2_fulliiPKdP18magmaDoubleComplexi
libmagma.so:_Z27__device_stub__zlascl_loweriidP18magmaDoubleComplexi
libmagma.so:_Z27__device_stub__zlascl_upperiidP18magmaDoubleComplexi
libmagma.so:_Z27__device_stub__zlat2c_loweriPK18magmaDoubleComplexiP17magmaFloatComplexid
libmagma.so:_Z27__device_stub__zlat2c_upperiPK18magmaDoubleComplexiP17magmaFloatComplexid
libmagma.so:_Z27__device_stub__zswap_kerneliP18magmaDoubleComplexiS0_i
libmagma.so:_Z27adjust_ipiv_kernel_vbatchedPPiiS_ii
libmagma.so:_Z27clacpy_full_kernel_vbatchedPiS_PKPK17magmaFloatComplexS_PPS0_S_
libmagma.so:_Z27clacpy_lower_kernel_batchediiPKPK17magmaFloatComplexiPPS_i
libmagma.so:_Z27clacpy_sym_out_lower_kerneliiPiS_PK17magmaFloatComplexiPS0_i
libmagma.so:_Z27clacpy_sym_out_upper_kerneliiPK17magmaFloatComplexiPS_i
libmagma.so:_Z27clacpy_upper_kernel_batchediiPKPK17magmaFloatComplexiPPS_i
libmagma.so:_Z27clarft_ctrmv_sm32x32_kerneliiP17magmaFloatComplexS0_iS0_i
libmagma.so:_Z27claset_full_kernel_vbatchedPiS_17magmaFloatComplexS0_PPS0_S_
libmagma.so:_Z27claset_lower_kernel_batchedii17magmaFloatComplexS_PPS_i
libmagma.so:_Z27claset_upper_kernel_batchedii17magmaFloatComplexS_PPS_i
libmagma.so:_Z27ctranspose_conj_inplace_oddiP17magmaFloatComplexi
libmagma.so:_Z27dlacpy_full_kernel_vbatchedPiS_PKPKdS_PPdS_
libmagma.so:_Z27dlacpy_lower_kernel_batchediiPKPKdiPPdi
libmagma.so:_Z27dlacpy_sym_out_lower_kerneliiPiS_PKdiPdi
libmagma.so:_Z27dlacpy_sym_out_upper_kerneliiPKdiPdi
libmagma.so:_Z27dlacpy_upper_kernel_batchediiPKPKdiPPdi
libmagma.so:_Z27dlarft_dtrmv_sm32x32_kerneliiPdS_iS_i
libmagma.so:_Z27dlaset_full_kernel_vbatchedPiS_ddPPdS_
libmagma.so:_Z27dlaset_lower_kernel_batchediiddPPdi
libmagma.so:_Z27dlaset_upper_kernel_batchediiddPPdi
libmagma.so:_Z27magma_cgetf2_native_blockediiP17magmaFloatComplexiPiS1_iP11magma_queue
libmagma.so:_Z27magma_dgetf2_native_blockediiPdiPiS0_iP11magma_queue
libmagma.so:_Z27magma_get_ctrmm_vbatched_nbi
libmagma.so:_Z27magma_get_ctrsm_vbatched_nbi
libmagma.so:_Z27magma_get_dtrmm_vbatched_nbi
libmagma.so:_Z27magma_get_dtrsm_vbatched_nbi
libmagma.so:_Z27magma_get_strmm_vbatched_nbi
libmagma.so:_Z27magma_get_strsm_vbatched_nbi
libmagma.so:_Z27magma_get_ztrmm_vbatched_nbi
libmagma.so:_Z27magma_get_ztrsm_vbatched_nbi
libmagma.so:_Z27magma_prefix_sum_internal_wPiS_iS_iP11magma_queue
libmagma.so:_Z27magma_sgetf2_native_blockediiPfiPiS0_iP11magma_queue
libmagma.so:_Z27magma_zgetf2_native_blockediiP18magmaDoubleComplexiPiS1_iP11magma_queue
libmagma.so:_Z27slacpy_full_kernel_vbatchedPiS_PKPKfS_PPfS_
libmagma.so:_Z27slacpy_lower_kernel_batchediiPKPKfiPPfi
libmagma.so:_Z27slacpy_sym_out_lower_kerneliiPiS_PKfiPfi
libmagma.so:_Z27slacpy_sym_out_upper_kerneliiPKfiPfi
libmagma.so:_Z27slacpy_upper_kernel_batchediiPKPKfiPPfi
libmagma.so:_Z27slarft_strmv_sm32x32_kerneliiPfS_iS_i
libmagma.so:_Z27slaset_full_kernel_vbatchedPiS_ffPPfS_
libmagma.so:_Z27slaset_lower_kernel_batchediiffPPfi
libmagma.so:_Z27slaset_upper_kernel_batchediiffPPfi
libmagma.so:_Z27zlacpy_full_kernel_vbatchedPiS_PKPK18magmaDoubleComplexS_PPS0_S_
libmagma.so:_Z27zlacpy_lower_kernel_batchediiPKPK18magmaDoubleComplexiPPS_i
libmagma.so:_Z27zlacpy_sym_out_lower_kerneliiPiS_PK18magmaDoubleComplexiPS0_i
libmagma.so:_Z27zlacpy_sym_out_upper_kerneliiPK18magmaDoubleComplexiPS_i
libmagma.so:_Z27zlacpy_upper_kernel_batchediiPKPK18magmaDoubleComplexiPPS_i
libmagma.so:_Z27zlarft_ztrmv_sm32x32_kerneliiP18magmaDoubleComplexS0_iS0_i
libmagma.so:_Z27zlaset_full_kernel_vbatchedPiS_18magmaDoubleComplexS0_PPS0_S_
libmagma.so:_Z27zlaset_lower_kernel_batchedii18magmaDoubleComplexS_PPS_i
libmagma.so:_Z27zlaset_upper_kernel_batchedii18magmaDoubleComplexS_PPS_i
libmagma.so:_Z27ztranspose_conj_inplace_oddiP18magmaDoubleComplexi
libmagma.so:_Z28__device_stub__clag2z_kerneliiPK17magmaFloatComplexiP18magmaDoubleComplexi
libmagma.so:_Z28__device_stub__clarfg_kerneliP17magmaFloatComplexS0_iS0_
libmagma.so:_Z28__device_stub__clascl2_loweriiPKfP17magmaFloatComplexi
libmagma.so:_Z28__device_stub__clascl2_upperiiPKfP17magmaFloatComplexi
libmagma.so:_Z28__device_stub__claswp_kerneliP17magmaFloatComplexi15claswp_params_t
libmagma.so:_Z28__device_stub__dlag2s_kerneliiPKdiPfid
libmagma.so:_Z28__device_stub__dlarfg_kerneliPdS_iS_
libmagma.so:_Z28__device_stub__dlascl2_loweriiPKdPdi
libmagma.so:_Z28__device_stub__dlascl2_upperiiPKdPdi
libmagma.so:_Z28__device_stub__dlaswp_kerneliPdi15dlaswp_params_t
libmagma.so:_Z28__device_stub__hlag2s_kerneliiPK6__halfiPfi
libmagma.so:_Z28__device_stub__hlaswp_kerneliP6__halfi15hlaswp_params_t
libmagma.so:_Z28__device_stub__kernel_clacgviP17magmaFloatComplexi
libmagma.so:_Z28__device_stub__kernel_csscaliP17magmaFloatComplexi
libmagma.so:_Z28__device_stub__kernel_zdscaliP18magmaDoubleComplexi
libmagma.so:_Z28__device_stub__kernel_zlacgviP18magmaDoubleComplexi
libmagma.so:_Z28__device_stub__magma_cgeru_1iiiiP17magmaFloatComplexS0_i
libmagma.so:_Z28__device_stub__magma_cgeru_2iiiiP17magmaFloatComplexiS0_i
libmagma.so:_Z28__device_stub__magma_zgeru_1iiiiP18magmaDoubleComplexS0_i
libmagma.so:_Z28__device_stub__magma_zgeru_2iiiiP18magmaDoubleComplexiS0_i
libmagma.so:_Z28__device_stub__slag2d_kerneliiPKfiPdi
libmagma.so:_Z28__device_stub__slag2h_kerneliiPKfiP6__halfifPi
libmagma.so:_Z28__device_stub__slarfg_kerneliPfS_iS_
libmagma.so:_Z28__device_stub__slascl2_loweriiPKfPfi
libmagma.so:_Z28__device_stub__slascl2_upperiiPKfPfi
libmagma.so:_Z28__device_stub__slaswp_kerneliPfi15slaswp_params_t
libmagma.so:_Z28__device_stub__zlag2c_kerneliiPK18magmaDoubleComplexiP17magmaFloatComplexid
libmagma.so:_Z28__device_stub__zlarfg_kerneliP18magmaDoubleComplexS0_iS0_
libmagma.so:_Z28__device_stub__zlascl2_loweriiPKdP18magmaDoubleComplexi
libmagma.so:_Z28__device_stub__zlascl2_upperiiPKdP18magmaDoubleComplexi
libmagma.so:_Z28__device_stub__zlaswp_kerneliP18magmaDoubleComplexi15zlaswp_params_t
libmagma.so:_Z28clacpy_lower_kernel_vbatchedPiS_PKPK17magmaFloatComplexS_PPS0_S_
libmagma.so:_Z28clacpy_upper_kernel_vbatchedPiS_PKPK17magmaFloatComplexS_PPS0_S_
libmagma.so:_Z28claset_lower_kernel_vbatchedPiS_17magmaFloatComplexS0_PPS0_S_
libmagma.so:_Z28claset_upper_kernel_vbatchedPiS_17magmaFloatComplexS0_PPS0_S_
libmagma.so:_Z28ctranspose_conj_inplace_eveniP17magmaFloatComplexi
libmagma.so:_Z28dlacpy_lower_kernel_vbatchedPiS_PKPKdS_PPdS_
libmagma.so:_Z28dlacpy_upper_kernel_vbatchedPiS_PKPKdS_PPdS_
libmagma.so:_Z28dlaset_lower_kernel_vbatchedPiS_ddPPdS_
libmagma.so:_Z28dlaset_upper_kernel_vbatchedPiS_ddPPdS_
libmagma.so:_Z28magma_compute_trsm_jb_kerneliPiiS_
libmagma.so:_Z28magmablas_dnrm2_check_kerneliPdiS_S_
libmagma.so:_Z28magmablas_snrm2_check_kerneliPfiS_S_
libmagma.so:_Z28setup_pivinfo_kernel_batchedPPiS0_iii
libmagma.so:_Z28slacpy_lower_kernel_vbatchedPiS_PKPKfS_PPfS_
libmagma.so:_Z28slacpy_upper_kernel_vbatchedPiS_PKPKfS_PPfS_
libmagma.so:_Z28slaset_lower_kernel_vbatchedPiS_ffPPfS_
libmagma.so:_Z28slaset_upper_kernel_vbatchedPiS_ffPPfS_
libmagma.so:_Z28zlacpy_lower_kernel_vbatchedPiS_PKPK18magmaDoubleComplexS_PPS0_S_
libmagma.so:_Z28zlacpy_upper_kernel_vbatchedPiS_PKPK18magmaDoubleComplexS_PPS0_S_
libmagma.so:_Z28zlaset_lower_kernel_vbatchedPiS_18magmaDoubleComplexS0_PPS0_S_
libmagma.so:_Z28zlaset_upper_kernel_vbatchedPiS_18magmaDoubleComplexS0_PPS0_S_
libmagma.so:_Z28ztranspose_conj_inplace_eveniP18magmaDoubleComplexi
libmagma.so:_Z29__device_stub__caxpycp_kerneliP17magmaFloatComplexS0_PKS_
libmagma.so:_Z29__device_stub__chemv_kernel_LiPK17magmaFloatComplexiS1_iPS_
libmagma.so:_Z29__device_stub__claswp2_kerneliP17magmaFloatComplexiiPKii
libmagma.so:_Z29__device_stub__claswpx_kerneliP17magmaFloatComplexii15claswp_params_t
libmagma.so:_Z29__device_stub__csymv_kernel_LiPK17magmaFloatComplexiS1_iPS_
libmagma.so:_Z29__device_stub__daxpycp_kerneliPdS_PKd
libmagma.so:_Z29__device_stub__dlaswp2_kerneliPdiiPKii
libmagma.so:_Z29__device_stub__dlaswpx_kerneliPdii15dlaswp_params_t
libmagma.so:_Z29__device_stub__dslaswp_kerneliPdiPfiiPKi
libmagma.so:_Z29__device_stub__dsymv_kernel_LiPKdiS0_iPd
libmagma.so:_Z29__device_stub__hlaswp2_kerneliP6__halfiiPKii
libmagma.so:_Z29__device_stub__magma_cpivcastPi
libmagma.so:_Z29__device_stub__magma_dpivcastPi
libmagma.so:_Z29__device_stub__magma_spivcastPi
libmagma.so:_Z29__device_stub__magma_zpivcastPi
libmagma.so:_Z29__device_stub__saxpycp_kerneliPfS_PKf
libmagma.so:_Z29__device_stub__slaswp2_kerneliPfiiPKii
libmagma.so:_Z29__device_stub__slaswpx_kerneliPfii15slaswp_params_t
libmagma.so:_Z29__device_stub__ssymv_kernel_LiPKfiS0_iPf
libmagma.so:_Z29__device_stub__zaxpycp_kerneliP18magmaDoubleComplexS0_PKS_
libmagma.so:_Z29__device_stub__zclaswp_kerneliP18magmaDoubleComplexiP17magmaFloatComplexiiPKi
libmagma.so:_Z29__device_stub__zhemv_kernel_LiPK18magmaDoubleComplexiS1_iPS_
libmagma.so:_Z29__device_stub__zlaswp2_kerneliP18magmaDoubleComplexiiPKii
libmagma.so:_Z29__device_stub__zlaswpx_kerneliP18magmaDoubleComplexii15zlaswp_params_t
libmagma.so:_Z29__device_stub__zsymv_kernel_LiPK18magmaDoubleComplexiS1_iPS_
libmagma.so:_Z29cgesv_batched_small_sm_kerneliiPP17magmaFloatComplexiPPiS1_iS2_
libmagma.so:_Z29cpotf2_smlpin_anywidth_kerneliP17magmaFloatComplexiiiPi
libmagma.so:_Z29cpotf2_smlpin_fixwidth_kerneliP17magmaFloatComplexiiiPi
libmagma.so:_Z29dgesv_batched_small_sm_kerneliiPPdiPPiS0_iS1_
libmagma.so:_Z29dpotf2_smlpin_anywidth_kerneliPdiiiPi
libmagma.so:_Z29dpotf2_smlpin_fixwidth_kerneliPdiiiPi
libmagma.so:_Z29magma_cgetf2_native_recursiveiiP17magmaFloatComplexiPiS1_S1_iP11magma_queueS3_
libmagma.so:_Z29magma_dgetf2_native_recursiveiiPdiPiS0_S0_iP11magma_queueS2_
libmagma.so:_Z29magma_sgetf2_native_recursiveiiPfiPiS0_S0_iP11magma_queueS2_
libmagma.so:_Z29magma_zgetf2_native_recursiveiiP18magmaDoubleComplexiPiS1_S1_iP11magma_queueS3_
libmagma.so:_Z29magmablas_ctrmm_small_batched12magma_side_t12magma_uplo_t13magma_trans_t12magma_diag_tii17magmaFloatComplexPPS3_iiiS5_iiiiP11magma_queue
libmagma.so:_Z29magmablas_dtrmm_small_batched12magma_side_t12magma_uplo_t13magma_trans_t12magma_diag_tiidPPdiiiS4_iiiiP11magma_queue
libmagma.so:_Z29magmablas_dznrm2_check_kerneliP18magmaDoubleComplexiPdS1_
libmagma.so:_Z29magmablas_scnrm2_check_kerneliP17magmaFloatComplexiPfS1_
libmagma.so:_Z29magmablas_strmm_small_batched12magma_side_t12magma_uplo_t13magma_trans_t12magma_diag_tiifPPfiiiS4_iiiiP11magma_queue
libmagma.so:_Z29magmablas_ztrmm_small_batched12magma_side_t12magma_uplo_t13magma_trans_t12magma_diag_tii18magmaDoubleComplexPPS3_iiiS5_iiiiP11magma_queue
libmagma.so:_Z29sgesv_batched_small_sm_kerneliiPPfiPPiS0_iS1_
libmagma.so:_Z29spotf2_smlpin_anywidth_kerneliPfiiiPi
libmagma.so:_Z29spotf2_smlpin_fixwidth_kerneliPfiiiPi
libmagma.so:_Z29zgesv_batched_small_sm_kerneliiPP18magmaDoubleComplexiPPiS1_iS2_
libmagma.so:_Z29zpotf2_smlpin_anywidth_kerneliP18magmaDoubleComplexiiiPi
libmagma.so:_Z29zpotf2_smlpin_fixwidth_kerneliP18magmaDoubleComplexiiiPi
libmagma.so:_Z30__device_stub__cgeam_kernel_ccii17magmaFloatComplexPKS_iS_S1_iPS_i
libmagma.so:_Z30__device_stub__cgeam_kernel_cnii17magmaFloatComplexPKS_iS_S1_iPS_i
libmagma.so:_Z30__device_stub__cgeam_kernel_ncii17magmaFloatComplexPKS_iS_S1_iPS_i
libmagma.so:_Z30__device_stub__cgeam_kernel_nnii17magmaFloatComplexPKS_iS_S1_iPS_i
libmagma.so:_Z30__device_stub__dgeam_kernel_cciidPKdidS0_iPdi
libmagma.so:_Z30__device_stub__dgeam_kernel_cniidPKdidS0_iPdi
libmagma.so:_Z30__device_stub__dgeam_kernel_nciidPKdidS0_iPdi
libmagma.so:_Z30__device_stub__dgeam_kernel_nniidPKdidS0_iPdi
libmagma.so:_Z30__device_stub__dsaxpycp_kerneliPfPdPKdS0_
libmagma.so:_Z30__device_stub__sgeam_kernel_cciifPKfifS0_iPfi
libmagma.so:_Z30__device_stub__sgeam_kernel_cniifPKfifS0_iPfi
libmagma.so:_Z30__device_stub__sgeam_kernel_nciifPKfifS0_iPfi
libmagma.so:_Z30__device_stub__sgeam_kernel_nniifPKfifS0_iPfi
libmagma.so:_Z30__device_stub__zcaxpycp_kerneliP17magmaFloatComplexP18magmaDoubleComplexPKS1_S2_
libmagma.so:_Z30__device_stub__zgeam_kernel_ccii18magmaDoubleComplexPKS_iS_S1_iPS_i
libmagma.so:_Z30__device_stub__zgeam_kernel_cnii18magmaDoubleComplexPKS_iS_S1_iPS_i
libmagma.so:_Z30__device_stub__zgeam_kernel_ncii18magmaDoubleComplexPKS_iS_S1_iPS_i
libmagma.so:_Z30__device_stub__zgeam_kernel_nnii18magmaDoubleComplexPKS_iS_S1_iPS_i
libmagma.so:_Z30clarft_gemv_loop_inside_kerneliiP17magmaFloatComplexS0_iS0_i
libmagma.so:_Z30clarft_recctrmv_sm32x32_kerneliiP17magmaFloatComplexS0_iS0_i
libmagma.so:_Z30claswp_rowserial_kernel_nativeiP17magmaFloatComplexiiiPi
libmagma.so:_Z30cpotf2_smlpout_anywidth_kerneliiP17magmaFloatComplexiiiPi
libmagma.so:_Z30cpotf2_smlpout_fixwidth_kerneliP17magmaFloatComplexiiiPi
libmagma.so:_Z30cpotf2_smlpout_kernel_vbatchedPiPP17magmaFloatComplexS_iiS_
libmagma.so:_Z30ctranspose_conj_kernel_batchediiPP17magmaFloatComplexiS1_i
libmagma.so:_Z30dlarft_gemv_loop_inside_kerneliiPdS_iS_i
libmagma.so:_Z30dlarft_recdtrmv_sm32x32_kerneliiPdS_iS_i
libmagma.so:_Z30dlaswp_rowserial_kernel_nativeiPdiiiPi
libmagma.so:_Z30dpotf2_smlpout_anywidth_kerneliiPdiiiPi
libmagma.so:_Z30dpotf2_smlpout_fixwidth_kerneliPdiiiPi
libmagma.so:_Z30dpotf2_smlpout_kernel_vbatchedPiPPdS_iiS_
libmagma.so:_Z30magmablas_capply_vector_kerneliP17magmaFloatComplexiS0_i
libmagma.so:_Z30magmablas_ctrmm_small_vbatched12magma_side_t12magma_uplo_t13magma_trans_t12magma_diag_tiiPiS3_17magmaFloatComplexPPS4_iiS3_S6_iiS3_iP11magma_queue
libmagma.so:_Z30magmablas_dapply_vector_kerneliPdiS_i
libmagma.so:_Z30magmablas_dtrmm_small_vbatched12magma_side_t12magma_uplo_t13magma_trans_t12magma_diag_tiiPiS3_dPPdiiS3_S5_iiS3_iP11magma_queue
libmagma.so:_Z30magmablas_sapply_vector_kerneliPfiS_i
libmagma.so:_Z30magmablas_strmm_small_vbatched12magma_side_t12magma_uplo_t13magma_trans_t12magma_diag_tiiPiS3_fPPfiiS3_S5_iiS3_iP11magma_queue
libmagma.so:_Z30magmablas_zapply_vector_kerneliP18magmaDoubleComplexiS0_i
libmagma.so:_Z30magmablas_ztrmm_small_vbatched12magma_side_t12magma_uplo_t13magma_trans_t12magma_diag_tiiPiS3_18magmaDoubleComplexPPS4_iiS3_S6_iiS3_iP11magma_queue
libmagma.so:_Z30slarft_gemv_loop_inside_kerneliiPfS_iS_i
libmagma.so:_Z30slarft_recstrmv_sm32x32_kerneliiPfS_iS_i
libmagma.so:_Z30slaswp_rowserial_kernel_nativeiPfiiiPi
libmagma.so:_Z30spotf2_smlpout_anywidth_kerneliiPfiiiPi
libmagma.so:_Z30spotf2_smlpout_fixwidth_kerneliPfiiiPi
libmagma.so:_Z30spotf2_smlpout_kernel_vbatchedPiPPfS_iiS_
libmagma.so:_Z30zlarft_gemv_loop_inside_kerneliiP18magmaDoubleComplexS0_iS0_i
libmagma.so:_Z30zlarft_recztrmv_sm32x32_kerneliiP18magmaDoubleComplexS0_iS0_i
libmagma.so:_Z30zlaswp_rowserial_kernel_nativeiP18magmaDoubleComplexiiiPi
libmagma.so:_Z30zpotf2_smlpout_anywidth_kerneliiP18magmaDoubleComplexiiiPi
libmagma.so:_Z30zpotf2_smlpout_fixwidth_kerneliP18magmaDoubleComplexiiiPi
libmagma.so:_Z30zpotf2_smlpout_kernel_vbatchedPiPP18magmaDoubleComplexS_iiS_
libmagma.so:_Z30ztranspose_conj_kernel_batchediiPP18magmaDoubleComplexiS1_i
libmagma.so:_Z31__device_stub__clascl_2x2_loweriPK17magmaFloatComplexiPS_i
libmagma.so:_Z31__device_stub__clascl_2x2_upperiPK17magmaFloatComplexiPS_i
libmagma.so:_Z31__device_stub__cswapdblk_kerneliP17magmaFloatComplexiiS0_ii
libmagma.so:_Z31__device_stub__dlascl_2x2_loweriPKdiPdi
libmagma.so:_Z31__device_stub__dlascl_2x2_upperiPKdiPdi
libmagma.so:_Z31__device_stub__dswapdblk_kerneliPdiiS_ii
libmagma.so:_Z31__device_stub__magma_cswap_scaliiiP17magmaFloatComplexS0_i
libmagma.so:_Z31__device_stub__magma_dswap_scaliiiPdS_i
libmagma.so:_Z31__device_stub__magma_sswap_scaliiiPfS_i
libmagma.so:_Z31__device_stub__magma_zswap_scaliiiP18magmaDoubleComplexS0_i
libmagma.so:_Z31__device_stub__slascl_2x2_loweriPKfiPfi
libmagma.so:_Z31__device_stub__slascl_2x2_upperiPKfiPfi
libmagma.so:_Z31__device_stub__sswapdblk_kerneliPfiiS_ii
libmagma.so:_Z31__device_stub__zlascl_2x2_loweriPK18magmaDoubleComplexiPS_i
libmagma.so:_Z31__device_stub__zlascl_2x2_upperiPK18magmaDoubleComplexiPS_i
libmagma.so:_Z31__device_stub__zswapdblk_kerneliP18magmaDoubleComplexiiS0_ii
libmagma.so:_Z31cgeqr2_column_sm_kernel_batchediiPP17magmaFloatComplexiS1_
libmagma.so:_Z31claswp_rowserial_kernel_batchediPP17magmaFloatComplexiiiPPi
libmagma.so:_Z31dgeqr2_column_sm_kernel_batchediiPPdiS0_
libmagma.so:_Z31dlaswp_rowserial_kernel_batchediPPdiiiPPi
libmagma.so:_Z31sgeqr2_column_sm_kernel_batchediiPPfiS0_
libmagma.so:_Z31slaswp_rowserial_kernel_batchediPPfiiiPPi
libmagma.so:_Z31zgeqr2_column_sm_kernel_batchediiPP18magmaDoubleComplexiS1_
libmagma.so:_Z31zlaswp_rowserial_kernel_batchediPP18magmaDoubleComplexiiiPPi
libmagma.so:_Z32__device_stub__cdiinertia_kerneliPK17magmaFloatComplexiPi
libmagma.so:_Z32__device_stub__cgemv_conj_kernelii17magmaFloatComplexPKS_iS1_iS_PS_i
libmagma.so:_Z32__device_stub__clascl_diag_loweriiPK17magmaFloatComplexiPS_i
libmagma.so:_Z32__device_stub__clascl_diag_upperiiPK17magmaFloatComplexiPS_i
libmagma.so:_Z32__device_stub__claset_band_lowerii17magmaFloatComplexS_PS_i
libmagma.so:_Z32__device_stub__claset_band_upperii17magmaFloatComplexS_PS_i
libmagma.so:_Z32__device_stub__claswp_sym_kernel19claswp_sym_params_t
libmagma.so:_Z32__device_stub__csymmetrize_loweriP17magmaFloatComplexi
libmagma.so:_Z32__device_stub__csymmetrize_upperiP17magmaFloatComplexi
libmagma.so:_Z32__device_stub__ctranspose_kerneliiPK17magmaFloatComplexiPS_i
libmagma.so:_Z32__device_stub__ddiinertia_kerneliPKdiPi
libmagma.so:_Z32__device_stub__dgemv_conj_kerneliidPKdiS0_idPdi
libmagma.so:_Z32__device_stub__dlascl_diag_loweriiPKdiPdi
libmagma.so:_Z32__device_stub__dlascl_diag_upperiiPKdiPdi
libmagma.so:_Z32__device_stub__dlaset_band_loweriiddPdi
libmagma.so:_Z32__device_stub__dlaset_band_upperiiddPdi
libmagma.so:_Z32__device_stub__dlaswp_sym_kernel19dlaswp_sym_params_t
libmagma.so:_Z32__device_stub__dsymmetrize_loweriPdi
libmagma.so:_Z32__device_stub__dsymmetrize_upperiPdi
libmagma.so:_Z32__device_stub__dtranspose_kerneliiPKdiPdi
libmagma.so:_Z32__device_stub__kernel_dscal_dgeriiPdi
libmagma.so:_Z32__device_stub__kernel_sscal_sgeriiPfi
libmagma.so:_Z32__device_stub__prefix_sum_kernelPiS_iS_i
libmagma.so:_Z32__device_stub__sdiinertia_kerneliPKfiPi
libmagma.so:_Z32__device_stub__sgemv_conj_kerneliifPKfiS0_ifPfi
libmagma.so:_Z32__device_stub__slascl_diag_loweriiPKfiPfi
libmagma.so:_Z32__device_stub__slascl_diag_upperiiPKfiPfi
libmagma.so:_Z32__device_stub__slaset_band_loweriiffPfi
libmagma.so:_Z32__device_stub__slaset_band_upperiiffPfi
libmagma.so:_Z32__device_stub__slaswp_sym_kernel19slaswp_sym_params_t
libmagma.so:_Z32__device_stub__ssymmetrize_loweriPfi
libmagma.so:_Z32__device_stub__ssymmetrize_upperiPfi
libmagma.so:_Z32__device_stub__stranspose_kerneliiPKfiPfi
libmagma.so:_Z32__device_stub__zdiinertia_kerneliPK18magmaDoubleComplexiPi
libmagma.so:_Z32__device_stub__zgemv_conj_kernelii18magmaDoubleComplexPKS_iS1_iS_PS_i
libmagma.so:_Z32__device_stub__zlascl_diag_loweriiPK18magmaDoubleComplexiPS_i
libmagma.so:_Z32__device_stub__zlascl_diag_upperiiPK18magmaDoubleComplexiPS_i
libmagma.so:_Z32__device_stub__zlaset_band_lowerii18magmaDoubleComplexS_PS_i
libmagma.so:_Z32__device_stub__zlaset_band_upperii18magmaDoubleComplexS_PS_i
libmagma.so:_Z32__device_stub__zlaswp_sym_kernel19zlaswp_sym_params_t
libmagma.so:_Z32__device_stub__zsymmetrize_loweriP18magmaDoubleComplexi
libmagma.so:_Z32__device_stub__zsymmetrize_upperiP18magmaDoubleComplexi
libmagma.so:_Z32__device_stub__ztranspose_kerneliiPK18magmaDoubleComplexiPS_i
libmagma.so:_Z32ctranspose_kernel_batched_strideiiiP17magmaFloatComplexiS0_i
libmagma.so:_Z32ctrtri_diag_lower_kernel_batched12magma_diag_tiPKPK17magmaFloatComplexiPPS0_
libmagma.so:_Z32ctrtri_diag_upper_kernel_batched12magma_diag_tiPKPK17magmaFloatComplexiPPS0_
libmagma.so:_Z32dtranspose_kernel_batched_strideiiiPdiS_i
libmagma.so:_Z32dtrtri_diag_lower_kernel_batched12magma_diag_tiPKPKdiPPd
libmagma.so:_Z32dtrtri_diag_upper_kernel_batched12magma_diag_tiPKPKdiPPd
libmagma.so:_Z32stranspose_kernel_batched_strideiiiPfiS_i
libmagma.so:_Z32strtri_diag_lower_kernel_batched12magma_diag_tiPKPKfiPPf
libmagma.so:_Z32strtri_diag_upper_kernel_batched12magma_diag_tiPKPKfiPPf
libmagma.so:_Z32zdisplace_pointers_var_cc_kernelPP17magmaFloatComplexS1_Piii
libmagma.so:_Z32zdisplace_pointers_var_cc_kernelPP18magmaDoubleComplexS1_Piii
libmagma.so:_Z32zdisplace_pointers_var_cc_kernelPPdS0_Piii
libmagma.so:_Z32zdisplace_pointers_var_cc_kernelPPfS0_Piii
libmagma.so:_Z32zdisplace_pointers_var_cv_kernelPP17magmaFloatComplexS1_PiiS2_
libmagma.so:_Z32zdisplace_pointers_var_cv_kernelPP18magmaDoubleComplexS1_PiiS2_
libmagma.so:_Z32zdisplace_pointers_var_cv_kernelPPdS0_PiiS1_
libmagma.so:_Z32zdisplace_pointers_var_cv_kernelPPfS0_PiiS1_
libmagma.so:_Z32zdisplace_pointers_var_vc_kernelPP17magmaFloatComplexS1_PiS2_i
libmagma.so:_Z32zdisplace_pointers_var_vc_kernelPP18magmaDoubleComplexS1_PiS2_i
libmagma.so:_Z32zdisplace_pointers_var_vc_kernelPPdS0_PiS1_i
libmagma.so:_Z32zdisplace_pointers_var_vc_kernelPPfS0_PiS1_i
libmagma.so:_Z32zdisplace_pointers_var_vv_kernelPP17magmaFloatComplexS1_PiS2_S2_
libmagma.so:_Z32zdisplace_pointers_var_vv_kernelPP18magmaDoubleComplexS1_PiS2_S2_
libmagma.so:_Z32zdisplace_pointers_var_vv_kernelPPdS0_PiS1_S1_
libmagma.so:_Z32zdisplace_pointers_var_vv_kernelPPfS0_PiS1_S1_
libmagma.so:_Z32ztranspose_kernel_batched_strideiiiP18magmaDoubleComplexiS0_i
libmagma.so:_Z32ztrtri_diag_lower_kernel_batched12magma_diag_tiPKPK18magmaDoubleComplexiPPS0_
libmagma.so:_Z32ztrtri_diag_upper_kernel_batched12magma_diag_tiPKPK18magmaDoubleComplexiPPS0_
libmagma.so:_Z33__device_stub__adjust_ipiv_kernelPiii
libmagma.so:_Z33__device_stub__chemv_kernel_L_sumi17magmaFloatComplexiS_PS_iPKS_
libmagma.so:_Z33__device_stub__clacpy_conj_kerneliP17magmaFloatComplexiS0_i
libmagma.so:_Z33__device_stub__clacpy_full_kerneliiPK17magmaFloatComplexiPS_i
libmagma.so:_Z33__device_stub__claset_full_kernelii17magmaFloatComplexS_PS_i
libmagma.so:_Z33__device_stub__csymv_kernel_L_sumi17magmaFloatComplexiS_PS_iPKS_
libmagma.so:_Z33__device_stub__dlacpy_conj_kerneliPdiS_i
libmagma.so:_Z33__device_stub__dlacpy_full_kerneliiPKdiPdi
libmagma.so:_Z33__device_stub__dlaset_full_kerneliiddPdi
libmagma.so:_Z33__device_stub__dslaswp_inv_kerneliPdiPfiiPKi
libmagma.so:_Z33__device_stub__dsymv_kernel_L_sumididPdiPKd
libmagma.so:_Z33__device_stub__kernel_cscal_cgeruiiP17magmaFloatComplexi
libmagma.so:_Z33__device_stub__kernel_zscal_zgeruiiP18magmaDoubleComplexi
libmagma.so:_Z33__device_stub__magma_clarf_kerneliPK17magmaFloatComplexS1_PS_i
libmagma.so:_Z33__device_stub__magma_dlarf_kerneliPKdS0_Pdi
libmagma.so:_Z33__device_stub__magma_slarf_kerneliPKfS0_Pfi
libmagma.so:_Z33__device_stub__magma_zlarf_kerneliPK18magmaDoubleComplexS1_PS_i
libmagma.so:_Z33__device_stub__slacpy_conj_kerneliPfiS_i
libmagma.so:_Z33__device_stub__slacpy_full_kerneliiPKfiPfi
libmagma.so:_Z33__device_stub__slaset_full_kerneliiffPfi
libmagma.so:_Z33__device_stub__ssymv_kernel_L_sumififPfiPKf
libmagma.so:_Z33__device_stub__zclaswp_inv_kerneliP18magmaDoubleComplexiP17magmaFloatComplexiiPKi
libmagma.so:_Z33__device_stub__zhemv_kernel_L_sumi18magmaDoubleComplexiS_PS_iPKS_
libmagma.so:_Z33__device_stub__zlacpy_conj_kerneliP18magmaDoubleComplexiS0_i
libmagma.so:_Z33__device_stub__zlacpy_full_kerneliiPK18magmaDoubleComplexiPS_i
libmagma.so:_Z33__device_stub__zlaset_full_kernelii18magmaDoubleComplexS_PS_i
libmagma.so:_Z33__device_stub__zsymv_kernel_L_sumi18magmaDoubleComplexiS_PS_iPKS_
libmagma.so:_Z33clarft_gemvcolwise_kernel_batchediPP17magmaFloatComplexiS1_S1_ii
libmagma.so:_Z33clarft_gemvrowwise_kernel_batchediiPP17magmaFloatComplexS1_iS1_i
libmagma.so:_Z33claswp_rowparallel_kernel_batchediiiPP17magmaFloatComplexiiiS1_iiiPPi
libmagma.so:_Z33cpotf2_smlpout_kernel_vbatched_v2iPiPP17magmaFloatComplexS_iiS_
libmagma.so:_Z33ctrtri_diag_lower_kernel_vbatched12magma_diag_tPiPKPK17magmaFloatComplexS0_PPS1_
libmagma.so:_Z33ctrtri_diag_upper_kernel_vbatched12magma_diag_tPiPKPK17magmaFloatComplexS0_PPS1_
libmagma.so:_Z33dlarft_gemvcolwise_kernel_batchediPPdiS0_S0_ii
libmagma.so:_Z33dlarft_gemvrowwise_kernel_batchediiPPdS0_iS0_i
libmagma.so:_Z33dlaswp_rowparallel_kernel_batchediiiPPdiiiS0_iiiPPi
libmagma.so:_Z33dpotf2_smlpout_kernel_vbatched_v2iPiPPdS_iiS_
libmagma.so:_Z33dtrtri_diag_lower_kernel_vbatched12magma_diag_tPiPKPKdS0_PPd
libmagma.so:_Z33dtrtri_diag_upper_kernel_vbatched12magma_diag_tPiPKPKdS0_PPd
libmagma.so:_Z33magma_getrf_vbatched_setup_kernelPiS_S_i
libmagma.so:_Z33slarft_gemvcolwise_kernel_batchediPPfiS0_S0_ii
libmagma.so:_Z33slarft_gemvrowwise_kernel_batchediiPPfS0_iS0_i
libmagma.so:_Z33slaswp_rowparallel_kernel_batchediiiPPfiiiS0_iiiPPi
libmagma.so:_Z33spotf2_smlpout_kernel_vbatched_v2iPiPPfS_iiS_
libmagma.so:_Z33strtri_diag_lower_kernel_vbatched12magma_diag_tPiPKPKfS0_PPf
libmagma.so:_Z33strtri_diag_upper_kernel_vbatched12magma_diag_tPiPKPKfS0_PPf
libmagma.so:_Z33triple_cgemm16_part1_lower_kerneliPK17magmaFloatComplexiPS_ii
libmagma.so:_Z33triple_cgemm16_part1_upper_kerneliPK17magmaFloatComplexiPS_ii
libmagma.so:_Z33triple_cgemm16_part2_lower_kerneliPK17magmaFloatComplexiPS_ii
libmagma.so:_Z33triple_cgemm16_part2_upper_kerneliPK17magmaFloatComplexiPS_ii
libmagma.so:_Z33triple_cgemm32_part1_lower_kerneliPK17magmaFloatComplexiPS_ii
libmagma.so:_Z33triple_cgemm32_part1_upper_kerneliPK17magmaFloatComplexiPS_ii
libmagma.so:_Z33triple_cgemm32_part2_lower_kerneliPK17magmaFloatComplexiPS_ii
libmagma.so:_Z33triple_cgemm32_part2_upper_kerneliPK17magmaFloatComplexiPS_ii
libmagma.so:_Z33triple_cgemm64_part1_lower_kerneliPK17magmaFloatComplexiPS_ii
libmagma.so:_Z33triple_cgemm64_part1_upper_kerneliPK17magmaFloatComplexiPS_ii
libmagma.so:_Z33triple_cgemm64_part2_lower_kerneliPK17magmaFloatComplexiPS_ii
libmagma.so:_Z33triple_cgemm64_part2_upper_kerneliPK17magmaFloatComplexiPS_ii
libmagma.so:_Z33triple_dgemm16_part1_lower_kerneliPKdiPdii
libmagma.so:_Z33triple_dgemm16_part1_upper_kerneliPKdiPdii
libmagma.so:_Z33triple_dgemm16_part2_lower_kerneliPKdiPdii
libmagma.so:_Z33triple_dgemm16_part2_upper_kerneliPKdiPdii
libmagma.so:_Z33triple_dgemm32_part1_lower_kerneliPKdiPdii
libmagma.so:_Z33triple_dgemm32_part1_upper_kerneliPKdiPdii
libmagma.so:_Z33triple_dgemm32_part2_lower_kerneliPKdiPdii
libmagma.so:_Z33triple_dgemm32_part2_upper_kerneliPKdiPdii
libmagma.so:_Z33triple_dgemm64_part1_lower_kerneliPKdiPdii
libmagma.so:_Z33triple_dgemm64_part1_upper_kerneliPKdiPdii
libmagma.so:_Z33triple_dgemm64_part2_lower_kerneliPKdiPdii
libmagma.so:_Z33triple_dgemm64_part2_upper_kerneliPKdiPdii
libmagma.so:_Z33triple_sgemm16_part1_lower_kerneliPKfiPfii
libmagma.so:_Z33triple_sgemm16_part1_upper_kerneliPKfiPfii
libmagma.so:_Z33triple_sgemm16_part2_lower_kerneliPKfiPfii
libmagma.so:_Z33triple_sgemm16_part2_upper_kerneliPKfiPfii
libmagma.so:_Z33triple_sgemm32_part1_lower_kerneliPKfiPfii
libmagma.so:_Z33triple_sgemm32_part1_upper_kerneliPKfiPfii
libmagma.so:_Z33triple_sgemm32_part2_lower_kerneliPKfiPfii
libmagma.so:_Z33triple_sgemm32_part2_upper_kerneliPKfiPfii
libmagma.so:_Z33triple_sgemm64_part1_lower_kerneliPKfiPfii
libmagma.so:_Z33triple_sgemm64_part1_upper_kerneliPKfiPfii
libmagma.so:_Z33triple_sgemm64_part2_lower_kerneliPKfiPfii
libmagma.so:_Z33triple_sgemm64_part2_upper_kerneliPKfiPfii
libmagma.so:_Z33triple_zgemm16_part1_lower_kerneliPK18magmaDoubleComplexiPS_ii
libmagma.so:_Z33triple_zgemm16_part1_upper_kerneliPK18magmaDoubleComplexiPS_ii
libmagma.so:_Z33triple_zgemm16_part2_lower_kerneliPK18magmaDoubleComplexiPS_ii
libmagma.so:_Z33triple_zgemm16_part2_upper_kerneliPK18magmaDoubleComplexiPS_ii
libmagma.so:_Z33triple_zgemm32_part1_lower_kerneliPK18magmaDoubleComplexiPS_ii
libmagma.so:_Z33triple_zgemm32_part1_upper_kerneliPK18magmaDoubleComplexiPS_ii
libmagma.so:_Z33triple_zgemm32_part2_lower_kerneliPK18magmaDoubleComplexiPS_ii
libmagma.so:_Z33triple_zgemm32_part2_upper_kerneliPK18magmaDoubleComplexiPS_ii
libmagma.so:_Z33triple_zgemm64_part1_lower_kerneliPK18magmaDoubleComplexiPS_ii
libmagma.so:_Z33triple_zgemm64_part1_upper_kerneliPK18magmaDoubleComplexiPS_ii
libmagma.so:_Z33triple_zgemm64_part2_lower_kerneliPK18magmaDoubleComplexiPS_ii
libmagma.so:_Z33triple_zgemm64_part2_upper_kerneliPK18magmaDoubleComplexiPS_ii
libmagma.so:_Z33zlarft_gemvcolwise_kernel_batchediPP18magmaDoubleComplexiS1_S1_ii
libmagma.so:_Z33zlarft_gemvrowwise_kernel_batchediiPP18magmaDoubleComplexS1_iS1_i
libmagma.so:_Z33zlaswp_rowparallel_kernel_batchediiiPP18magmaDoubleComplexiiiS1_iiiPPi
libmagma.so:_Z33zpotf2_smlpout_kernel_vbatched_v2iPiPP18magmaDoubleComplexS_iiS_
libmagma.so:_Z33ztrtri_diag_lower_kernel_vbatched12magma_diag_tPiPKPK18magmaDoubleComplexS0_PPS1_
libmagma.so:_Z33ztrtri_diag_upper_kernel_vbatched12magma_diag_tPiPKPK18magmaDoubleComplexS0_PPS1_
libmagma.so:_Z34__device_stub__chemv_kernel_L_mgpuiPK17magmaFloatComplexiS1_iPS_iii
libmagma.so:_Z34__device_stub__clacpy_lower_kerneliiPK17magmaFloatComplexiPS_i
libmagma.so:_Z34__device_stub__clacpy_upper_kerneliiPK17magmaFloatComplexiPS_i
libmagma.so:_Z34__device_stub__claset_lower_kernelii17magmaFloatComplexS_PS_i
libmagma.so:_Z34__device_stub__claset_upper_kernelii17magmaFloatComplexS_PS_i
libmagma.so:_Z34__device_stub__cswap_kernel_nativeiP17magmaFloatComplexiiPi
libmagma.so:_Z34__device_stub__dlacpy_lower_kerneliiPKdiPdi
libmagma.so:_Z34__device_stub__dlacpy_upper_kerneliiPKdiPdi
libmagma.so:_Z34__device_stub__dlaset_lower_kerneliiddPdi
libmagma.so:_Z34__device_stub__dlaset_upper_kerneliiddPdi
libmagma.so:_Z34__device_stub__dswap_kernel_nativeiPdiiPi
libmagma.so:_Z34__device_stub__dsymv_kernel_L_mgpuiPKdiS0_iPdiii
libmagma.so:_Z34__device_stub__kernel_cset_pointerPP17magmaFloatComplexS0_iiii
libmagma.so:_Z34__device_stub__kernel_dset_pointerPPdS_iiii
libmagma.so:_Z34__device_stub__kernel_hset_pointerPP6__halfS0_iiii
libmagma.so:_Z34__device_stub__kernel_sset_pointerPPfS_iiii
libmagma.so:_Z34__device_stub__kernel_zset_pointerPP18magmaDoubleComplexS0_iiii
libmagma.so:_Z34__device_stub__magma_clarfx_kerneliP17magmaFloatComplexS0_S0_iPfS0_i
libmagma.so:_Z34__device_stub__magma_dlarfx_kerneliPdS_S_iS_S_i
libmagma.so:_Z34__device_stub__magma_slarfx_kerneliPfS_S_iS_S_i
libmagma.so:_Z34__device_stub__magma_zlarfx_kerneliP18magmaDoubleComplexS0_S0_iPdS0_i
libmagma.so:_Z34__device_stub__magmagpu_cswapblkcm26magmagpu_cswapblk_params_t
libmagma.so:_Z34__device_stub__magmagpu_cswapblkrm26magmagpu_cswapblk_params_t
libmagma.so:_Z34__device_stub__magmagpu_dswapblkcm26magmagpu_dswapblk_params_t
libmagma.so:_Z34__device_stub__magmagpu_dswapblkrm26magmagpu_dswapblk_params_t
libmagma.so:_Z34__device_stub__magmagpu_sswapblkcm26magmagpu_sswapblk_params_t
libmagma.so:_Z34__device_stub__magmagpu_sswapblkrm26magmagpu_sswapblk_params_t
libmagma.so:_Z34__device_stub__magmagpu_zswapblkcm26magmagpu_zswapblk_params_t
libmagma.so:_Z34__device_stub__magmagpu_zswapblkrm26magmagpu_zswapblk_params_t
libmagma.so:_Z34__device_stub__slacpy_lower_kerneliiPKfiPfi
libmagma.so:_Z34__device_stub__slacpy_upper_kerneliiPKfiPfi
libmagma.so:_Z34__device_stub__slaset_lower_kerneliiffPfi
libmagma.so:_Z34__device_stub__slaset_upper_kerneliiffPfi
libmagma.so:_Z34__device_stub__sswap_kernel_nativeiPfiiPi
libmagma.so:_Z34__device_stub__ssymv_kernel_L_mgpuiPKfiS0_iPfiii
libmagma.so:_Z34__device_stub__zhemv_kernel_L_mgpuiPK18magmaDoubleComplexiS1_iPS_iii
libmagma.so:_Z34__device_stub__zlacpy_lower_kerneliiPK18magmaDoubleComplexiPS_i
libmagma.so:_Z34__device_stub__zlacpy_upper_kerneliiPK18magmaDoubleComplexiPS_i
libmagma.so:_Z34__device_stub__zlaset_lower_kernelii18magmaDoubleComplexS_PS_i
libmagma.so:_Z34__device_stub__zlaset_upper_kernelii18magmaDoubleComplexS_PS_i
libmagma.so:_Z34__device_stub__zswap_kernel_nativeiP18magmaDoubleComplexiiPi
libmagma.so:_Z34claswp_columnserial_kernel_batchediPP17magmaFloatComplexiiiPPi
libmagma.so:_Z34dlaswp_columnserial_kernel_batchediPPdiiiPPi
libmagma.so:_Z34magmablas_dscal_inverseblock_lowerPKdiPdi
libmagma.so:_Z34magmablas_dscal_inverseblock_upperPKdiPdi
libmagma.so:_Z34magmablas_sscal_inverseblock_lowerPKfiPfi
libmagma.so:_Z34magmablas_sscal_inverseblock_upperPKfiPfi
libmagma.so:_Z34slaswp_columnserial_kernel_batchediPPfiiiPPi
libmagma.so:_Z34zlaswp_columnserial_kernel_batchediPP18magmaDoubleComplexiiiPPi
libmagma.so:_Z35__device_stub__convert_dp2hp_kerneliiPKdiP6__halfi
libmagma.so:_Z35__device_stub__convert_hp2dp_kerneliiPK6__halfiPdi
libmagma.so:_Z35__device_stub__convert_hp2sp_kerneliiPK6__halfiPfi
libmagma.so:_Z35__device_stub__convert_sp2hp_kerneliiPKfiP6__halfi
libmagma.so:_Z35__device_stub__cswap_kernel_batchediPP17magmaFloatComplexiiiiPPi
libmagma.so:_Z35__device_stub__dswap_kernel_batchediPPdiiiiPPi
libmagma.so:_Z35__device_stub__icamax_kernel_nativeiP17magmaFloatComplexiPiS1_ii
libmagma.so:_Z35__device_stub__idamax_kernel_nativeiPdiPiS0_ii
libmagma.so:_Z35__device_stub__isamax_kernel_nativeiPfiPiS0_ii
libmagma.so:_Z35__device_stub__izamax_kernel_nativeiP18magmaDoubleComplexiPiS1_ii
libmagma.so:_Z35__device_stub__magma_clarf_smkerneliiP17magmaFloatComplexS0_S0_i
libmagma.so:_Z35__device_stub__magma_dlarf_smkerneliiPdS_S_i
libmagma.so:_Z35__device_stub__magma_slarf_smkerneliiPfS_S_i
libmagma.so:_Z35__device_stub__magma_zlarf_smkerneliiP18magmaDoubleComplexS0_S0_i
libmagma.so:_Z35__device_stub__prefix_update_kernelPiiS_
libmagma.so:_Z35__device_stub__setup_pivinfo_kernelPiS_ii
libmagma.so:_Z35__device_stub__sswap_kernel_batchediPPfiiiiPPi
libmagma.so:_Z35__device_stub__zswap_kernel_batchediPP18magmaDoubleComplexiiiiPPi
libmagma.so:_Z35clarft_ctrmv_sm32x32_kernel_batchediiPP17magmaFloatComplexS1_iS1_i
libmagma.so:_Z35dlarft_dtrmv_sm32x32_kernel_batchediiPPdS0_iS0_i
libmagma.so:_Z35dscal_dger_1d_generic_kernel_nativeiiPdiPiii
libmagma.so:_Z35magma_cswap_scal_inverseblock_loweriiiP17magmaFloatComplexiS0_i
libmagma.so:_Z35magma_dnrm2_row_check_adjust_kernelidPdS_S_iS_
libmagma.so:_Z35magma_dswap_scal_inverseblock_loweriiiPdiS_i
libmagma.so:_Z35magma_snrm2_row_check_adjust_kernelifPfS_S_iS_
libmagma.so:_Z35magma_sswap_scal_inverseblock_loweriiiPfiS_i
libmagma.so:_Z35magma_zswap_scal_inverseblock_loweriiiP18magmaDoubleComplexiS0_i
libmagma.so:_Z35magmablas_csscal_inverseblock_lowerPK17magmaFloatComplexiPS_i
libmagma.so:_Z35magmablas_csscal_inverseblock_upperPK17magmaFloatComplexiPS_i
libmagma.so:_Z35magmablas_zdscal_inverseblock_lowerPK18magmaDoubleComplexiPS_i
libmagma.so:_Z35magmablas_zdscal_inverseblock_upperPK18magmaDoubleComplexiPS_i
libmagma.so:_Z35slarft_strmv_sm32x32_kernel_batchediiPPfS0_iS0_i
libmagma.so:_Z35sscal_sger_1d_generic_kernel_nativeiiPfiPiii
libmagma.so:_Z35zlarft_ztrmv_sm32x32_kernel_batchediiPP18magmaDoubleComplexS1_iS1_i
libmagma.so:_Z36__device_stub__axpy_vbatched_checkerPiS_S_i
libmagma.so:_Z36__device_stub__cgeadd_batched_kernelii17magmaFloatComplexPKPKS_iPPS_i
libmagma.so:_Z36__device_stub__cgeqr2_kernel_batchediiPP17magmaFloatComplexiS1_
libmagma.so:_Z36__device_stub__cswap_kernel_vbatchediPiS_PP17magmaFloatComplexiiS_PS_i
libmagma.so:_Z36__device_stub__dgeadd_batched_kerneliidPKPKdiPPdi
libmagma.so:_Z36__device_stub__dgeqr2_kernel_batchediiPPdiS0_
libmagma.so:_Z36__device_stub__dswap_kernel_vbatchediPiS_PPdiiS_PS_i
libmagma.so:_Z36__device_stub__gemm_vbatched_checker13magma_trans_tS_PiS0_S0_S0_S0_S0_i
libmagma.so:_Z36__device_stub__gemv_vbatched_checker13magma_trans_tPiS0_S0_S0_S0_i
libmagma.so:_Z36__device_stub__hemm_vbatched_checker12magma_side_tPiS0_S0_S0_S0_i
libmagma.so:_Z36__device_stub__hemv_vbatched_checker12magma_uplo_tPiS0_S0_S0_i
libmagma.so:_Z36__device_stub__herk_vbatched_checker13magma_trans_tPiS0_S0_S0_i
libmagma.so:_Z36__device_stub__hlag2s_kernel_batchediiPKPK6__halfiPPfi
libmagma.so:_Z36__device_stub__icamax_kernel_batchediPP17magmaFloatComplexiiiiPPiiS2_ii
libmagma.so:_Z36__device_stub__idamax_kernel_batchediPPdiiiiPPiiS1_ii
libmagma.so:_Z36__device_stub__isamax_kernel_batchediPPfiiiiPPiiS1_ii
libmagma.so:_Z36__device_stub__izamax_kernel_batchediPP18magmaDoubleComplexiiiiPPiiS2_ii
libmagma.so:_Z36__device_stub__magma_ivec_add_kerneliiPiiS_S_
libmagma.so:_Z36__device_stub__magma_ivec_max_kerneliPiS_i
libmagma.so:_Z36__device_stub__magma_ivec_mul_kerneliPiS_S_
libmagma.so:_Z36__device_stub__sgeadd_batched_kerneliifPKPKfiPPfi
libmagma.so:_Z36__device_stub__sgeqr2_kernel_batchediiPPfiS0_
libmagma.so:_Z36__device_stub__slag2h_kernel_batchediiPKPKfiPP6__halfifPiP11magma_queue
libmagma.so:_Z36__device_stub__sswap_kernel_vbatchediPiS_PPfiiS_PS_i
libmagma.so:_Z36__device_stub__trmm_vbatched_checker12magma_side_tPiS0_S0_S0_i
libmagma.so:_Z36__device_stub__trsm_vbatched_checker12magma_side_tPiS0_S0_S0_i
libmagma.so:_Z36__device_stub__zgeadd_batched_kernelii18magmaDoubleComplexPKPKS_iPPS_i
libmagma.so:_Z36__device_stub__zgeqr2_kernel_batchediiPP18magmaDoubleComplexiS1_
libmagma.so:_Z36__device_stub__zswap_kernel_vbatchediPiS_PP18magmaDoubleComplexiiS_PS_i
libmagma.so:_Z36cherk_small_reduce_scale_beta_kernel12magma_uplo_ti17magmaFloatComplexPS0_i
libmagma.so:_Z36cscal_cgeru_1d_generic_kernel_nativeiiP17magmaFloatComplexiPiii
libmagma.so:_Z36dscal_dger_1d_generic_kernel_batchediiPPdiiiPiii
libmagma.so:_Z36dsyrk_small_reduce_scale_beta_kernel12magma_uplo_tidPdi
libmagma.so:_Z36magma_dznrm2_row_check_adjust_kernelidPdS_P18magmaDoubleComplexiS_
libmagma.so:_Z36magma_scnrm2_row_check_adjust_kernelifPfS_P17magmaFloatComplexiS_
libmagma.so:_Z36sscal_sger_1d_generic_kernel_batchediiPPfiiiPiii
libmagma.so:_Z36ssyrk_small_reduce_scale_beta_kernel12magma_uplo_tifPfi
libmagma.so:_Z36zcomputecolumn_kernel_shared_batchediiiPP17magmaFloatComplexiiiPPiS2_i
libmagma.so:_Z36zcomputecolumn_kernel_shared_batchediiiPP18magmaDoubleComplexiiiPPiS2_i
libmagma.so:_Z36zcomputecolumn_kernel_shared_batchediiiPPdiiiPPiS1_i
libmagma.so:_Z36zcomputecolumn_kernel_shared_batchediiiPPfiiiPPiS1_i
libmagma.so:_Z36zherk_small_reduce_scale_beta_kernel12magma_uplo_ti18magmaDoubleComplexPS0_i
libmagma.so:_Z36zscal_zgeru_1d_generic_kernel_nativeiiP18magmaDoubleComplexiPiii
libmagma.so:_Z37__device_stub__ctranspose_conj_kerneliiPK17magmaFloatComplexiPS_i
libmagma.so:_Z37__device_stub__ctranspose_inplace_oddiP17magmaFloatComplexi
libmagma.so:_Z37__device_stub__dtranspose_inplace_oddiPdi
libmagma.so:_Z37__device_stub__getrf_vbatched_checkerPiS_S_S_i
libmagma.so:_Z37__device_stub__her2k_vbatched_checker13magma_trans_tPiS0_S0_S0_S0_i
libmagma.so:_Z37__device_stub__icamax_kernel_vbatchediPiS_PP17magmaFloatComplexiiS_PS_iS_ii
libmagma.so:_Z37__device_stub__idamax_kernel_vbatchediPiS_PPdiiS_PS_iS_ii
libmagma.so:_Z37__device_stub__isamax_kernel_vbatchediPiS_PPfiiS_PS_iS_ii
libmagma.so:_Z37__device_stub__izamax_kernel_vbatchediPiS_PP18magmaDoubleComplexiiS_PS_iS_ii
libmagma.so:_Z37__device_stub__magma_ivec_addc_kerneliPiiS_
libmagma.so:_Z37__device_stub__magma_ivec_maxc_kerneliPiiS_
libmagma.so:_Z37__device_stub__magma_ivec_minc_kerneliPiiS_
libmagma.so:_Z37__device_stub__magma_ivec_mulc_kerneliPiiS_
libmagma.so:_Z37__device_stub__magmablas_dnrm2_kerneliPdiS_
libmagma.so:_Z37__device_stub__magmablas_snrm2_kerneliPfiS_
libmagma.so:_Z37__device_stub__potrf_vbatched_checker12magma_uplo_tPiS0_i
libmagma.so:_Z37__device_stub__stranspose_inplace_oddiPfi
libmagma.so:_Z37__device_stub__ztranspose_conj_kerneliiPK18magmaDoubleComplexiPS_i
libmagma.so:_Z37__device_stub__ztranspose_inplace_oddiP18magmaDoubleComplexi
libmagma.so:_Z37claswp_left_rowserial_kernel_vbatchediPiS_PP17magmaFloatComplexiiS_PS_iii
libmagma.so:_Z37cpotf2_smlpin_anywidth_kernel_batchediPP17magmaFloatComplexiiiiiPii
libmagma.so:_Z37cpotf2_smlpin_fixwidth_kernel_batchediPP17magmaFloatComplexiiiiiPii
libmagma.so:_Z37cscal_cgeru_1d_generic_kernel_batchediiPP17magmaFloatComplexiiiPiii
libmagma.so:_Z37dlaswp_left_rowserial_kernel_vbatchediPiS_PPdiiS_PS_iii
libmagma.so:_Z37dpotf2_smlpin_anywidth_kernel_batchediPPdiiiiiPii
libmagma.so:_Z37dpotf2_smlpin_fixwidth_kernel_batchediPPdiiiiiPii
libmagma.so:_Z37dscal_dger_1d_generic_kernel_vbatchediiPiS_PPdiiS_S_ii
libmagma.so:_Z37slaswp_left_rowserial_kernel_vbatchediPiS_PPfiiS_PS_iii
libmagma.so:_Z37spotf2_smlpin_anywidth_kernel_batchediPPfiiiiiPii
libmagma.so:_Z37spotf2_smlpin_fixwidth_kernel_batchediPPfiiiiiPii
libmagma.so:_Z37sscal_sger_1d_generic_kernel_vbatchediiPiS_PPfiiS_S_ii
libmagma.so:_Z37zlaswp_left_rowserial_kernel_vbatchediPiS_PP18magmaDoubleComplexiiS_PS_iii
libmagma.so:_Z37zpotf2_smlpin_anywidth_kernel_batchediPP18magmaDoubleComplexiiiiiPii
libmagma.so:_Z37zpotf2_smlpin_fixwidth_kernel_batchediPP18magmaDoubleComplexiiiiiPii
libmagma.so:_Z37zscal_zgeru_1d_generic_kernel_batchediiPP18magmaDoubleComplexiiiPiii
libmagma.so:_Z38__device_stub__cheinertia_lower_kerneliPK17magmaFloatComplexiPiS2_
libmagma.so:_Z38__device_stub__cheinertia_upper_kerneliPK17magmaFloatComplexiPiS2_
libmagma.so:_Z38__device_stub__chemv_kernel_L_mgpu_sumi17magmaFloatComplexiPS_iPKS_iii
libmagma.so:_Z38__device_stub__clanhe_inf_kernel_loweriPK17magmaFloatComplexiPfii
libmagma.so:_Z38__device_stub__clanhe_inf_kernel_upperiPK17magmaFloatComplexiPfii
libmagma.so:_Z38__device_stub__clanhe_max_kernel_loweriPK17magmaFloatComplexiPf
libmagma.so:_Z38__device_stub__clanhe_max_kernel_upperiPK17magmaFloatComplexiPf
libmagma.so:_Z38__device_stub__csymmetrize_tiles_loweriP17magmaFloatComplexiii
libmagma.so:_Z38__device_stub__csymmetrize_tiles_upperiP17magmaFloatComplexiii
libmagma.so:_Z38__device_stub__ctranspose_inplace_eveniP17magmaFloatComplexi
libmagma.so:_Z38__device_stub__dlansy_inf_kernel_loweriPKdiPdii
libmagma.so:_Z38__device_stub__dlansy_inf_kernel_upperiPKdiPdii
libmagma.so:_Z38__device_stub__dlansy_max_kernel_loweriPKdiPd
libmagma.so:_Z38__device_stub__dlansy_max_kernel_upperiPKdiPd
libmagma.so:_Z38__device_stub__dsiinertia_lower_kerneliPKdiPiS1_
libmagma.so:_Z38__device_stub__dsiinertia_upper_kerneliPKdiPiS1_
libmagma.so:_Z38__device_stub__dsymmetrize_tiles_loweriPdiii
libmagma.so:_Z38__device_stub__dsymmetrize_tiles_upperiPdiii
libmagma.so:_Z38__device_stub__dsymv_kernel_L_mgpu_sumidiPdiPKdiii
libmagma.so:_Z38__device_stub__dtranspose_inplace_eveniPdi
libmagma.so:_Z38__device_stub__kernel_cset_pointer_varPP17magmaFloatComplexS0_PiiiS2_
libmagma.so:_Z38__device_stub__kernel_dset_pointer_varPPdS_PiiiS1_
libmagma.so:_Z38__device_stub__kernel_sset_pointer_varPPfS_PiiiS1_
libmagma.so:_Z38__device_stub__kernel_zset_pointer_varPP18magmaDoubleComplexS0_PiiiS2_
libmagma.so:_Z38__device_stub__magma_clarfg_gpu_kerneliP17magmaFloatComplexS0_S0_PfS0_
libmagma.so:_Z38__device_stub__magma_dlarfg_gpu_kerneliPdS_S_S_S_
libmagma.so:_Z38__device_stub__magma_slarfg_gpu_kerneliPfS_S_S_S_
libmagma.so:_Z38__device_stub__magma_zlarfg_gpu_kerneliP18magmaDoubleComplexS0_S0_PdS0_
libmagma.so:_Z38__device_stub__magmablas_dscal_inversePdS_i
libmagma.so:_Z38__device_stub__magmablas_dznrm2_kerneliP18magmaDoubleComplexiPd
libmagma.so:_Z38__device_stub__magmablas_scnrm2_kerneliP17magmaFloatComplexiPf
libmagma.so:_Z38__device_stub__magmablas_sscal_inversePfS_i
libmagma.so:_Z38__device_stub__setup_pivinfo_sm_kernelPiS_ii
libmagma.so:_Z38__device_stub__slansy_inf_kernel_loweriPKfiPfii
libmagma.so:_Z38__device_stub__slansy_inf_kernel_upperiPKfiPfii
libmagma.so:_Z38__device_stub__slansy_max_kernel_loweriPKfiPf
libmagma.so:_Z38__device_stub__slansy_max_kernel_upperiPKfiPf
libmagma.so:_Z38__device_stub__ssiinertia_lower_kerneliPKfiPiS1_
libmagma.so:_Z38__device_stub__ssiinertia_upper_kerneliPKfiPiS1_
libmagma.so:_Z38__device_stub__ssymmetrize_tiles_loweriPfiii
libmagma.so:_Z38__device_stub__ssymmetrize_tiles_upperiPfiii
libmagma.so:_Z38__device_stub__ssymv_kernel_L_mgpu_sumifiPfiPKfiii
libmagma.so:_Z38__device_stub__stranspose_inplace_eveniPfi
libmagma.so:_Z38__device_stub__zheinertia_lower_kerneliPK18magmaDoubleComplexiPiS2_
libmagma.so:_Z38__device_stub__zheinertia_upper_kerneliPK18magmaDoubleComplexiPiS2_
libmagma.so:_Z38__device_stub__zhemv_kernel_L_mgpu_sumi18magmaDoubleComplexiPS_iPKS_iii
libmagma.so:_Z38__device_stub__zlanhe_inf_kernel_loweriPK18magmaDoubleComplexiPdii
libmagma.so:_Z38__device_stub__zlanhe_inf_kernel_upperiPK18magmaDoubleComplexiPdii
libmagma.so:_Z38__device_stub__zlanhe_max_kernel_loweriPK18magmaDoubleComplexiPd
libmagma.so:_Z38__device_stub__zlanhe_max_kernel_upperiPK18magmaDoubleComplexiPd
libmagma.so:_Z38__device_stub__zsymmetrize_tiles_loweriP18magmaDoubleComplexiii
libmagma.so:_Z38__device_stub__zsymmetrize_tiles_upperiP18magmaDoubleComplexiii
libmagma.so:_Z38__device_stub__ztranspose_inplace_eveniP18magmaDoubleComplexi
libmagma.so:_Z38clarft_gemv_loop_inside_kernel_batchediiPP17magmaFloatComplexS1_iS1_i
libmagma.so:_Z38clarft_recctrmv_sm32x32_kernel_batchediiPP17magmaFloatComplexS1_iS1_i
libmagma.so:_Z38claswp_right_rowserial_kernel_vbatchediPiS_PP17magmaFloatComplexiiS_PS_iii
libmagma.so:_Z38cpotf2_smlpout_anywidth_kernel_batchediiPP17magmaFloatComplexiiiiiPii
libmagma.so:_Z38cpotf2_smlpout_fixwidth_kernel_batchediPP17magmaFloatComplexiiiiiPii
libmagma.so:_Z38cscal_cgeru_1d_generic_kernel_vbatchediiPiS_PP17magmaFloatComplexiiS_S_ii
libmagma.so:_Z38dlarft_gemv_loop_inside_kernel_batchediiPPdS0_iS0_i
libmagma.so:_Z38dlarft_recdtrmv_sm32x32_kernel_batchediiPPdS0_iS0_i
libmagma.so:_Z38dlaswp_right_rowserial_kernel_vbatchediPiS_PPdiiS_PS_iii
libmagma.so:_Z38dpotf2_smlpout_anywidth_kernel_batchediiPPdiiiiiPii
libmagma.so:_Z38dpotf2_smlpout_fixwidth_kernel_batchediPPdiiiiiPii
libmagma.so:_Z38magmablas_capply_vector_kernel_batchediP17magmaFloatComplexiPS0_i
libmagma.so:_Z38magmablas_dapply_vector_kernel_batchediPdiPS_i
libmagma.so:_Z38magmablas_sapply_vector_kernel_batchediPfiPS_i
libmagma.so:_Z38magmablas_zapply_vector_kernel_batchediP18magmaDoubleComplexiPS0_i
libmagma.so:_Z38slarft_gemv_loop_inside_kernel_batchediiPPfS0_iS0_i
libmagma.so:_Z38slarft_recstrmv_sm32x32_kernel_batchediiPPfS0_iS0_i
libmagma.so:_Z38slaswp_right_rowserial_kernel_vbatchediPiS_PPfiiS_PS_iii
libmagma.so:_Z38spotf2_smlpout_anywidth_kernel_batchediiPPfiiiiiPii
libmagma.so:_Z38spotf2_smlpout_fixwidth_kernel_batchediPPfiiiiiPii
libmagma.so:_Z38zlarft_gemv_loop_inside_kernel_batchediiPP18magmaDoubleComplexS1_iS1_i
libmagma.so:_Z38zlarft_recztrmv_sm32x32_kernel_batchediiPP18magmaDoubleComplexS1_iS1_i
libmagma.so:_Z38zlaswp_right_rowserial_kernel_vbatchediPiS_PP18magmaDoubleComplexiiS_PS_iii
libmagma.so:_Z38zpotf2_smlpout_anywidth_kernel_batchediiPP18magmaDoubleComplexiiiiiPii
libmagma.so:_Z38zpotf2_smlpout_fixwidth_kernel_batchediPP18magmaDoubleComplexiiiiiPii
libmagma.so:_Z38zscal_zgeru_1d_generic_kernel_vbatchediiPiS_PP18magmaDoubleComplexiiS_S_ii
libmagma.so:_Z39__device_stub__cgeqr2_sm_kernel_batchediiPP17magmaFloatComplexiS1_
libmagma.so:_Z39__device_stub__ctrtri_diag_lower_kernel12magma_diag_tiPK17magmaFloatComplexiPS0_
libmagma.so:_Z39__device_stub__ctrtri_diag_upper_kernel12magma_diag_tiPK17magmaFloatComplexiPS0_
libmagma.so:_Z39__device_stub__dgeqr2_sm_kernel_batchediiPPdiS0_
libmagma.so:_Z39__device_stub__dtrtri_diag_lower_kernel12magma_diag_tiPKdiPd
libmagma.so:_Z39__device_stub__dtrtri_diag_upper_kernel12magma_diag_tiPKdiPd
libmagma.so:_Z39__device_stub__magma_clarfgx_gpu_kerneliP17magmaFloatComplexS0_S0_PfS0_i
libmagma.so:_Z39__device_stub__magma_dlarfgx_gpu_kerneliPdS_S_S_S_i
libmagma.so:_Z39__device_stub__magma_imax_size_kernel_1Pii
libmagma.so:_Z39__device_stub__magma_imax_size_kernel_2PiS_i
libmagma.so:_Z39__device_stub__magma_imax_size_kernel_3PiS_S_i
libmagma.so:_Z39__device_stub__magma_isum_reduce_kerneliPiS_i
libmagma.so:_Z39__device_stub__magma_ivec_min_vv_kerneliPiS_S_
libmagma.so:_Z39__device_stub__magma_slarfgx_gpu_kerneliPfS_S_S_S_i
libmagma.so:_Z39__device_stub__magma_zlarfgx_gpu_kerneliP18magmaDoubleComplexS0_S0_PdS0_i
libmagma.so:_Z39__device_stub__magmablas_csscal_inverseP17magmaFloatComplexS0_i
libmagma.so:_Z39__device_stub__magmablas_dnrm2_smkerneliiPdiS_
libmagma.so:_Z39__device_stub__magmablas_snrm2_smkerneliiPfiS_
libmagma.so:_Z39__device_stub__magmablas_zdscal_inverseP18magmaDoubleComplexS0_i
libmagma.so:_Z39__device_stub__sgeqr2_sm_kernel_batchediiPPfiS0_
libmagma.so:_Z39__device_stub__strtri_diag_lower_kernel12magma_diag_tiPKfiPf
libmagma.so:_Z39__device_stub__strtri_diag_upper_kernel12magma_diag_tiPKfiPf
libmagma.so:_Z39__device_stub__zgeqr2_sm_kernel_batchediiPP18magmaDoubleComplexiS1_
libmagma.so:_Z39__device_stub__ztrtri_diag_lower_kernel12magma_diag_tiPK18magmaDoubleComplexiPS0_
libmagma.so:_Z39__device_stub__ztrtri_diag_upper_kernel12magma_diag_tiPK18magmaDoubleComplexiPS0_
libmagma.so:_Z39triple_cgemm_above64_part1_lower_kerneliPK17magmaFloatComplexiPS_ii
libmagma.so:_Z39triple_cgemm_above64_part1_upper_kerneliPK17magmaFloatComplexiPS_ii
libmagma.so:_Z39triple_cgemm_above64_part2_lower_kerneliPK17magmaFloatComplexiPS_ii
libmagma.so:_Z39triple_cgemm_above64_part2_upper_kerneliPK17magmaFloatComplexiPS_ii
libmagma.so:_Z39triple_cgemm_above64_part3_lower_kerneliPK17magmaFloatComplexiPS_ii
libmagma.so:_Z39triple_cgemm_above64_part3_upper_kerneliPK17magmaFloatComplexiPS_ii
libmagma.so:_Z39triple_dgemm_above64_part1_lower_kerneliPKdiPdii
libmagma.so:_Z39triple_dgemm_above64_part1_upper_kerneliPKdiPdii
libmagma.so:_Z39triple_dgemm_above64_part2_lower_kerneliPKdiPdii
libmagma.so:_Z39triple_dgemm_above64_part2_upper_kerneliPKdiPdii
libmagma.so:_Z39triple_dgemm_above64_part3_lower_kerneliPKdiPdii
libmagma.so:_Z39triple_dgemm_above64_part3_upper_kerneliPKdiPdii
libmagma.so:_Z39triple_sgemm_above64_part1_lower_kerneliPKfiPfii
libmagma.so:_Z39triple_sgemm_above64_part1_upper_kerneliPKfiPfii
libmagma.so:_Z39triple_sgemm_above64_part2_lower_kerneliPKfiPfii
libmagma.so:_Z39triple_sgemm_above64_part2_upper_kerneliPKfiPfii
libmagma.so:_Z39triple_sgemm_above64_part3_lower_kerneliPKfiPfii
libmagma.so:_Z39triple_sgemm_above64_part3_upper_kerneliPKfiPfii
libmagma.so:_Z39triple_zgemm_above64_part1_lower_kerneliPK18magmaDoubleComplexiPS_ii
libmagma.so:_Z39triple_zgemm_above64_part1_upper_kerneliPK18magmaDoubleComplexiPS_ii
libmagma.so:_Z39triple_zgemm_above64_part2_lower_kerneliPK18magmaDoubleComplexiPS_ii
libmagma.so:_Z39triple_zgemm_above64_part2_upper_kerneliPK18magmaDoubleComplexiPS_ii
libmagma.so:_Z39triple_zgemm_above64_part3_lower_kerneliPK18magmaDoubleComplexiPS_ii
libmagma.so:_Z39triple_zgemm_above64_part3_upper_kerneliPK18magmaDoubleComplexiPS_ii
libmagma.so:_Z40__device_stub__cgetf2_native_init_kerneliiPiS_
libmagma.so:_Z40__device_stub__cgetf2trsm_kernel_batchediiPP17magmaFloatComplexii
libmagma.so:_Z40__device_stub__clacpy_sym_in_full_kerneliiPK17magmaFloatComplexiPS_i
libmagma.so:_Z40__device_stub__clarft_gemvcolwise_kerneliP17magmaFloatComplexiS0_S0_ii
libmagma.so:_Z40__device_stub__clarft_gemvrowwise_kerneliiP17magmaFloatComplexS0_iS0_i
libmagma.so:_Z40__device_stub__claswp_rowparallel_kerneliiiP17magmaFloatComplexiS0_iPi
libmagma.so:_Z40__device_stub__cswap_kernel_vbatched_orgiPiS_PP17magmaFloatComplexiiS_iPS_
libmagma.so:_Z40__device_stub__ctranspose_kernel_batchediiPP17magmaFloatComplexiS1_i
libmagma.so:_Z40__device_stub__dgetf2_native_init_kerneliiPiS_
libmagma.so:_Z40__device_stub__dgetf2trsm_kernel_batchediiPPdii
libmagma.so:_Z40__device_stub__dlacpy_sym_in_full_kerneliiPKdiPdi
libmagma.so:_Z40__device_stub__dlarft_gemvcolwise_kerneliPdiS_S_ii
libmagma.so:_Z40__device_stub__dlarft_gemvrowwise_kerneliiPdS_iS_i
libmagma.so:_Z40__device_stub__dlaswp_rowparallel_kerneliiiPdiS_iPi
libmagma.so:_Z40__device_stub__dswap_kernel_vbatched_orgiPiS_PPdiiS_iPS_
libmagma.so:_Z40__device_stub__dtranspose_kernel_batchediiPPdiS0_i
libmagma.so:_Z40__device_stub__idisplace_pointers_kernelPPiS0_iii
libmagma.so:_Z40__device_stub__magma_ivec_ceildiv_kerneliPiiS_
libmagma.so:_Z40__device_stub__magma_ivec_roundup_kerneliPiiS_
libmagma.so:_Z40__device_stub__magmablas_dznrm2_smkerneliiP18magmaDoubleComplexiPd
libmagma.so:_Z40__device_stub__magmablas_scnrm2_smkerneliiP17magmaFloatComplexiPf
libmagma.so:_Z40__device_stub__sgetf2_native_init_kerneliiPiS_
libmagma.so:_Z40__device_stub__sgetf2trsm_kernel_batchediiPPfii
libmagma.so:_Z40__device_stub__slacpy_sym_in_full_kerneliiPKfiPfi
libmagma.so:_Z40__device_stub__slarft_gemvcolwise_kerneliPfiS_S_ii
libmagma.so:_Z40__device_stub__slarft_gemvrowwise_kerneliiPfS_iS_i
libmagma.so:_Z40__device_stub__slaswp_rowparallel_kerneliiiPfiS_iPi
libmagma.so:_Z40__device_stub__sswap_kernel_vbatched_orgiPiS_PPfiiS_iPS_
libmagma.so:_Z40__device_stub__stranspose_kernel_batchediiPPfiS0_i
libmagma.so:_Z40__device_stub__zdisplace_pointers_kernelPP17magmaFloatComplexS1_iii
libmagma.so:_Z40__device_stub__zdisplace_pointers_kernelPP18magmaDoubleComplexS1_iii
libmagma.so:_Z40__device_stub__zdisplace_pointers_kernelPPdS0_iii
libmagma.so:_Z40__device_stub__zdisplace_pointers_kernelPPfS0_iii
libmagma.so:_Z40__device_stub__zgetf2_native_init_kerneliiPiS_
libmagma.so:_Z40__device_stub__zgetf2trsm_kernel_batchediiPP18magmaDoubleComplexii
libmagma.so:_Z40__device_stub__zlacpy_sym_in_full_kerneliiPK18magmaDoubleComplexiPS_i
libmagma.so:_Z40__device_stub__zlarft_gemvcolwise_kerneliP18magmaDoubleComplexiS0_S0_ii
libmagma.so:_Z40__device_stub__zlarft_gemvrowwise_kerneliiP18magmaDoubleComplexS0_iS0_i
libmagma.so:_Z40__device_stub__zlaswp_rowparallel_kerneliiiP18magmaDoubleComplexiS0_iPi
libmagma.so:_Z40__device_stub__zswap_kernel_vbatched_orgiPiS_PP18magmaDoubleComplexiiS_iPS_
libmagma.so:_Z40__device_stub__ztranspose_kernel_batchediiPP18magmaDoubleComplexiS1_i
libmagma.so:_Z40magmablas_capply_transpose_vector_kerneliP17magmaFloatComplexiS0_i
libmagma.so:_Z40magmablas_dapply_transpose_vector_kerneliPdiS_i
libmagma.so:_Z40magmablas_sapply_transpose_vector_kerneliPfiS_i
libmagma.so:_Z40magmablas_zapply_transpose_vector_kerneliP18magmaDoubleComplexiS0_i
libmagma.so:_Z41__device_stub__adjust_ipiv_kernel_batchedPPiiii
libmagma.so:_Z41__device_stub__clacpy_full_kernel_batchediiPKPK17magmaFloatComplexiPPS_i
libmagma.so:_Z41__device_stub__clacpy_sym_in_lower_kerneliiPiS_PK17magmaFloatComplexiPS0_i
libmagma.so:_Z41__device_stub__clacpy_sym_in_upper_kerneliiPK17magmaFloatComplexiPS_i
libmagma.so:_Z41__device_stub__clacpy_sym_out_full_kerneliiPK17magmaFloatComplexiPS_i
libmagma.so:_Z41__device_stub__claset_full_kernel_batchedii17magmaFloatComplexS_PPS_i
libmagma.so:_Z41__device_stub__claswp_columnserial_kerneliP17magmaFloatComplexiiiPi
libmagma.so:_Z41__device_stub__dlacpy_full_kernel_batchediiPKPKdiPPdi
libmagma.so:_Z41__device_stub__dlacpy_sym_in_lower_kerneliiPiS_PKdiPdi
libmagma.so:_Z41__device_stub__dlacpy_sym_in_upper_kerneliiPKdiPdi
libmagma.so:_Z41__device_stub__dlacpy_sym_out_full_kerneliiPKdiPdi
libmagma.so:_Z41__device_stub__dlaset_full_kernel_batchediiddPPdi
libmagma.so:_Z41__device_stub__dlaswp_columnserial_kerneliPdiiiPi
libmagma.so:_Z41__device_stub__slacpy_full_kernel_batchediiPKPKfiPPfi
libmagma.so:_Z41__device_stub__slacpy_sym_in_lower_kerneliiPiS_PKfiPfi
libmagma.so:_Z41__device_stub__slacpy_sym_in_upper_kerneliiPKfiPfi
libmagma.so:_Z41__device_stub__slacpy_sym_out_full_kerneliiPKfiPfi
libmagma.so:_Z41__device_stub__slaset_full_kernel_batchediiffPPfi
libmagma.so:_Z41__device_stub__slaswp_columnserial_kerneliPfiiiPi
libmagma.so:_Z41__device_stub__zlacpy_full_kernel_batchediiPKPK18magmaDoubleComplexiPPS_i
libmagma.so:_Z41__device_stub__zlacpy_sym_in_lower_kerneliiPiS_PK18magmaDoubleComplexiPS0_i
libmagma.so:_Z41__device_stub__zlacpy_sym_in_upper_kerneliiPK18magmaDoubleComplexiPS_i
libmagma.so:_Z41__device_stub__zlacpy_sym_out_full_kerneliiPK18magmaDoubleComplexiPS_i
libmagma.so:_Z41__device_stub__zlaset_full_kernel_batchedii18magmaDoubleComplexS_PPS_i
libmagma.so:_Z41__device_stub__zlaswp_columnserial_kerneliP18magmaDoubleComplexiiiPi
libmagma.so:_Z41triple_cgemm16_part1_lower_kernel_batchediPKPK17magmaFloatComplexiPPS_ii
libmagma.so:_Z41triple_cgemm16_part1_upper_kernel_batchediPKPK17magmaFloatComplexiPPS_ii
libmagma.so:_Z41triple_cgemm16_part2_lower_kernel_batchediPKPK17magmaFloatComplexiPPS_ii
libmagma.so:_Z41triple_cgemm16_part2_upper_kernel_batchediPKPK17magmaFloatComplexiPPS_ii
libmagma.so:_Z41triple_cgemm32_part1_lower_kernel_batchediPKPK17magmaFloatComplexiPPS_ii
libmagma.so:_Z41triple_cgemm32_part1_upper_kernel_batchediPKPK17magmaFloatComplexiPPS_ii
libmagma.so:_Z41triple_cgemm32_part2_lower_kernel_batchediPKPK17magmaFloatComplexiPPS_ii
libmagma.so:_Z41triple_cgemm32_part2_upper_kernel_batchediPKPK17magmaFloatComplexiPPS_ii
libmagma.so:_Z41triple_cgemm64_part1_lower_kernel_batchediPKPK17magmaFloatComplexiPPS_ii
libmagma.so:_Z41triple_cgemm64_part1_upper_kernel_batchediPKPK17magmaFloatComplexiPPS_ii
libmagma.so:_Z41triple_cgemm64_part2_lower_kernel_batchediPKPK17magmaFloatComplexiPPS_ii
libmagma.so:_Z41triple_cgemm64_part2_upper_kernel_batchediPKPK17magmaFloatComplexiPPS_ii
libmagma.so:_Z41triple_dgemm16_part1_lower_kernel_batchediPKPKdiPPdii
libmagma.so:_Z41triple_dgemm16_part1_upper_kernel_batchediPKPKdiPPdii
libmagma.so:_Z41triple_dgemm16_part2_lower_kernel_batchediPKPKdiPPdii
libmagma.so:_Z41triple_dgemm16_part2_upper_kernel_batchediPKPKdiPPdii
libmagma.so:_Z41triple_dgemm32_part1_lower_kernel_batchediPKPKdiPPdii
libmagma.so:_Z41triple_dgemm32_part1_upper_kernel_batchediPKPKdiPPdii
libmagma.so:_Z41triple_dgemm32_part2_lower_kernel_batchediPKPKdiPPdii
libmagma.so:_Z41triple_dgemm32_part2_upper_kernel_batchediPKPKdiPPdii
libmagma.so:_Z41triple_dgemm64_part1_lower_kernel_batchediPKPKdiPPdii
libmagma.so:_Z41triple_dgemm64_part1_upper_kernel_batchediPKPKdiPPdii
libmagma.so:_Z41triple_dgemm64_part2_lower_kernel_batchediPKPKdiPPdii
libmagma.so:_Z41triple_dgemm64_part2_upper_kernel_batchediPKPKdiPPdii
libmagma.so:_Z41triple_sgemm16_part1_lower_kernel_batchediPKPKfiPPfii
libmagma.so:_Z41triple_sgemm16_part1_upper_kernel_batchediPKPKfiPPfii
libmagma.so:_Z41triple_sgemm16_part2_lower_kernel_batchediPKPKfiPPfii
libmagma.so:_Z41triple_sgemm16_part2_upper_kernel_batchediPKPKfiPPfii
libmagma.so:_Z41triple_sgemm32_part1_lower_kernel_batchediPKPKfiPPfii
libmagma.so:_Z41triple_sgemm32_part1_upper_kernel_batchediPKPKfiPPfii
libmagma.so:_Z41triple_sgemm32_part2_lower_kernel_batchediPKPKfiPPfii
libmagma.so:_Z41triple_sgemm32_part2_upper_kernel_batchediPKPKfiPPfii
libmagma.so:_Z41triple_sgemm64_part1_lower_kernel_batchediPKPKfiPPfii
libmagma.so:_Z41triple_sgemm64_part1_upper_kernel_batchediPKPKfiPPfii
libmagma.so:_Z41triple_sgemm64_part2_lower_kernel_batchediPKPKfiPPfii
libmagma.so:_Z41triple_sgemm64_part2_upper_kernel_batchediPKPKfiPPfii
libmagma.so:_Z41triple_zgemm16_part1_lower_kernel_batchediPKPK18magmaDoubleComplexiPPS_ii
libmagma.so:_Z41triple_zgemm16_part1_upper_kernel_batchediPKPK18magmaDoubleComplexiPPS_ii
libmagma.so:_Z41triple_zgemm16_part2_lower_kernel_batchediPKPK18magmaDoubleComplexiPPS_ii
libmagma.so:_Z41triple_zgemm16_part2_upper_kernel_batchediPKPK18magmaDoubleComplexiPPS_ii
libmagma.so:_Z41triple_zgemm32_part1_lower_kernel_batchediPKPK18magmaDoubleComplexiPPS_ii
libmagma.so:_Z41triple_zgemm32_part1_upper_kernel_batchediPKPK18magmaDoubleComplexiPPS_ii
libmagma.so:_Z41triple_zgemm32_part2_lower_kernel_batchediPKPK18magmaDoubleComplexiPPS_ii
libmagma.so:_Z41triple_zgemm32_part2_upper_kernel_batchediPKPK18magmaDoubleComplexiPPS_ii
libmagma.so:_Z41triple_zgemm64_part1_lower_kernel_batchediPKPK18magmaDoubleComplexiPPS_ii
libmagma.so:_Z41triple_zgemm64_part1_upper_kernel_batchediPKPK18magmaDoubleComplexiPPS_ii
libmagma.so:_Z41triple_zgemm64_part2_lower_kernel_batchediPKPK18magmaDoubleComplexiPPS_ii
libmagma.so:_Z41triple_zgemm64_part2_upper_kernel_batchediPKPK18magmaDoubleComplexiPPS_ii
libmagma.so:_Z42__device_stub__adjust_ipiv_kernel_vbatchedPPiiS_ii
libmagma.so:_Z42__device_stub__clacpy_full_kernel_vbatchedPiS_PKPK17magmaFloatComplexS_PPS0_S_
libmagma.so:_Z42__device_stub__clacpy_lower_kernel_batchediiPKPK17magmaFloatComplexiPPS_i
libmagma.so:_Z42__device_stub__clacpy_sym_out_lower_kerneliiPiS_PK17magmaFloatComplexiPS0_i
libmagma.so:_Z42__device_stub__clacpy_sym_out_upper_kerneliiPK17magmaFloatComplexiPS_i
libmagma.so:_Z42__device_stub__clacpy_upper_kernel_batchediiPKPK17magmaFloatComplexiPPS_i
libmagma.so:_Z42__device_stub__clarft_ctrmv_sm32x32_kerneliiP17magmaFloatComplexS0_iS0_i
libmagma.so:_Z42__device_stub__claset_full_kernel_vbatchedPiS_17magmaFloatComplexS0_PPS0_S_
libmagma.so:_Z42__device_stub__claset_lower_kernel_batchedii17magmaFloatComplexS_PPS_i
libmagma.so:_Z42__device_stub__claset_upper_kernel_batchedii17magmaFloatComplexS_PPS_i
libmagma.so:_Z42__device_stub__ctranspose_conj_inplace_oddiP17magmaFloatComplexi
libmagma.so:_Z42__device_stub__dlacpy_full_kernel_vbatchedPiS_PKPKdS_PPdS_
libmagma.so:_Z42__device_stub__dlacpy_lower_kernel_batchediiPKPKdiPPdi
libmagma.so:_Z42__device_stub__dlacpy_sym_out_lower_kerneliiPiS_PKdiPdi
libmagma.so:_Z42__device_stub__dlacpy_sym_out_upper_kerneliiPKdiPdi
libmagma.so:_Z42__device_stub__dlacpy_upper_kernel_batchediiPKPKdiPPdi
libmagma.so:_Z42__device_stub__dlarft_dtrmv_sm32x32_kerneliiPdS_iS_i
libmagma.so:_Z42__device_stub__dlaset_full_kernel_vbatchedPiS_ddPPdS_
libmagma.so:_Z42__device_stub__dlaset_lower_kernel_batchediiddPPdi
libmagma.so:_Z42__device_stub__dlaset_upper_kernel_batchediiddPPdi
libmagma.so:_Z42__device_stub__slacpy_full_kernel_vbatchedPiS_PKPKfS_PPfS_
libmagma.so:_Z42__device_stub__slacpy_lower_kernel_batchediiPKPKfiPPfi
libmagma.so:_Z42__device_stub__slacpy_sym_out_lower_kerneliiPiS_PKfiPfi
libmagma.so:_Z42__device_stub__slacpy_sym_out_upper_kerneliiPKfiPfi
libmagma.so:_Z42__device_stub__slacpy_upper_kernel_batchediiPKPKfiPPfi
libmagma.so:_Z42__device_stub__slarft_strmv_sm32x32_kerneliiPfS_iS_i
libmagma.so:_Z42__device_stub__slaset_full_kernel_vbatchedPiS_ffPPfS_
libmagma.so:_Z42__device_stub__slaset_lower_kernel_batchediiffPPfi
libmagma.so:_Z42__device_stub__slaset_upper_kernel_batchediiffPPfi
libmagma.so:_Z42__device_stub__zlacpy_full_kernel_vbatchedPiS_PKPK18magmaDoubleComplexS_PPS0_S_
libmagma.so:_Z42__device_stub__zlacpy_lower_kernel_batchediiPKPK18magmaDoubleComplexiPPS_i
libmagma.so:_Z42__device_stub__zlacpy_sym_out_lower_kerneliiPiS_PK18magmaDoubleComplexiPS0_i
libmagma.so:_Z42__device_stub__zlacpy_sym_out_upper_kerneliiPK18magmaDoubleComplexiPS_i
libmagma.so:_Z42__device_stub__zlacpy_upper_kernel_batchediiPKPK18magmaDoubleComplexiPPS_i
libmagma.so:_Z42__device_stub__zlarft_ztrmv_sm32x32_kerneliiP18magmaDoubleComplexS0_iS0_i
libmagma.so:_Z42__device_stub__zlaset_full_kernel_vbatchedPiS_18magmaDoubleComplexS0_PPS0_S_
libmagma.so:_Z42__device_stub__zlaset_lower_kernel_batchedii18magmaDoubleComplexS_PPS_i
libmagma.so:_Z42__device_stub__zlaset_upper_kernel_batchedii18magmaDoubleComplexS_PPS_i
libmagma.so:_Z42__device_stub__ztranspose_conj_inplace_oddiP18magmaDoubleComplexi
libmagma.so:_Z42triple_cgemm16_part1_lower_kernel_vbatchedPiPKPK17magmaFloatComplexS_PPS0_ii
libmagma.so:_Z42triple_cgemm16_part1_upper_kernel_vbatchedPiPKPK17magmaFloatComplexS_PPS0_ii
libmagma.so:_Z42triple_cgemm16_part2_lower_kernel_vbatchedPiPKPK17magmaFloatComplexS_PPS0_ii
libmagma.so:_Z42triple_cgemm16_part2_upper_kernel_vbatchedPiPKPK17magmaFloatComplexS_PPS0_ii
libmagma.so:_Z42triple_cgemm32_part1_lower_kernel_vbatchedPiPKPK17magmaFloatComplexS_PPS0_ii
libmagma.so:_Z42triple_cgemm32_part1_upper_kernel_vbatchedPiPKPK17magmaFloatComplexS_PPS0_ii
libmagma.so:_Z42triple_cgemm32_part2_lower_kernel_vbatchedPiPKPK17magmaFloatComplexS_PPS0_ii
libmagma.so:_Z42triple_cgemm32_part2_upper_kernel_vbatchedPiPKPK17magmaFloatComplexS_PPS0_ii
libmagma.so:_Z42triple_cgemm64_part1_lower_kernel_vbatchedPiPKPK17magmaFloatComplexS_PPS0_ii
libmagma.so:_Z42triple_cgemm64_part1_upper_kernel_vbatchedPiPKPK17magmaFloatComplexS_PPS0_ii
libmagma.so:_Z42triple_cgemm64_part2_lower_kernel_vbatchedPiPKPK17magmaFloatComplexS_PPS0_ii
libmagma.so:_Z42triple_cgemm64_part2_upper_kernel_vbatchedPiPKPK17magmaFloatComplexS_PPS0_ii
libmagma.so:_Z42triple_dgemm16_part1_lower_kernel_vbatchedPiPKPKdS_PPdii
libmagma.so:_Z42triple_dgemm16_part1_upper_kernel_vbatchedPiPKPKdS_PPdii
libmagma.so:_Z42triple_dgemm16_part2_lower_kernel_vbatchedPiPKPKdS_PPdii
libmagma.so:_Z42triple_dgemm16_part2_upper_kernel_vbatchedPiPKPKdS_PPdii
libmagma.so:_Z42triple_dgemm32_part1_lower_kernel_vbatchedPiPKPKdS_PPdii
libmagma.so:_Z42triple_dgemm32_part1_upper_kernel_vbatchedPiPKPKdS_PPdii
libmagma.so:_Z42triple_dgemm32_part2_lower_kernel_vbatchedPiPKPKdS_PPdii
libmagma.so:_Z42triple_dgemm32_part2_upper_kernel_vbatchedPiPKPKdS_PPdii
libmagma.so:_Z42triple_dgemm64_part1_lower_kernel_vbatchedPiPKPKdS_PPdii
libmagma.so:_Z42triple_dgemm64_part1_upper_kernel_vbatchedPiPKPKdS_PPdii
libmagma.so:_Z42triple_dgemm64_part2_lower_kernel_vbatchedPiPKPKdS_PPdii
libmagma.so:_Z42triple_dgemm64_part2_upper_kernel_vbatchedPiPKPKdS_PPdii
libmagma.so:_Z42triple_sgemm16_part1_lower_kernel_vbatchedPiPKPKfS_PPfii
libmagma.so:_Z42triple_sgemm16_part1_upper_kernel_vbatchedPiPKPKfS_PPfii
libmagma.so:_Z42triple_sgemm16_part2_lower_kernel_vbatchedPiPKPKfS_PPfii
libmagma.so:_Z42triple_sgemm16_part2_upper_kernel_vbatchedPiPKPKfS_PPfii
libmagma.so:_Z42triple_sgemm32_part1_lower_kernel_vbatchedPiPKPKfS_PPfii
libmagma.so:_Z42triple_sgemm32_part1_upper_kernel_vbatchedPiPKPKfS_PPfii
libmagma.so:_Z42triple_sgemm32_part2_lower_kernel_vbatchedPiPKPKfS_PPfii
libmagma.so:_Z42triple_sgemm32_part2_upper_kernel_vbatchedPiPKPKfS_PPfii
libmagma.so:_Z42triple_sgemm64_part1_lower_kernel_vbatchedPiPKPKfS_PPfii
libmagma.so:_Z42triple_sgemm64_part1_upper_kernel_vbatchedPiPKPKfS_PPfii
libmagma.so:_Z42triple_sgemm64_part2_lower_kernel_vbatchedPiPKPKfS_PPfii
libmagma.so:_Z42triple_sgemm64_part2_upper_kernel_vbatchedPiPKPKfS_PPfii
libmagma.so:_Z42triple_zgemm16_part1_lower_kernel_vbatchedPiPKPK18magmaDoubleComplexS_PPS0_ii
libmagma.so:_Z42triple_zgemm16_part1_upper_kernel_vbatchedPiPKPK18magmaDoubleComplexS_PPS0_ii
libmagma.so:_Z42triple_zgemm16_part2_lower_kernel_vbatchedPiPKPK18magmaDoubleComplexS_PPS0_ii
libmagma.so:_Z42triple_zgemm16_part2_upper_kernel_vbatchedPiPKPK18magmaDoubleComplexS_PPS0_ii
libmagma.so:_Z42triple_zgemm32_part1_lower_kernel_vbatchedPiPKPK18magmaDoubleComplexS_PPS0_ii
libmagma.so:_Z42triple_zgemm32_part1_upper_kernel_vbatchedPiPKPK18magmaDoubleComplexS_PPS0_ii
libmagma.so:_Z42triple_zgemm32_part2_lower_kernel_vbatchedPiPKPK18magmaDoubleComplexS_PPS0_ii
libmagma.so:_Z42triple_zgemm32_part2_upper_kernel_vbatchedPiPKPK18magmaDoubleComplexS_PPS0_ii
libmagma.so:_Z42triple_zgemm64_part1_lower_kernel_vbatchedPiPKPK18magmaDoubleComplexS_PPS0_ii
libmagma.so:_Z42triple_zgemm64_part1_upper_kernel_vbatchedPiPKPK18magmaDoubleComplexS_PPS0_ii
libmagma.so:_Z42triple_zgemm64_part2_lower_kernel_vbatchedPiPKPK18magmaDoubleComplexS_PPS0_ii
libmagma.so:_Z42triple_zgemm64_part2_upper_kernel_vbatchedPiPKPK18magmaDoubleComplexS_PPS0_ii
libmagma.so:_Z43__device_stub__clacpy_lower_kernel_vbatchedPiS_PKPK17magmaFloatComplexS_PPS0_S_
libmagma.so:_Z43__device_stub__clacpy_upper_kernel_vbatchedPiS_PKPK17magmaFloatComplexS_PPS0_S_
libmagma.so:_Z43__device_stub__claset_lower_kernel_vbatchedPiS_17magmaFloatComplexS0_PPS0_S_
libmagma.so:_Z43__device_stub__claset_upper_kernel_vbatchedPiS_17magmaFloatComplexS0_PPS0_S_
libmagma.so:_Z43__device_stub__ctranspose_conj_inplace_eveniP17magmaFloatComplexi
libmagma.so:_Z43__device_stub__dlacpy_lower_kernel_vbatchedPiS_PKPKdS_PPdS_
libmagma.so:_Z43__device_stub__dlacpy_upper_kernel_vbatchedPiS_PKPKdS_PPdS_
libmagma.so:_Z43__device_stub__dlaset_lower_kernel_vbatchedPiS_ddPPdS_
libmagma.so:_Z43__device_stub__dlaset_upper_kernel_vbatchedPiS_ddPPdS_
libmagma.so:_Z43__device_stub__magma_compute_trsm_jb_kerneliPiiS_
libmagma.so:_Z43__device_stub__magmablas_dnrm2_check_kerneliPdiS_S_
libmagma.so:_Z43__device_stub__magmablas_snrm2_check_kerneliPfiS_S_
libmagma.so:_Z43__device_stub__setup_pivinfo_kernel_batchedPPiS0_iii
libmagma.so:_Z43__device_stub__slacpy_lower_kernel_vbatchedPiS_PKPKfS_PPfS_
libmagma.so:_Z43__device_stub__slacpy_upper_kernel_vbatchedPiS_PKPKfS_PPfS_
libmagma.so:_Z43__device_stub__slaset_lower_kernel_vbatchedPiS_ffPPfS_
libmagma.so:_Z43__device_stub__slaset_upper_kernel_vbatchedPiS_ffPPfS_
libmagma.so:_Z43__device_stub__zlacpy_lower_kernel_vbatchedPiS_PKPK18magmaDoubleComplexS_PPS0_S_
libmagma.so:_Z43__device_stub__zlacpy_upper_kernel_vbatchedPiS_PKPK18magmaDoubleComplexS_PPS0_S_
libmagma.so:_Z43__device_stub__zlaset_lower_kernel_vbatchedPiS_18magmaDoubleComplexS0_PPS0_S_
libmagma.so:_Z43__device_stub__zlaset_upper_kernel_vbatchedPiS_18magmaDoubleComplexS0_PPS0_S_
libmagma.so:_Z43__device_stub__ztranspose_conj_inplace_eveniP18magmaDoubleComplexi
libmagma.so:_Z43magmablas_celementary_multiplication_kerneliP17magmaFloatComplexiiS0_iS0_i
libmagma.so:_Z43magmablas_delementary_multiplication_kerneliPdiiS_iS_i
libmagma.so:_Z43magmablas_selementary_multiplication_kerneliPfiiS_iS_i
libmagma.so:_Z43magmablas_zelementary_multiplication_kerneliP18magmaDoubleComplexiiS0_iS0_i
libmagma.so:_Z44__device_stub__cgesv_batched_small_sm_kerneliiPP17magmaFloatComplexiPPiS1_iS2_
libmagma.so:_Z44__device_stub__cpotf2_smlpin_anywidth_kerneliP17magmaFloatComplexiiiPi
libmagma.so:_Z44__device_stub__cpotf2_smlpin_fixwidth_kerneliP17magmaFloatComplexiiiPi
libmagma.so:_Z44__device_stub__dgesv_batched_small_sm_kerneliiPPdiPPiS0_iS1_
libmagma.so:_Z44__device_stub__dpotf2_smlpin_anywidth_kerneliPdiiiPi
libmagma.so:_Z44__device_stub__dpotf2_smlpin_fixwidth_kerneliPdiiiPi
libmagma.so:_Z44__device_stub__magmablas_dznrm2_check_kerneliP18magmaDoubleComplexiPdS1_
libmagma.so:_Z44__device_stub__magmablas_scnrm2_check_kerneliP17magmaFloatComplexiPfS1_
libmagma.so:_Z44__device_stub__sgesv_batched_small_sm_kerneliiPPfiPPiS0_iS1_
libmagma.so:_Z44__device_stub__spotf2_smlpin_anywidth_kerneliPfiiiPi
libmagma.so:_Z44__device_stub__spotf2_smlpin_fixwidth_kerneliPfiiiPi
libmagma.so:_Z44__device_stub__zgesv_batched_small_sm_kerneliiPP18magmaDoubleComplexiPPiS1_iS2_
libmagma.so:_Z44__device_stub__zpotf2_smlpin_anywidth_kerneliP18magmaDoubleComplexiiiPi
libmagma.so:_Z44__device_stub__zpotf2_smlpin_fixwidth_kerneliP18magmaDoubleComplexiiiPi
libmagma.so:_Z45__device_stub__clarft_gemv_loop_inside_kerneliiP17magmaFloatComplexS0_iS0_i
libmagma.so:_Z45__device_stub__clarft_recctrmv_sm32x32_kerneliiP17magmaFloatComplexS0_iS0_i
libmagma.so:_Z45__device_stub__claswp_rowserial_kernel_nativeiP17magmaFloatComplexiiiPi
libmagma.so:_Z45__device_stub__cpotf2_smlpout_anywidth_kerneliiP17magmaFloatComplexiiiPi
libmagma.so:_Z45__device_stub__cpotf2_smlpout_fixwidth_kerneliP17magmaFloatComplexiiiPi
libmagma.so:_Z45__device_stub__cpotf2_smlpout_kernel_vbatchedPiPP17magmaFloatComplexS_iiS_
libmagma.so:_Z45__device_stub__ctranspose_conj_kernel_batchediiPP17magmaFloatComplexiS1_i
libmagma.so:_Z45__device_stub__dlarft_gemv_loop_inside_kerneliiPdS_iS_i
libmagma.so:_Z45__device_stub__dlarft_recdtrmv_sm32x32_kerneliiPdS_iS_i
libmagma.so:_Z45__device_stub__dlaswp_rowserial_kernel_nativeiPdiiiPi
libmagma.so:_Z45__device_stub__dpotf2_smlpout_anywidth_kerneliiPdiiiPi
libmagma.so:_Z45__device_stub__dpotf2_smlpout_fixwidth_kerneliPdiiiPi
libmagma.so:_Z45__device_stub__dpotf2_smlpout_kernel_vbatchedPiPPdS_iiS_
libmagma.so:_Z45__device_stub__magmablas_capply_vector_kerneliP17magmaFloatComplexiS0_i
libmagma.so:_Z45__device_stub__magmablas_dapply_vector_kerneliPdiS_i
libmagma.so:_Z45__device_stub__magmablas_sapply_vector_kerneliPfiS_i
libmagma.so:_Z45__device_stub__magmablas_zapply_vector_kerneliP18magmaDoubleComplexiS0_i
libmagma.so:_Z45__device_stub__slarft_gemv_loop_inside_kerneliiPfS_iS_i
libmagma.so:_Z45__device_stub__slarft_recstrmv_sm32x32_kerneliiPfS_iS_i
libmagma.so:_Z45__device_stub__slaswp_rowserial_kernel_nativeiPfiiiPi
libmagma.so:_Z45__device_stub__spotf2_smlpout_anywidth_kerneliiPfiiiPi
libmagma.so:_Z45__device_stub__spotf2_smlpout_fixwidth_kerneliPfiiiPi
libmagma.so:_Z45__device_stub__spotf2_smlpout_kernel_vbatchedPiPPfS_iiS_
libmagma.so:_Z45__device_stub__zlarft_gemv_loop_inside_kerneliiP18magmaDoubleComplexS0_iS0_i
libmagma.so:_Z45__device_stub__zlarft_recztrmv_sm32x32_kerneliiP18magmaDoubleComplexS0_iS0_i
libmagma.so:_Z45__device_stub__zlaswp_rowserial_kernel_nativeiP18magmaDoubleComplexiiiPi
libmagma.so:_Z45__device_stub__zpotf2_smlpout_anywidth_kerneliiP18magmaDoubleComplexiiiPi
libmagma.so:_Z45__device_stub__zpotf2_smlpout_fixwidth_kerneliP18magmaDoubleComplexiiiPi
libmagma.so:_Z45__device_stub__zpotf2_smlpout_kernel_vbatchedPiPP18magmaDoubleComplexS_iiS_
libmagma.so:_Z45__device_stub__ztranspose_conj_kernel_batchediiPP18magmaDoubleComplexiS1_i
libmagma.so:_Z46__device_stub__cgeqr2_column_sm_kernel_batchediiPP17magmaFloatComplexiS1_
libmagma.so:_Z46__device_stub__claswp_rowserial_kernel_batchediPP17magmaFloatComplexiiiPPi
libmagma.so:_Z46__device_stub__dgeqr2_column_sm_kernel_batchediiPPdiS0_
libmagma.so:_Z46__device_stub__dlaswp_rowserial_kernel_batchediPPdiiiPPi
libmagma.so:_Z46__device_stub__sgeqr2_column_sm_kernel_batchediiPPfiS0_
libmagma.so:_Z46__device_stub__slaswp_rowserial_kernel_batchediPPfiiiPPi
libmagma.so:_Z46__device_stub__zgeqr2_column_sm_kernel_batchediiPP18magmaDoubleComplexiS1_
libmagma.so:_Z46__device_stub__zlaswp_rowserial_kernel_batchediPP18magmaDoubleComplexiiiPPi
libmagma.so:_Z47__device_stub__ctranspose_kernel_batched_strideiiiP17magmaFloatComplexiS0_i
libmagma.so:_Z47__device_stub__ctrtri_diag_lower_kernel_batched12magma_diag_tiPKPK17magmaFloatComplexiPPS0_
libmagma.so:_Z47__device_stub__ctrtri_diag_upper_kernel_batched12magma_diag_tiPKPK17magmaFloatComplexiPPS0_
libmagma.so:_Z47__device_stub__dtranspose_kernel_batched_strideiiiPdiS_i
libmagma.so:_Z47__device_stub__dtrtri_diag_lower_kernel_batched12magma_diag_tiPKPKdiPPd
libmagma.so:_Z47__device_stub__dtrtri_diag_upper_kernel_batched12magma_diag_tiPKPKdiPPd
libmagma.so:_Z47__device_stub__stranspose_kernel_batched_strideiiiPfiS_i
libmagma.so:_Z47__device_stub__strtri_diag_lower_kernel_batched12magma_diag_tiPKPKfiPPf
libmagma.so:_Z47__device_stub__strtri_diag_upper_kernel_batched12magma_diag_tiPKPKfiPPf
libmagma.so:_Z47__device_stub__zdisplace_pointers_var_cc_kernelPP17magmaFloatComplexS1_Piii
libmagma.so:_Z47__device_stub__zdisplace_pointers_var_cc_kernelPP18magmaDoubleComplexS1_Piii
libmagma.so:_Z47__device_stub__zdisplace_pointers_var_cc_kernelPPdS0_Piii
libmagma.so:_Z47__device_stub__zdisplace_pointers_var_cc_kernelPPfS0_Piii
libmagma.so:_Z47__device_stub__zdisplace_pointers_var_cv_kernelPP17magmaFloatComplexS1_PiiS2_
libmagma.so:_Z47__device_stub__zdisplace_pointers_var_cv_kernelPP18magmaDoubleComplexS1_PiiS2_
libmagma.so:_Z47__device_stub__zdisplace_pointers_var_cv_kernelPPdS0_PiiS1_
libmagma.so:_Z47__device_stub__zdisplace_pointers_var_cv_kernelPPfS0_PiiS1_
libmagma.so:_Z47__device_stub__zdisplace_pointers_var_vc_kernelPP17magmaFloatComplexS1_PiS2_i
libmagma.so:_Z47__device_stub__zdisplace_pointers_var_vc_kernelPP18magmaDoubleComplexS1_PiS2_i
libmagma.so:_Z47__device_stub__zdisplace_pointers_var_vc_kernelPPdS0_PiS1_i
libmagma.so:_Z47__device_stub__zdisplace_pointers_var_vc_kernelPPfS0_PiS1_i
libmagma.so:_Z47__device_stub__zdisplace_pointers_var_vv_kernelPP17magmaFloatComplexS1_PiS2_S2_
libmagma.so:_Z47__device_stub__zdisplace_pointers_var_vv_kernelPP18magmaDoubleComplexS1_PiS2_S2_
libmagma.so:_Z47__device_stub__zdisplace_pointers_var_vv_kernelPPdS0_PiS1_S1_
libmagma.so:_Z47__device_stub__zdisplace_pointers_var_vv_kernelPPfS0_PiS1_S1_
libmagma.so:_Z47__device_stub__ztranspose_kernel_batched_strideiiiP18magmaDoubleComplexiS0_i
libmagma.so:_Z47__device_stub__ztrtri_diag_lower_kernel_batched12magma_diag_tiPKPK18magmaDoubleComplexiPPS0_
libmagma.so:_Z47__device_stub__ztrtri_diag_upper_kernel_batched12magma_diag_tiPKPK18magmaDoubleComplexiPPS0_
libmagma.so:_Z47triple_cgemm_above64_part1_lower_kernel_batchediPKPK17magmaFloatComplexiPPS_ii
libmagma.so:_Z47triple_cgemm_above64_part1_upper_kernel_batchediPKPK17magmaFloatComplexiPPS_ii
libmagma.so:_Z47triple_cgemm_above64_part2_lower_kernel_batchediPKPK17magmaFloatComplexiPPS_ii
libmagma.so:_Z47triple_cgemm_above64_part2_upper_kernel_batchediPKPK17magmaFloatComplexiPPS_ii
libmagma.so:_Z47triple_cgemm_above64_part3_lower_kernel_batchediPKPK17magmaFloatComplexiPPS_ii
libmagma.so:_Z47triple_cgemm_above64_part3_upper_kernel_batchediPKPK17magmaFloatComplexiPPS_ii
libmagma.so:_Z47triple_dgemm_above64_part1_lower_kernel_batchediPKPKdiPPdii
libmagma.so:_Z47triple_dgemm_above64_part1_upper_kernel_batchediPKPKdiPPdii
libmagma.so:_Z47triple_dgemm_above64_part2_lower_kernel_batchediPKPKdiPPdii
libmagma.so:_Z47triple_dgemm_above64_part2_upper_kernel_batchediPKPKdiPPdii
libmagma.so:_Z47triple_dgemm_above64_part3_lower_kernel_batchediPKPKdiPPdii
libmagma.so:_Z47triple_dgemm_above64_part3_upper_kernel_batchediPKPKdiPPdii
libmagma.so:_Z47triple_sgemm_above64_part1_lower_kernel_batchediPKPKfiPPfii
libmagma.so:_Z47triple_sgemm_above64_part1_upper_kernel_batchediPKPKfiPPfii
libmagma.so:_Z47triple_sgemm_above64_part2_lower_kernel_batchediPKPKfiPPfii
libmagma.so:_Z47triple_sgemm_above64_part2_upper_kernel_batchediPKPKfiPPfii
libmagma.so:_Z47triple_sgemm_above64_part3_lower_kernel_batchediPKPKfiPPfii
libmagma.so:_Z47triple_sgemm_above64_part3_upper_kernel_batchediPKPKfiPPfii
libmagma.so:_Z47triple_zgemm_above64_part1_lower_kernel_batchediPKPK18magmaDoubleComplexiPPS_ii
libmagma.so:_Z47triple_zgemm_above64_part1_upper_kernel_batchediPKPK18magmaDoubleComplexiPPS_ii
libmagma.so:_Z47triple_zgemm_above64_part2_lower_kernel_batchediPKPK18magmaDoubleComplexiPPS_ii
libmagma.so:_Z47triple_zgemm_above64_part2_upper_kernel_batchediPKPK18magmaDoubleComplexiPPS_ii
libmagma.so:_Z47triple_zgemm_above64_part3_lower_kernel_batchediPKPK18magmaDoubleComplexiPPS_ii
libmagma.so:_Z47triple_zgemm_above64_part3_upper_kernel_batchediPKPK18magmaDoubleComplexiPPS_ii
libmagma.so:_Z48__device_stub__clarft_gemvcolwise_kernel_batchediPP17magmaFloatComplexiS1_S1_ii
libmagma.so:_Z48__device_stub__clarft_gemvrowwise_kernel_batchediiPP17magmaFloatComplexS1_iS1_i
libmagma.so:_Z48__device_stub__claswp_rowparallel_kernel_batchediiiPP17magmaFloatComplexiiiS1_iiiPPi
libmagma.so:_Z48__device_stub__cpotf2_smlpout_kernel_vbatched_v2iPiPP17magmaFloatComplexS_iiS_
libmagma.so:_Z48__device_stub__ctrtri_diag_lower_kernel_vbatched12magma_diag_tPiPKPK17magmaFloatComplexS0_PPS1_
libmagma.so:_Z48__device_stub__ctrtri_diag_upper_kernel_vbatched12magma_diag_tPiPKPK17magmaFloatComplexS0_PPS1_
libmagma.so:_Z48__device_stub__dlarft_gemvcolwise_kernel_batchediPPdiS0_S0_ii
libmagma.so:_Z48__device_stub__dlarft_gemvrowwise_kernel_batchediiPPdS0_iS0_i
libmagma.so:_Z48__device_stub__dlaswp_rowparallel_kernel_batchediiiPPdiiiS0_iiiPPi
libmagma.so:_Z48__device_stub__dpotf2_smlpout_kernel_vbatched_v2iPiPPdS_iiS_
libmagma.so:_Z48__device_stub__dtrtri_diag_lower_kernel_vbatched12magma_diag_tPiPKPKdS0_PPd
libmagma.so:_Z48__device_stub__dtrtri_diag_upper_kernel_vbatched12magma_diag_tPiPKPKdS0_PPd
libmagma.so:_Z48__device_stub__magma_getrf_vbatched_setup_kernelPiS_S_i
libmagma.so:_Z48__device_stub__slarft_gemvcolwise_kernel_batchediPPfiS0_S0_ii
libmagma.so:_Z48__device_stub__slarft_gemvrowwise_kernel_batchediiPPfS0_iS0_i
libmagma.so:_Z48__device_stub__slaswp_rowparallel_kernel_batchediiiPPfiiiS0_iiiPPi
libmagma.so:_Z48__device_stub__spotf2_smlpout_kernel_vbatched_v2iPiPPfS_iiS_
libmagma.so:_Z48__device_stub__strtri_diag_lower_kernel_vbatched12magma_diag_tPiPKPKfS0_PPf
libmagma.so:_Z48__device_stub__strtri_diag_upper_kernel_vbatched12magma_diag_tPiPKPKfS0_PPf
libmagma.so:_Z48__device_stub__triple_cgemm16_part1_lower_kerneliPK17magmaFloatComplexiPS_ii
libmagma.so:_Z48__device_stub__triple_cgemm16_part1_upper_kerneliPK17magmaFloatComplexiPS_ii
libmagma.so:_Z48__device_stub__triple_cgemm16_part2_lower_kerneliPK17magmaFloatComplexiPS_ii
libmagma.so:_Z48__device_stub__triple_cgemm16_part2_upper_kerneliPK17magmaFloatComplexiPS_ii
libmagma.so:_Z48__device_stub__triple_cgemm32_part1_lower_kerneliPK17magmaFloatComplexiPS_ii
libmagma.so:_Z48__device_stub__triple_cgemm32_part1_upper_kerneliPK17magmaFloatComplexiPS_ii
libmagma.so:_Z48__device_stub__triple_cgemm32_part2_lower_kerneliPK17magmaFloatComplexiPS_ii
libmagma.so:_Z48__device_stub__triple_cgemm32_part2_upper_kerneliPK17magmaFloatComplexiPS_ii
libmagma.so:_Z48__device_stub__triple_cgemm64_part1_lower_kerneliPK17magmaFloatComplexiPS_ii
libmagma.so:_Z48__device_stub__triple_cgemm64_part1_upper_kerneliPK17magmaFloatComplexiPS_ii
libmagma.so:_Z48__device_stub__triple_cgemm64_part2_lower_kerneliPK17magmaFloatComplexiPS_ii
libmagma.so:_Z48__device_stub__triple_cgemm64_part2_upper_kerneliPK17magmaFloatComplexiPS_ii
libmagma.so:_Z48__device_stub__triple_dgemm16_part1_lower_kerneliPKdiPdii
libmagma.so:_Z48__device_stub__triple_dgemm16_part1_upper_kerneliPKdiPdii
libmagma.so:_Z48__device_stub__triple_dgemm16_part2_lower_kerneliPKdiPdii
libmagma.so:_Z48__device_stub__triple_dgemm16_part2_upper_kerneliPKdiPdii
libmagma.so:_Z48__device_stub__triple_dgemm32_part1_lower_kerneliPKdiPdii
libmagma.so:_Z48__device_stub__triple_dgemm32_part1_upper_kerneliPKdiPdii
libmagma.so:_Z48__device_stub__triple_dgemm32_part2_lower_kerneliPKdiPdii
libmagma.so:_Z48__device_stub__triple_dgemm32_part2_upper_kerneliPKdiPdii
libmagma.so:_Z48__device_stub__triple_dgemm64_part1_lower_kerneliPKdiPdii
libmagma.so:_Z48__device_stub__triple_dgemm64_part1_upper_kerneliPKdiPdii
libmagma.so:_Z48__device_stub__triple_dgemm64_part2_lower_kerneliPKdiPdii
libmagma.so:_Z48__device_stub__triple_dgemm64_part2_upper_kerneliPKdiPdii
libmagma.so:_Z48__device_stub__triple_sgemm16_part1_lower_kerneliPKfiPfii
libmagma.so:_Z48__device_stub__triple_sgemm16_part1_upper_kerneliPKfiPfii
libmagma.so:_Z48__device_stub__triple_sgemm16_part2_lower_kerneliPKfiPfii
libmagma.so:_Z48__device_stub__triple_sgemm16_part2_upper_kerneliPKfiPfii
libmagma.so:_Z48__device_stub__triple_sgemm32_part1_lower_kerneliPKfiPfii
libmagma.so:_Z48__device_stub__triple_sgemm32_part1_upper_kerneliPKfiPfii
libmagma.so:_Z48__device_stub__triple_sgemm32_part2_lower_kerneliPKfiPfii
libmagma.so:_Z48__device_stub__triple_sgemm32_part2_upper_kerneliPKfiPfii
libmagma.so:_Z48__device_stub__triple_sgemm64_part1_lower_kerneliPKfiPfii
libmagma.so:_Z48__device_stub__triple_sgemm64_part1_upper_kerneliPKfiPfii
libmagma.so:_Z48__device_stub__triple_sgemm64_part2_lower_kerneliPKfiPfii
libmagma.so:_Z48__device_stub__triple_sgemm64_part2_upper_kerneliPKfiPfii
libmagma.so:_Z48__device_stub__triple_zgemm16_part1_lower_kerneliPK18magmaDoubleComplexiPS_ii
libmagma.so:_Z48__device_stub__triple_zgemm16_part1_upper_kerneliPK18magmaDoubleComplexiPS_ii
libmagma.so:_Z48__device_stub__triple_zgemm16_part2_lower_kerneliPK18magmaDoubleComplexiPS_ii
libmagma.so:_Z48__device_stub__triple_zgemm16_part2_upper_kerneliPK18magmaDoubleComplexiPS_ii
libmagma.so:_Z48__device_stub__triple_zgemm32_part1_lower_kerneliPK18magmaDoubleComplexiPS_ii
libmagma.so:_Z48__device_stub__triple_zgemm32_part1_upper_kerneliPK18magmaDoubleComplexiPS_ii
libmagma.so:_Z48__device_stub__triple_zgemm32_part2_lower_kerneliPK18magmaDoubleComplexiPS_ii
libmagma.so:_Z48__device_stub__triple_zgemm32_part2_upper_kerneliPK18magmaDoubleComplexiPS_ii
libmagma.so:_Z48__device_stub__triple_zgemm64_part1_lower_kerneliPK18magmaDoubleComplexiPS_ii
libmagma.so:_Z48__device_stub__triple_zgemm64_part1_upper_kerneliPK18magmaDoubleComplexiPS_ii
libmagma.so:_Z48__device_stub__triple_zgemm64_part2_lower_kerneliPK18magmaDoubleComplexiPS_ii
libmagma.so:_Z48__device_stub__triple_zgemm64_part2_upper_kerneliPK18magmaDoubleComplexiPS_ii
libmagma.so:_Z48__device_stub__zlarft_gemvcolwise_kernel_batchediPP18magmaDoubleComplexiS1_S1_ii
libmagma.so:_Z48__device_stub__zlarft_gemvrowwise_kernel_batchediiPP18magmaDoubleComplexS1_iS1_i
libmagma.so:_Z48__device_stub__zlaswp_rowparallel_kernel_batchediiiPP18magmaDoubleComplexiiiS1_iiiPPi
libmagma.so:_Z48__device_stub__zpotf2_smlpout_kernel_vbatched_v2iPiPP18magmaDoubleComplexS_iiS_
libmagma.so:_Z48__device_stub__ztrtri_diag_lower_kernel_vbatched12magma_diag_tPiPKPK18magmaDoubleComplexS0_PPS1_
libmagma.so:_Z48__device_stub__ztrtri_diag_upper_kernel_vbatched12magma_diag_tPiPKPK18magmaDoubleComplexS0_PPS1_
libmagma.so:_Z48magmablas_capply_transpose_vector_kernel_batchediP17magmaFloatComplexiPS0_i
libmagma.so:_Z48magmablas_dapply_transpose_vector_kernel_batchediPdiPS_i
libmagma.so:_Z48magmablas_sapply_transpose_vector_kernel_batchediPfiPS_i
libmagma.so:_Z48magmablas_zapply_transpose_vector_kernel_batchediP18magmaDoubleComplexiPS0_i
libmagma.so:_Z48triple_cgemm_above64_part1_lower_kernel_vbatchedPiPKPK17magmaFloatComplexS_PPS0_ii
libmagma.so:_Z48triple_cgemm_above64_part1_upper_kernel_vbatchedPiPKPK17magmaFloatComplexS_PPS0_ii
libmagma.so:_Z48triple_cgemm_above64_part2_lower_kernel_vbatchedPiPKPK17magmaFloatComplexS_PPS0_ii
libmagma.so:_Z48triple_cgemm_above64_part2_upper_kernel_vbatchedPiPKPK17magmaFloatComplexS_PPS0_ii
libmagma.so:_Z48triple_cgemm_above64_part3_lower_kernel_vbatchedPiPKPK17magmaFloatComplexS_PPS0_ii
libmagma.so:_Z48triple_cgemm_above64_part3_upper_kernel_vbatchedPiPKPK17magmaFloatComplexS_PPS0_ii
libmagma.so:_Z48triple_dgemm_above64_part1_lower_kernel_vbatchedPiPKPKdS_PPdii
libmagma.so:_Z48triple_dgemm_above64_part1_upper_kernel_vbatchedPiPKPKdS_PPdii
libmagma.so:_Z48triple_dgemm_above64_part2_lower_kernel_vbatchedPiPKPKdS_PPdii
libmagma.so:_Z48triple_dgemm_above64_part2_upper_kernel_vbatchedPiPKPKdS_PPdii
libmagma.so:_Z48triple_dgemm_above64_part3_lower_kernel_vbatchedPiPKPKdS_PPdii
libmagma.so:_Z48triple_dgemm_above64_part3_upper_kernel_vbatchedPiPKPKdS_PPdii
libmagma.so:_Z48triple_sgemm_above64_part1_lower_kernel_vbatchedPiPKPKfS_PPfii
libmagma.so:_Z48triple_sgemm_above64_part1_upper_kernel_vbatchedPiPKPKfS_PPfii
libmagma.so:_Z48triple_sgemm_above64_part2_lower_kernel_vbatchedPiPKPKfS_PPfii
libmagma.so:_Z48triple_sgemm_above64_part2_upper_kernel_vbatchedPiPKPKfS_PPfii
libmagma.so:_Z48triple_sgemm_above64_part3_lower_kernel_vbatchedPiPKPKfS_PPfii
libmagma.so:_Z48triple_sgemm_above64_part3_upper_kernel_vbatchedPiPKPKfS_PPfii
libmagma.so:_Z48triple_zgemm_above64_part1_lower_kernel_vbatchedPiPKPK18magmaDoubleComplexS_PPS0_ii
libmagma.so:_Z48triple_zgemm_above64_part1_upper_kernel_vbatchedPiPKPK18magmaDoubleComplexS_PPS0_ii
libmagma.so:_Z48triple_zgemm_above64_part2_lower_kernel_vbatchedPiPKPK18magmaDoubleComplexS_PPS0_ii
libmagma.so:_Z48triple_zgemm_above64_part2_upper_kernel_vbatchedPiPKPK18magmaDoubleComplexS_PPS0_ii
libmagma.so:_Z48triple_zgemm_above64_part3_lower_kernel_vbatchedPiPKPK18magmaDoubleComplexS_PPS0_ii
libmagma.so:_Z48triple_zgemm_above64_part3_upper_kernel_vbatchedPiPKPK18magmaDoubleComplexS_PPS0_ii
libmagma.so:_Z49__device_stub__claswp_columnserial_kernel_batchediPP17magmaFloatComplexiiiPPi
libmagma.so:_Z49__device_stub__dlaswp_columnserial_kernel_batchediPPdiiiPPi
libmagma.so:_Z49__device_stub__magmablas_dscal_inverseblock_lowerPKdiPdi
libmagma.so:_Z49__device_stub__magmablas_dscal_inverseblock_upperPKdiPdi
libmagma.so:_Z49__device_stub__magmablas_sscal_inverseblock_lowerPKfiPfi
libmagma.so:_Z49__device_stub__magmablas_sscal_inverseblock_upperPKfiPfi
libmagma.so:_Z49__device_stub__slaswp_columnserial_kernel_batchediPPfiiiPPi
libmagma.so:_Z49__device_stub__zlaswp_columnserial_kernel_batchediPP18magmaDoubleComplexiiiPPi
libmagma.so:_Z50__device_stub__clarft_ctrmv_sm32x32_kernel_batchediiPP17magmaFloatComplexS1_iS1_i
libmagma.so:_Z50__device_stub__dlarft_dtrmv_sm32x32_kernel_batchediiPPdS0_iS0_i
libmagma.so:_Z50__device_stub__dscal_dger_1d_generic_kernel_nativeiiPdiPiii
libmagma.so:_Z50__device_stub__magma_cswap_scal_inverseblock_loweriiiP17magmaFloatComplexiS0_i
libmagma.so:_Z50__device_stub__magma_dnrm2_row_check_adjust_kernelidPdS_S_iS_
libmagma.so:_Z50__device_stub__magma_dswap_scal_inverseblock_loweriiiPdiS_i
libmagma.so:_Z50__device_stub__magma_snrm2_row_check_adjust_kernelifPfS_S_iS_
libmagma.so:_Z50__device_stub__magma_sswap_scal_inverseblock_loweriiiPfiS_i
libmagma.so:_Z50__device_stub__magma_zswap_scal_inverseblock_loweriiiP18magmaDoubleComplexiS0_i
libmagma.so:_Z50__device_stub__magmablas_csscal_inverseblock_lowerPK17magmaFloatComplexiPS_i
libmagma.so:_Z50__device_stub__magmablas_csscal_inverseblock_upperPK17magmaFloatComplexiPS_i
libmagma.so:_Z50__device_stub__magmablas_zdscal_inverseblock_lowerPK18magmaDoubleComplexiPS_i
libmagma.so:_Z50__device_stub__magmablas_zdscal_inverseblock_upperPK18magmaDoubleComplexiPS_i
libmagma.so:_Z50__device_stub__slarft_strmv_sm32x32_kernel_batchediiPPfS0_iS0_i
libmagma.so:_Z50__device_stub__sscal_sger_1d_generic_kernel_nativeiiPfiPiii
libmagma.so:_Z50__device_stub__zlarft_ztrmv_sm32x32_kernel_batchediiPP18magmaDoubleComplexS1_iS1_i
libmagma.so:_Z51__device_stub__cherk_small_reduce_scale_beta_kernel12magma_uplo_ti17magmaFloatComplexPS0_i
libmagma.so:_Z51__device_stub__cscal_cgeru_1d_generic_kernel_nativeiiP17magmaFloatComplexiPiii
libmagma.so:_Z51__device_stub__dscal_dger_1d_generic_kernel_batchediiPPdiiiPiii
libmagma.so:_Z51__device_stub__dsyrk_small_reduce_scale_beta_kernel12magma_uplo_tidPdi
libmagma.so:_Z51__device_stub__magma_dznrm2_row_check_adjust_kernelidPdS_P18magmaDoubleComplexiS_
libmagma.so:_Z51__device_stub__magma_scnrm2_row_check_adjust_kernelifPfS_P17magmaFloatComplexiS_
libmagma.so:_Z51__device_stub__sscal_sger_1d_generic_kernel_batchediiPPfiiiPiii
libmagma.so:_Z51__device_stub__ssyrk_small_reduce_scale_beta_kernel12magma_uplo_tifPfi
libmagma.so:_Z51__device_stub__zcomputecolumn_kernel_shared_batchediiiPP17magmaFloatComplexiiiPPiS2_i
libmagma.so:_Z51__device_stub__zcomputecolumn_kernel_shared_batchediiiPP18magmaDoubleComplexiiiPPiS2_i
libmagma.so:_Z51__device_stub__zcomputecolumn_kernel_shared_batchediiiPPdiiiPPiS1_i
libmagma.so:_Z51__device_stub__zcomputecolumn_kernel_shared_batchediiiPPfiiiPPiS1_i
libmagma.so:_Z51__device_stub__zherk_small_reduce_scale_beta_kernel12magma_uplo_ti18magmaDoubleComplexPS0_i
libmagma.so:_Z51__device_stub__zscal_zgeru_1d_generic_kernel_nativeiiP18magmaDoubleComplexiPiii
libmagma.so:_Z51magmablas_celementary_multiplication_kernel_batchediPP17magmaFloatComplexiiS0_iS0_i
libmagma.so:_Z51magmablas_delementary_multiplication_kernel_batchediPPdiiS_iS_i
libmagma.so:_Z51magmablas_selementary_multiplication_kernel_batchediPPfiiS_iS_i
libmagma.so:_Z51magmablas_zelementary_multiplication_kernel_batchediPP18magmaDoubleComplexiiS0_iS0_i
libmagma.so:_Z52__device_stub__claswp_left_rowserial_kernel_vbatchediPiS_PP17magmaFloatComplexiiS_PS_iii
libmagma.so:_Z52__device_stub__cpotf2_smlpin_anywidth_kernel_batchediPP17magmaFloatComplexiiiiiPii
libmagma.so:_Z52__device_stub__cpotf2_smlpin_fixwidth_kernel_batchediPP17magmaFloatComplexiiiiiPii
libmagma.so:_Z52__device_stub__cscal_cgeru_1d_generic_kernel_batchediiPP17magmaFloatComplexiiiPiii
libmagma.so:_Z52__device_stub__dlaswp_left_rowserial_kernel_vbatchediPiS_PPdiiS_PS_iii
libmagma.so:_Z52__device_stub__dpotf2_smlpin_anywidth_kernel_batchediPPdiiiiiPii
libmagma.so:_Z52__device_stub__dpotf2_smlpin_fixwidth_kernel_batchediPPdiiiiiPii
libmagma.so:_Z52__device_stub__dscal_dger_1d_generic_kernel_vbatchediiPiS_PPdiiS_S_ii
libmagma.so:_Z52__device_stub__slaswp_left_rowserial_kernel_vbatchediPiS_PPfiiS_PS_iii
libmagma.so:_Z52__device_stub__spotf2_smlpin_anywidth_kernel_batchediPPfiiiiiPii
libmagma.so:_Z52__device_stub__spotf2_smlpin_fixwidth_kernel_batchediPPfiiiiiPii
libmagma.so:_Z52__device_stub__sscal_sger_1d_generic_kernel_vbatchediiPiS_PPfiiS_S_ii
libmagma.so:_Z52__device_stub__zlaswp_left_rowserial_kernel_vbatchediPiS_PP18magmaDoubleComplexiiS_PS_iii
libmagma.so:_Z52__device_stub__zpotf2_smlpin_anywidth_kernel_batchediPP18magmaDoubleComplexiiiiiPii
libmagma.so:_Z52__device_stub__zpotf2_smlpin_fixwidth_kernel_batchediPP18magmaDoubleComplexiiiiiPii
libmagma.so:_Z52__device_stub__zscal_zgeru_1d_generic_kernel_batchediiPP18magmaDoubleComplexiiiPiii
libmagma.so:_Z53__device_stub__clarft_gemv_loop_inside_kernel_batchediiPP17magmaFloatComplexS1_iS1_i
libmagma.so:_Z53__device_stub__clarft_recctrmv_sm32x32_kernel_batchediiPP17magmaFloatComplexS1_iS1_i
libmagma.so:_Z53__device_stub__claswp_right_rowserial_kernel_vbatchediPiS_PP17magmaFloatComplexiiS_PS_iii
libmagma.so:_Z53__device_stub__cpotf2_smlpout_anywidth_kernel_batchediiPP17magmaFloatComplexiiiiiPii
libmagma.so:_Z53__device_stub__cpotf2_smlpout_fixwidth_kernel_batchediPP17magmaFloatComplexiiiiiPii
libmagma.so:_Z53__device_stub__cscal_cgeru_1d_generic_kernel_vbatchediiPiS_PP17magmaFloatComplexiiS_S_ii
libmagma.so:_Z53__device_stub__dlarft_gemv_loop_inside_kernel_batchediiPPdS0_iS0_i
libmagma.so:_Z53__device_stub__dlarft_recdtrmv_sm32x32_kernel_batchediiPPdS0_iS0_i
libmagma.so:_Z53__device_stub__dlaswp_right_rowserial_kernel_vbatchediPiS_PPdiiS_PS_iii
libmagma.so:_Z53__device_stub__dpotf2_smlpout_anywidth_kernel_batchediiPPdiiiiiPii
libmagma.so:_Z53__device_stub__dpotf2_smlpout_fixwidth_kernel_batchediPPdiiiiiPii
libmagma.so:_Z53__device_stub__magmablas_capply_vector_kernel_batchediP17magmaFloatComplexiPS0_i
libmagma.so:_Z53__device_stub__magmablas_dapply_vector_kernel_batchediPdiPS_i
libmagma.so:_Z53__device_stub__magmablas_sapply_vector_kernel_batchediPfiPS_i
libmagma.so:_Z53__device_stub__magmablas_zapply_vector_kernel_batchediP18magmaDoubleComplexiPS0_i
libmagma.so:_Z53__device_stub__slarft_gemv_loop_inside_kernel_batchediiPPfS0_iS0_i
libmagma.so:_Z53__device_stub__slarft_recstrmv_sm32x32_kernel_batchediiPPfS0_iS0_i
libmagma.so:_Z53__device_stub__slaswp_right_rowserial_kernel_vbatchediPiS_PPfiiS_PS_iii
libmagma.so:_Z53__device_stub__spotf2_smlpout_anywidth_kernel_batchediiPPfiiiiiPii
libmagma.so:_Z53__device_stub__spotf2_smlpout_fixwidth_kernel_batchediPPfiiiiiPii
libmagma.so:_Z53__device_stub__zlarft_gemv_loop_inside_kernel_batchediiPP18magmaDoubleComplexS1_iS1_i
libmagma.so:_Z53__device_stub__zlarft_recztrmv_sm32x32_kernel_batchediiPP18magmaDoubleComplexS1_iS1_i
libmagma.so:_Z53__device_stub__zlaswp_right_rowserial_kernel_vbatchediPiS_PP18magmaDoubleComplexiiS_PS_iii
libmagma.so:_Z53__device_stub__zpotf2_smlpout_anywidth_kernel_batchediiPP18magmaDoubleComplexiiiiiPii
libmagma.so:_Z53__device_stub__zpotf2_smlpout_fixwidth_kernel_batchediPP18magmaDoubleComplexiiiiiPii
libmagma.so:_Z53__device_stub__zscal_zgeru_1d_generic_kernel_vbatchediiPiS_PP18magmaDoubleComplexiiS_S_ii
libmagma.so:_Z54__device_stub__triple_cgemm_above64_part1_lower_kerneliPK17magmaFloatComplexiPS_ii
libmagma.so:_Z54__device_stub__triple_cgemm_above64_part1_upper_kerneliPK17magmaFloatComplexiPS_ii
libmagma.so:_Z54__device_stub__triple_cgemm_above64_part2_lower_kerneliPK17magmaFloatComplexiPS_ii
libmagma.so:_Z54__device_stub__triple_cgemm_above64_part2_upper_kerneliPK17magmaFloatComplexiPS_ii
libmagma.so:_Z54__device_stub__triple_cgemm_above64_part3_lower_kerneliPK17magmaFloatComplexiPS_ii
libmagma.so:_Z54__device_stub__triple_cgemm_above64_part3_upper_kerneliPK17magmaFloatComplexiPS_ii
libmagma.so:_Z54__device_stub__triple_dgemm_above64_part1_lower_kerneliPKdiPdii
libmagma.so:_Z54__device_stub__triple_dgemm_above64_part1_upper_kerneliPKdiPdii
libmagma.so:_Z54__device_stub__triple_dgemm_above64_part2_lower_kerneliPKdiPdii
libmagma.so:_Z54__device_stub__triple_dgemm_above64_part2_upper_kerneliPKdiPdii
libmagma.so:_Z54__device_stub__triple_dgemm_above64_part3_lower_kerneliPKdiPdii
libmagma.so:_Z54__device_stub__triple_dgemm_above64_part3_upper_kerneliPKdiPdii
libmagma.so:_Z54__device_stub__triple_sgemm_above64_part1_lower_kerneliPKfiPfii
libmagma.so:_Z54__device_stub__triple_sgemm_above64_part1_upper_kerneliPKfiPfii
libmagma.so:_Z54__device_stub__triple_sgemm_above64_part2_lower_kerneliPKfiPfii
libmagma.so:_Z54__device_stub__triple_sgemm_above64_part2_upper_kerneliPKfiPfii
libmagma.so:_Z54__device_stub__triple_sgemm_above64_part3_lower_kerneliPKfiPfii
libmagma.so:_Z54__device_stub__triple_sgemm_above64_part3_upper_kerneliPKfiPfii
libmagma.so:_Z54__device_stub__triple_zgemm_above64_part1_lower_kerneliPK18magmaDoubleComplexiPS_ii
libmagma.so:_Z54__device_stub__triple_zgemm_above64_part1_upper_kerneliPK18magmaDoubleComplexiPS_ii
libmagma.so:_Z54__device_stub__triple_zgemm_above64_part2_lower_kerneliPK18magmaDoubleComplexiPS_ii
libmagma.so:_Z54__device_stub__triple_zgemm_above64_part2_upper_kerneliPK18magmaDoubleComplexiPS_ii
libmagma.so:_Z54__device_stub__triple_zgemm_above64_part3_lower_kerneliPK18magmaDoubleComplexiPS_ii
libmagma.so:_Z54__device_stub__triple_zgemm_above64_part3_upper_kerneliPK18magmaDoubleComplexiPS_ii
libmagma.so:_Z55__device_stub__magmablas_capply_transpose_vector_kerneliP17magmaFloatComplexiS0_i
libmagma.so:_Z55__device_stub__magmablas_dapply_transpose_vector_kerneliPdiS_i
libmagma.so:_Z55__device_stub__magmablas_sapply_transpose_vector_kerneliPfiS_i
libmagma.so:_Z55__device_stub__magmablas_zapply_transpose_vector_kerneliP18magmaDoubleComplexiS0_i
libmagma.so:_Z56__device_stub__triple_cgemm16_part1_lower_kernel_batchediPKPK17magmaFloatComplexiPPS_ii
libmagma.so:_Z56__device_stub__triple_cgemm16_part1_upper_kernel_batchediPKPK17magmaFloatComplexiPPS_ii
libmagma.so:_Z56__device_stub__triple_cgemm16_part2_lower_kernel_batchediPKPK17magmaFloatComplexiPPS_ii
libmagma.so:_Z56__device_stub__triple_cgemm16_part2_upper_kernel_batchediPKPK17magmaFloatComplexiPPS_ii
libmagma.so:_Z56__device_stub__triple_cgemm32_part1_lower_kernel_batchediPKPK17magmaFloatComplexiPPS_ii
libmagma.so:_Z56__device_stub__triple_cgemm32_part1_upper_kernel_batchediPKPK17magmaFloatComplexiPPS_ii
libmagma.so:_Z56__device_stub__triple_cgemm32_part2_lower_kernel_batchediPKPK17magmaFloatComplexiPPS_ii
libmagma.so:_Z56__device_stub__triple_cgemm32_part2_upper_kernel_batchediPKPK17magmaFloatComplexiPPS_ii
libmagma.so:_Z56__device_stub__triple_cgemm64_part1_lower_kernel_batchediPKPK17magmaFloatComplexiPPS_ii
libmagma.so:_Z56__device_stub__triple_cgemm64_part1_upper_kernel_batchediPKPK17magmaFloatComplexiPPS_ii
libmagma.so:_Z56__device_stub__triple_cgemm64_part2_lower_kernel_batchediPKPK17magmaFloatComplexiPPS_ii
libmagma.so:_Z56__device_stub__triple_cgemm64_part2_upper_kernel_batchediPKPK17magmaFloatComplexiPPS_ii
libmagma.so:_Z56__device_stub__triple_dgemm16_part1_lower_kernel_batchediPKPKdiPPdii
libmagma.so:_Z56__device_stub__triple_dgemm16_part1_upper_kernel_batchediPKPKdiPPdii
libmagma.so:_Z56__device_stub__triple_dgemm16_part2_lower_kernel_batchediPKPKdiPPdii
libmagma.so:_Z56__device_stub__triple_dgemm16_part2_upper_kernel_batchediPKPKdiPPdii
libmagma.so:_Z56__device_stub__triple_dgemm32_part1_lower_kernel_batchediPKPKdiPPdii
libmagma.so:_Z56__device_stub__triple_dgemm32_part1_upper_kernel_batchediPKPKdiPPdii
libmagma.so:_Z56__device_stub__triple_dgemm32_part2_lower_kernel_batchediPKPKdiPPdii
libmagma.so:_Z56__device_stub__triple_dgemm32_part2_upper_kernel_batchediPKPKdiPPdii
libmagma.so:_Z56__device_stub__triple_dgemm64_part1_lower_kernel_batchediPKPKdiPPdii
libmagma.so:_Z56__device_stub__triple_dgemm64_part1_upper_kernel_batchediPKPKdiPPdii
libmagma.so:_Z56__device_stub__triple_dgemm64_part2_lower_kernel_batchediPKPKdiPPdii
libmagma.so:_Z56__device_stub__triple_dgemm64_part2_upper_kernel_batchediPKPKdiPPdii
libmagma.so:_Z56__device_stub__triple_sgemm16_part1_lower_kernel_batchediPKPKfiPPfii
libmagma.so:_Z56__device_stub__triple_sgemm16_part1_upper_kernel_batchediPKPKfiPPfii
libmagma.so:_Z56__device_stub__triple_sgemm16_part2_lower_kernel_batchediPKPKfiPPfii
libmagma.so:_Z56__device_stub__triple_sgemm16_part2_upper_kernel_batchediPKPKfiPPfii
libmagma.so:_Z56__device_stub__triple_sgemm32_part1_lower_kernel_batchediPKPKfiPPfii
libmagma.so:_Z56__device_stub__triple_sgemm32_part1_upper_kernel_batchediPKPKfiPPfii
libmagma.so:_Z56__device_stub__triple_sgemm32_part2_lower_kernel_batchediPKPKfiPPfii
libmagma.so:_Z56__device_stub__triple_sgemm32_part2_upper_kernel_batchediPKPKfiPPfii
libmagma.so:_Z56__device_stub__triple_sgemm64_part1_lower_kernel_batchediPKPKfiPPfii
libmagma.so:_Z56__device_stub__triple_sgemm64_part1_upper_kernel_batchediPKPKfiPPfii
libmagma.so:_Z56__device_stub__triple_sgemm64_part2_lower_kernel_batchediPKPKfiPPfii
libmagma.so:_Z56__device_stub__triple_sgemm64_part2_upper_kernel_batchediPKPKfiPPfii
libmagma.so:_Z56__device_stub__triple_zgemm16_part1_lower_kernel_batchediPKPK18magmaDoubleComplexiPPS_ii
libmagma.so:_Z56__device_stub__triple_zgemm16_part1_upper_kernel_batchediPKPK18magmaDoubleComplexiPPS_ii
libmagma.so:_Z56__device_stub__triple_zgemm16_part2_lower_kernel_batchediPKPK18magmaDoubleComplexiPPS_ii
libmagma.so:_Z56__device_stub__triple_zgemm16_part2_upper_kernel_batchediPKPK18magmaDoubleComplexiPPS_ii
libmagma.so:_Z56__device_stub__triple_zgemm32_part1_lower_kernel_batchediPKPK18magmaDoubleComplexiPPS_ii
libmagma.so:_Z56__device_stub__triple_zgemm32_part1_upper_kernel_batchediPKPK18magmaDoubleComplexiPPS_ii
libmagma.so:_Z56__device_stub__triple_zgemm32_part2_lower_kernel_batchediPKPK18magmaDoubleComplexiPPS_ii
libmagma.so:_Z56__device_stub__triple_zgemm32_part2_upper_kernel_batchediPKPK18magmaDoubleComplexiPPS_ii
libmagma.so:_Z56__device_stub__triple_zgemm64_part1_lower_kernel_batchediPKPK18magmaDoubleComplexiPPS_ii
libmagma.so:_Z56__device_stub__triple_zgemm64_part1_upper_kernel_batchediPKPK18magmaDoubleComplexiPPS_ii
libmagma.so:_Z56__device_stub__triple_zgemm64_part2_lower_kernel_batchediPKPK18magmaDoubleComplexiPPS_ii
libmagma.so:_Z56__device_stub__triple_zgemm64_part2_upper_kernel_batchediPKPK18magmaDoubleComplexiPPS_ii
libmagma.so:_Z57__device_stub__triple_cgemm16_part1_lower_kernel_vbatchedPiPKPK17magmaFloatComplexS_PPS0_ii
libmagma.so:_Z57__device_stub__triple_cgemm16_part1_upper_kernel_vbatchedPiPKPK17magmaFloatComplexS_PPS0_ii
libmagma.so:_Z57__device_stub__triple_cgemm16_part2_lower_kernel_vbatchedPiPKPK17magmaFloatComplexS_PPS0_ii
libmagma.so:_Z57__device_stub__triple_cgemm16_part2_upper_kernel_vbatchedPiPKPK17magmaFloatComplexS_PPS0_ii
libmagma.so:_Z57__device_stub__triple_cgemm32_part1_lower_kernel_vbatchedPiPKPK17magmaFloatComplexS_PPS0_ii
libmagma.so:_Z57__device_stub__triple_cgemm32_part1_upper_kernel_vbatchedPiPKPK17magmaFloatComplexS_PPS0_ii
libmagma.so:_Z57__device_stub__triple_cgemm32_part2_lower_kernel_vbatchedPiPKPK17magmaFloatComplexS_PPS0_ii
libmagma.so:_Z57__device_stub__triple_cgemm32_part2_upper_kernel_vbatchedPiPKPK17magmaFloatComplexS_PPS0_ii
libmagma.so:_Z57__device_stub__triple_cgemm64_part1_lower_kernel_vbatchedPiPKPK17magmaFloatComplexS_PPS0_ii
libmagma.so:_Z57__device_stub__triple_cgemm64_part1_upper_kernel_vbatchedPiPKPK17magmaFloatComplexS_PPS0_ii
libmagma.so:_Z57__device_stub__triple_cgemm64_part2_lower_kernel_vbatchedPiPKPK17magmaFloatComplexS_PPS0_ii
libmagma.so:_Z57__device_stub__triple_cgemm64_part2_upper_kernel_vbatchedPiPKPK17magmaFloatComplexS_PPS0_ii
libmagma.so:_Z57__device_stub__triple_dgemm16_part1_lower_kernel_vbatchedPiPKPKdS_PPdii
libmagma.so:_Z57__device_stub__triple_dgemm16_part1_upper_kernel_vbatchedPiPKPKdS_PPdii
libmagma.so:_Z57__device_stub__triple_dgemm16_part2_lower_kernel_vbatchedPiPKPKdS_PPdii
libmagma.so:_Z57__device_stub__triple_dgemm16_part2_upper_kernel_vbatchedPiPKPKdS_PPdii
libmagma.so:_Z57__device_stub__triple_dgemm32_part1_lower_kernel_vbatchedPiPKPKdS_PPdii
libmagma.so:_Z57__device_stub__triple_dgemm32_part1_upper_kernel_vbatchedPiPKPKdS_PPdii
libmagma.so:_Z57__device_stub__triple_dgemm32_part2_lower_kernel_vbatchedPiPKPKdS_PPdii
libmagma.so:_Z57__device_stub__triple_dgemm32_part2_upper_kernel_vbatchedPiPKPKdS_PPdii
libmagma.so:_Z57__device_stub__triple_dgemm64_part1_lower_kernel_vbatchedPiPKPKdS_PPdii
libmagma.so:_Z57__device_stub__triple_dgemm64_part1_upper_kernel_vbatchedPiPKPKdS_PPdii
libmagma.so:_Z57__device_stub__triple_dgemm64_part2_lower_kernel_vbatchedPiPKPKdS_PPdii
libmagma.so:_Z57__device_stub__triple_dgemm64_part2_upper_kernel_vbatchedPiPKPKdS_PPdii
libmagma.so:_Z57__device_stub__triple_sgemm16_part1_lower_kernel_vbatchedPiPKPKfS_PPfii
libmagma.so:_Z57__device_stub__triple_sgemm16_part1_upper_kernel_vbatchedPiPKPKfS_PPfii
libmagma.so:_Z57__device_stub__triple_sgemm16_part2_lower_kernel_vbatchedPiPKPKfS_PPfii
libmagma.so:_Z57__device_stub__triple_sgemm16_part2_upper_kernel_vbatchedPiPKPKfS_PPfii
libmagma.so:_Z57__device_stub__triple_sgemm32_part1_lower_kernel_vbatchedPiPKPKfS_PPfii
libmagma.so:_Z57__device_stub__triple_sgemm32_part1_upper_kernel_vbatchedPiPKPKfS_PPfii
libmagma.so:_Z57__device_stub__triple_sgemm32_part2_lower_kernel_vbatchedPiPKPKfS_PPfii
libmagma.so:_Z57__device_stub__triple_sgemm32_part2_upper_kernel_vbatchedPiPKPKfS_PPfii
libmagma.so:_Z57__device_stub__triple_sgemm64_part1_lower_kernel_vbatchedPiPKPKfS_PPfii
libmagma.so:_Z57__device_stub__triple_sgemm64_part1_upper_kernel_vbatchedPiPKPKfS_PPfii
libmagma.so:_Z57__device_stub__triple_sgemm64_part2_lower_kernel_vbatchedPiPKPKfS_PPfii
libmagma.so:_Z57__device_stub__triple_sgemm64_part2_upper_kernel_vbatchedPiPKPKfS_PPfii
libmagma.so:_Z57__device_stub__triple_zgemm16_part1_lower_kernel_vbatchedPiPKPK18magmaDoubleComplexS_PPS0_ii
libmagma.so:_Z57__device_stub__triple_zgemm16_part1_upper_kernel_vbatchedPiPKPK18magmaDoubleComplexS_PPS0_ii
libmagma.so:_Z57__device_stub__triple_zgemm16_part2_lower_kernel_vbatchedPiPKPK18magmaDoubleComplexS_PPS0_ii
libmagma.so:_Z57__device_stub__triple_zgemm16_part2_upper_kernel_vbatchedPiPKPK18magmaDoubleComplexS_PPS0_ii
libmagma.so:_Z57__device_stub__triple_zgemm32_part1_lower_kernel_vbatchedPiPKPK18magmaDoubleComplexS_PPS0_ii
libmagma.so:_Z57__device_stub__triple_zgemm32_part1_upper_kernel_vbatchedPiPKPK18magmaDoubleComplexS_PPS0_ii
libmagma.so:_Z57__device_stub__triple_zgemm32_part2_lower_kernel_vbatchedPiPKPK18magmaDoubleComplexS_PPS0_ii
libmagma.so:_Z57__device_stub__triple_zgemm32_part2_upper_kernel_vbatchedPiPKPK18magmaDoubleComplexS_PPS0_ii
libmagma.so:_Z57__device_stub__triple_zgemm64_part1_lower_kernel_vbatchedPiPKPK18magmaDoubleComplexS_PPS0_ii
libmagma.so:_Z57__device_stub__triple_zgemm64_part1_upper_kernel_vbatchedPiPKPK18magmaDoubleComplexS_PPS0_ii
libmagma.so:_Z57__device_stub__triple_zgemm64_part2_lower_kernel_vbatchedPiPKPK18magmaDoubleComplexS_PPS0_ii
libmagma.so:_Z57__device_stub__triple_zgemm64_part2_upper_kernel_vbatchedPiPKPK18magmaDoubleComplexS_PPS0_ii
libmagma.so:_Z58__device_stub__magmablas_celementary_multiplication_kerneliP17magmaFloatComplexiiS0_iS0_i
libmagma.so:_Z58__device_stub__magmablas_delementary_multiplication_kerneliPdiiS_iS_i
libmagma.so:_Z58__device_stub__magmablas_selementary_multiplication_kerneliPfiiS_iS_i
libmagma.so:_Z58__device_stub__magmablas_zelementary_multiplication_kerneliP18magmaDoubleComplexiiS0_iS0_i
libmagma.so:_Z62__device_stub__triple_cgemm_above64_part1_lower_kernel_batchediPKPK17magmaFloatComplexiPPS_ii
libmagma.so:_Z62__device_stub__triple_cgemm_above64_part1_upper_kernel_batchediPKPK17magmaFloatComplexiPPS_ii
libmagma.so:_Z62__device_stub__triple_cgemm_above64_part2_lower_kernel_batchediPKPK17magmaFloatComplexiPPS_ii
libmagma.so:_Z62__device_stub__triple_cgemm_above64_part2_upper_kernel_batchediPKPK17magmaFloatComplexiPPS_ii
libmagma.so:_Z62__device_stub__triple_cgemm_above64_part3_lower_kernel_batchediPKPK17magmaFloatComplexiPPS_ii
libmagma.so:_Z62__device_stub__triple_cgemm_above64_part3_upper_kernel_batchediPKPK17magmaFloatComplexiPPS_ii
libmagma.so:_Z62__device_stub__triple_dgemm_above64_part1_lower_kernel_batchediPKPKdiPPdii
libmagma.so:_Z62__device_stub__triple_dgemm_above64_part1_upper_kernel_batchediPKPKdiPPdii
libmagma.so:_Z62__device_stub__triple_dgemm_above64_part2_lower_kernel_batchediPKPKdiPPdii
libmagma.so:_Z62__device_stub__triple_dgemm_above64_part2_upper_kernel_batchediPKPKdiPPdii
libmagma.so:_Z62__device_stub__triple_dgemm_above64_part3_lower_kernel_batchediPKPKdiPPdii
libmagma.so:_Z62__device_stub__triple_dgemm_above64_part3_upper_kernel_batchediPKPKdiPPdii
libmagma.so:_Z62__device_stub__triple_sgemm_above64_part1_lower_kernel_batchediPKPKfiPPfii
libmagma.so:_Z62__device_stub__triple_sgemm_above64_part1_upper_kernel_batchediPKPKfiPPfii
libmagma.so:_Z62__device_stub__triple_sgemm_above64_part2_lower_kernel_batchediPKPKfiPPfii
libmagma.so:_Z62__device_stub__triple_sgemm_above64_part2_upper_kernel_batchediPKPKfiPPfii
libmagma.so:_Z62__device_stub__triple_sgemm_above64_part3_lower_kernel_batchediPKPKfiPPfii
libmagma.so:_Z62__device_stub__triple_sgemm_above64_part3_upper_kernel_batchediPKPKfiPPfii
libmagma.so:_Z62__device_stub__triple_zgemm_above64_part1_lower_kernel_batchediPKPK18magmaDoubleComplexiPPS_ii
libmagma.so:_Z62__device_stub__triple_zgemm_above64_part1_upper_kernel_batchediPKPK18magmaDoubleComplexiPPS_ii
libmagma.so:_Z62__device_stub__triple_zgemm_above64_part2_lower_kernel_batchediPKPK18magmaDoubleComplexiPPS_ii
libmagma.so:_Z62__device_stub__triple_zgemm_above64_part2_upper_kernel_batchediPKPK18magmaDoubleComplexiPPS_ii
libmagma.so:_Z62__device_stub__triple_zgemm_above64_part3_lower_kernel_batchediPKPK18magmaDoubleComplexiPPS_ii
libmagma.so:_Z62__device_stub__triple_zgemm_above64_part3_upper_kernel_batchediPKPK18magmaDoubleComplexiPPS_ii
libmagma.so:_Z63__device_stub__magmablas_capply_transpose_vector_kernel_batchediP17magmaFloatComplexiPS0_i
libmagma.so:_Z63__device_stub__magmablas_dapply_transpose_vector_kernel_batchediPdiPS_i
libmagma.so:_Z63__device_stub__magmablas_sapply_transpose_vector_kernel_batchediPfiPS_i
libmagma.so:_Z63__device_stub__magmablas_zapply_transpose_vector_kernel_batchediP18magmaDoubleComplexiPS0_i
libmagma.so:_Z63__device_stub__triple_cgemm_above64_part1_lower_kernel_vbatchedPiPKPK17magmaFloatComplexS_PPS0_ii
libmagma.so:_Z63__device_stub__triple_cgemm_above64_part1_upper_kernel_vbatchedPiPKPK17magmaFloatComplexS_PPS0_ii
libmagma.so:_Z63__device_stub__triple_cgemm_above64_part2_lower_kernel_vbatchedPiPKPK17magmaFloatComplexS_PPS0_ii
libmagma.so:_Z63__device_stub__triple_cgemm_above64_part2_upper_kernel_vbatchedPiPKPK17magmaFloatComplexS_PPS0_ii
libmagma.so:_Z63__device_stub__triple_cgemm_above64_part3_lower_kernel_vbatchedPiPKPK17magmaFloatComplexS_PPS0_ii
libmagma.so:_Z63__device_stub__triple_cgemm_above64_part3_upper_kernel_vbatchedPiPKPK17magmaFloatComplexS_PPS0_ii
libmagma.so:_Z63__device_stub__triple_dgemm_above64_part1_lower_kernel_vbatchedPiPKPKdS_PPdii
libmagma.so:_Z63__device_stub__triple_dgemm_above64_part1_upper_kernel_vbatchedPiPKPKdS_PPdii
libmagma.so:_Z63__device_stub__triple_dgemm_above64_part2_lower_kernel_vbatchedPiPKPKdS_PPdii
libmagma.so:_Z63__device_stub__triple_dgemm_above64_part2_upper_kernel_vbatchedPiPKPKdS_PPdii
libmagma.so:_Z63__device_stub__triple_dgemm_above64_part3_lower_kernel_vbatchedPiPKPKdS_PPdii
libmagma.so:_Z63__device_stub__triple_dgemm_above64_part3_upper_kernel_vbatchedPiPKPKdS_PPdii
libmagma.so:_Z63__device_stub__triple_sgemm_above64_part1_lower_kernel_vbatchedPiPKPKfS_PPfii
libmagma.so:_Z63__device_stub__triple_sgemm_above64_part1_upper_kernel_vbatchedPiPKPKfS_PPfii
libmagma.so:_Z63__device_stub__triple_sgemm_above64_part2_lower_kernel_vbatchedPiPKPKfS_PPfii
libmagma.so:_Z63__device_stub__triple_sgemm_above64_part2_upper_kernel_vbatchedPiPKPKfS_PPfii
libmagma.so:_Z63__device_stub__triple_sgemm_above64_part3_lower_kernel_vbatchedPiPKPKfS_PPfii
libmagma.so:_Z63__device_stub__triple_sgemm_above64_part3_upper_kernel_vbatchedPiPKPKfS_PPfii
libmagma.so:_Z63__device_stub__triple_zgemm_above64_part1_lower_kernel_vbatchedPiPKPK18magmaDoubleComplexS_PPS0_ii
libmagma.so:_Z63__device_stub__triple_zgemm_above64_part1_upper_kernel_vbatchedPiPKPK18magmaDoubleComplexS_PPS0_ii
libmagma.so:_Z63__device_stub__triple_zgemm_above64_part2_lower_kernel_vbatchedPiPKPK18magmaDoubleComplexS_PPS0_ii
libmagma.so:_Z63__device_stub__triple_zgemm_above64_part2_upper_kernel_vbatchedPiPKPK18magmaDoubleComplexS_PPS0_ii
libmagma.so:_Z63__device_stub__triple_zgemm_above64_part3_lower_kernel_vbatchedPiPKPK18magmaDoubleComplexS_PPS0_ii
libmagma.so:_Z63__device_stub__triple_zgemm_above64_part3_upper_kernel_vbatchedPiPKPK18magmaDoubleComplexS_PPS0_ii
libmagma.so:_Z66__device_stub__magmablas_celementary_multiplication_kernel_batchediPP17magmaFloatComplexiiS0_iS0_i
libmagma.so:_Z66__device_stub__magmablas_delementary_multiplication_kernel_batchediPPdiiS_iS_i
libmagma.so:_Z66__device_stub__magmablas_selementary_multiplication_kernel_batchediPPfiiS_iS_i
libmagma.so:_Z66__device_stub__magmablas_zelementary_multiplication_kernel_batchediPP18magmaDoubleComplexiiS0_iS0_i
libmagma.so:_Z7cherk_d12magma_uplo_tii17magmaFloatComplexPS0_iS0_S1_iS1_i
libmagma.so:_Z7csyrk_d12magma_uplo_tii17magmaFloatComplexPS0_iS0_S1_iS1_i
libmagma.so:_Z7dsyrk_d12magma_uplo_tiidPdidS0_iS0_i
libmagma.so:_Z7ssyrk_d12magma_uplo_tiifPfifS0_iS0_i
libmagma.so:_Z7zherk_d12magma_uplo_tii18magmaDoubleComplexPS0_iS0_S1_iS1_i
libmagma.so:_Z7zsyrk_d12magma_uplo_tii18magmaDoubleComplexPS0_iS0_S1_iS1_i
libmagma.so:_ZN12affinity_set12get_affinityEv
libmagma.so:_ZN12affinity_set12set_affinityEv
libmagma.so:_ZN12affinity_set14print_affinityEiPKc
libmagma.so:_ZN12affinity_set3addEi
libmagma.so:_ZN12affinity_set9print_setEiPKc
libmagma.so:_ZN12affinity_setC1Ei
libmagma.so:_ZN12affinity_setC1Ev
libmagma.so:_ZN12affinity_setC2Ei
libmagma.so:_ZN12affinity_setC2Ev
libmagma.so:_ZN18magma_thread_queue4quitEv
libmagma.so:_ZN18magma_thread_queue4syncEv
libmagma.so:_ZN18magma_thread_queue6launchEi
libmagma.so:_ZN18magma_thread_queue8pop_taskEv
libmagma.so:_ZN18magma_thread_queue9push_taskEP10magma_task
libmagma.so:_ZN18magma_thread_queue9task_doneEv
libmagma.so:_ZN18magma_thread_queueC1Ev
libmagma.so:_ZN18magma_thread_queueC2Ev
libmagma.so:_ZN18magma_thread_queueD1Ev
libmagma.so:_ZN18magma_thread_queueD2Ev
libmagma.so:_ZNK18magma_thread_queue16get_thread_indexEm
libmagma.so:__device_stub__chemv_kernel_U
libmagma.so:__device_stub__chemv_kernel_U_mgpu
libmagma.so:__device_stub__chemv_kernel_U_mgpu_sum
libmagma.so:__device_stub__chemv_kernel_U_sum
libmagma.so:__device_stub__clange_fro_kernel
libmagma.so:__device_stub__clange_inf_kernel
libmagma.so:__device_stub__clange_max_kernel
libmagma.so:__device_stub__clange_one_kernel
libmagma.so:__device_stub__csymv_kernel_U
libmagma.so:__device_stub__csymv_kernel_U_sum
libmagma.so:__device_stub__dlange_fro_kernel
libmagma.so:__device_stub__dlange_inf_kernel
libmagma.so:__device_stub__dlange_max_kernel
libmagma.so:__device_stub__dlange_one_kernel
libmagma.so:__device_stub__dsymv_kernel_U
libmagma.so:__device_stub__dsymv_kernel_U_mgpu
libmagma.so:__device_stub__dsymv_kernel_U_mgpu_sum
libmagma.so:__device_stub__dsymv_kernel_U_sum
libmagma.so:__device_stub__magma_cgemv_kernel1
libmagma.so:__device_stub__magma_cgemv_kernel2
libmagma.so:__device_stub__magma_cgemv_kernel3
libmagma.so:__device_stub__magma_ctrmv_kernel
libmagma.so:__device_stub__magma_ctrmv_kernel2
libmagma.so:__device_stub__magma_ctrmv_tkernel
libmagma.so:__device_stub__magma_dgemv_kernel1
libmagma.so:__device_stub__magma_dgemv_kernel2
libmagma.so:__device_stub__magma_dgemv_kernel3
libmagma.so:__device_stub__magma_dnrm2_adjust_kernel
libmagma.so:__device_stub__magma_dtrmv_kernel
libmagma.so:__device_stub__magma_dtrmv_kernel2
libmagma.so:__device_stub__magma_dtrmv_tkernel
libmagma.so:__device_stub__magma_dznrm2_adjust_kernel
libmagma.so:__device_stub__magma_scnrm2_adjust_kernel
libmagma.so:__device_stub__magma_sgemv_kernel1
libmagma.so:__device_stub__magma_sgemv_kernel2
libmagma.so:__device_stub__magma_sgemv_kernel3
libmagma.so:__device_stub__magma_snrm2_adjust_kernel
libmagma.so:__device_stub__magma_strmv_kernel
libmagma.so:__device_stub__magma_strmv_kernel2
libmagma.so:__device_stub__magma_strmv_tkernel
libmagma.so:__device_stub__magma_zgemv_kernel1
libmagma.so:__device_stub__magma_zgemv_kernel2
libmagma.so:__device_stub__magma_zgemv_kernel3
libmagma.so:__device_stub__magma_ztrmv_kernel
libmagma.so:__device_stub__magma_ztrmv_kernel2
libmagma.so:__device_stub__magma_ztrmv_tkernel
libmagma.so:__device_stub__slange_fro_kernel
libmagma.so:__device_stub__slange_inf_kernel
libmagma.so:__device_stub__slange_max_kernel
libmagma.so:__device_stub__slange_one_kernel
libmagma.so:__device_stub__ssymv_kernel_U
libmagma.so:__device_stub__ssymv_kernel_U_mgpu
libmagma.so:__device_stub__ssymv_kernel_U_mgpu_sum
libmagma.so:__device_stub__ssymv_kernel_U_sum
libmagma.so:__device_stub__zhemv_kernel_U
libmagma.so:__device_stub__zhemv_kernel_U_mgpu
libmagma.so:__device_stub__zhemv_kernel_U_mgpu_sum
libmagma.so:__device_stub__zhemv_kernel_U_sum
libmagma.so:__device_stub__zlange_fro_kernel
libmagma.so:__device_stub__zlange_inf_kernel
libmagma.so:__device_stub__zlange_max_kernel
libmagma.so:__device_stub__zlange_one_kernel
libmagma.so:__device_stub__zsymv_kernel_U
libmagma.so:__device_stub__zsymv_kernel_U_sum
libmagma.so:__magma_MOD_magmaf_coff1d
libmagma.so:__magma_MOD_magmaf_coff2d
libmagma.so:__magma_MOD_magmaf_doff1d
libmagma.so:__magma_MOD_magmaf_doff2d
libmagma.so:__magma_MOD_magmaf_ioff1d
libmagma.so:__magma_MOD_magmaf_ioff2d
libmagma.so:__magma_MOD_magmaf_soff1d
libmagma.so:__magma_MOD_magmaf_soff2d
libmagma.so:__magma_MOD_magmaf_zoff1d
libmagma.so:__magma_MOD_magmaf_zoff2d
libmagma.so:adjust_ipiv
libmagma.so:adjust_ipiv_batched
libmagma.so:adjust_ipiv_vbatched
libmagma.so:blas_cgemm_batched
libmagma.so:blas_chemm_batched
libmagma.so:blas_cher2k_batched
libmagma.so:blas_cherk_batched
libmagma.so:blas_clacpy_batched
libmagma.so:blas_ctrmm_batched
libmagma.so:blas_ctrsm_batched
libmagma.so:blas_dgemm_batched
libmagma.so:blas_dlacpy_batched
libmagma.so:blas_dsymm_batched
libmagma.so:blas_dsyr2k_batched
libmagma.so:blas_dsyrk_batched
libmagma.so:blas_dtrmm_batched
libmagma.so:blas_dtrsm_batched
libmagma.so:blas_sgemm_batched
libmagma.so:blas_slacpy_batched
libmagma.so:blas_ssymm_batched
libmagma.so:blas_ssyr2k_batched
libmagma.so:blas_ssyrk_batched
libmagma.so:blas_strmm_batched
libmagma.so:blas_strsm_batched
libmagma.so:blas_zgemm_batched
libmagma.so:blas_zhemm_batched
libmagma.so:blas_zher2k_batched
libmagma.so:blas_zherk_batched
libmagma.so:blas_zlacpy_batched
libmagma.so:blas_ztrmm_batched
libmagma.so:blas_ztrsm_batched
libmagma.so:cgesdd_path
libmagma.so:cgesvd_path
libmagma.so:chemv_kernel_U
libmagma.so:chemv_kernel_U_mgpu
libmagma.so:chemv_kernel_U_mgpu_sum
libmagma.so:chemv_kernel_U_sum
libmagma.so:clange_fro_kernel
libmagma.so:clange_inf_kernel
libmagma.so:clange_max_kernel
libmagma.so:clange_one_kernel
libmagma.so:clanhe_inf
libmagma.so:clanhe_max
libmagma.so:claswp_sym
libmagma.so:cmp_vals
libmagma.so:csymv_kernel_U
libmagma.so:csymv_kernel_U_sum
libmagma.so:dgesdd_path
libmagma.so:dgesvd_path
libmagma.so:dlange_fro_kernel
libmagma.so:dlange_inf_kernel
libmagma.so:dlange_max_kernel
libmagma.so:dlange_one_kernel
libmagma.so:dlansy_inf
libmagma.so:dlansy_max
libmagma.so:dlaswp_sym
libmagma.so:dsymv_kernel_U
libmagma.so:dsymv_kernel_U_mgpu
libmagma.so:dsymv_kernel_U_mgpu_sum
libmagma.so:dsymv_kernel_U_sum
libmagma.so:findVTpos
libmagma.so:findVTsiz
libmagma.so:g_magma_devices
libmagma.so:g_magma_devices_cnt
libmagma.so:g_magma_queue_key
libmagma.so:g_null_queues
libmagma.so:hipblas_diag_const
libmagma.so:hipblas_side_const
libmagma.so:hipblas_trans_const
libmagma.so:hipblas_uplo_const
libmagma.so:lapack_bool_const
libmagma.so:lapack_const_str
libmagma.so:lapack_diag_const
libmagma.so:lapack_direct_const
libmagma.so:lapack_dist_const
libmagma.so:lapack_norm_const
libmagma.so:lapack_order_const
libmagma.so:lapack_pack_const
libmagma.so:lapack_range_const
libmagma.so:lapack_side_const
libmagma.so:lapack_storev_const
libmagma.so:lapack_sym_const
libmagma.so:lapack_trans_const
libmagma.so:lapack_uplo_const
libmagma.so:lapack_vec_const
libmagma.so:lapack_vect_const
libmagma.so:magma2lapack_constants
libmagma.so:magma_axpy_vbatched_checker
libmagma.so:magma_bool_const
libmagma.so:magma_buildconnection_mgpu
libmagma.so:magma_bulge_findVTAUTpos
libmagma.so:magma_bulge_findVTAUpos
libmagma.so:magma_bulge_findVTpos
libmagma.so:magma_bulge_findpos
libmagma.so:magma_bulge_findpos113
libmagma.so:magma_bulge_get_blkcnt
libmagma.so:magma_bulge_getlwstg1
libmagma.so:magma_c_isinf
libmagma.so:magma_c_isnan
libmagma.so:magma_c_isnan_inf
libmagma.so:magma_cabs
libmagma.so:magma_cabsf
libmagma.so:magma_caxpy
libmagma.so:magma_cblas_cdotc
libmagma.so:magma_cblas_cdotu
libmagma.so:magma_cblas_dasum
libmagma.so:magma_cblas_ddot
libmagma.so:magma_cblas_dnrm2
libmagma.so:magma_cblas_dzasum
libmagma.so:magma_cblas_dznrm2
libmagma.so:magma_cblas_sasum
libmagma.so:magma_cblas_scasum
libmagma.so:magma_cblas_scnrm2
libmagma.so:magma_cblas_sdot
libmagma.so:magma_cblas_snrm2
libmagma.so:magma_cblas_zdotc
libmagma.so:magma_cblas_zdotu
libmagma.so:magma_cbulge_applyQ_v2
libmagma.so:magma_cbulge_applyQ_v2_m
libmagma.so:magma_cbulge_back
libmagma.so:magma_cbulge_back_m
libmagma.so:magma_cbulge_getlwstg2
libmagma.so:magma_cbulge_getstg2size
libmagma.so:magma_ccomputecolumn_batched
libmagma.so:magma_ccopy
libmagma.so:magma_cdisplace_pointers
libmagma.so:magma_cdisplace_pointers_var_cc
libmagma.so:magma_cdisplace_pointers_var_cv
libmagma.so:magma_cdisplace_pointers_var_vc
libmagma.so:magma_cdisplace_pointers_var_vv
libmagma.so:magma_cdotc
libmagma.so:magma_cdotu
libmagma.so:magma_cdtohpo
libmagma.so:magma_cgbtrf_batched
libmagma.so:magma_cgebrd
libmagma.so:magma_cgeev
libmagma.so:magma_cgeev_m
libmagma.so:magma_cgegqr_gpu
libmagma.so:magma_cgehrd
libmagma.so:magma_cgehrd2
libmagma.so:magma_cgehrd_m
libmagma.so:magma_cgelqf
libmagma.so:magma_cgelqf_gpu
libmagma.so:magma_cgels
libmagma.so:magma_cgels3_gpu
libmagma.so:magma_cgels_gpu
libmagma.so:magma_cgemm
libmagma.so:magma_cgemm_batched
libmagma.so:magma_cgemm_batched_core
libmagma.so:magma_cgemv
libmagma.so:magma_cgemv_kernel1
libmagma.so:magma_cgemv_kernel2
libmagma.so:magma_cgemv_kernel3
libmagma.so:magma_cgeqlf
libmagma.so:magma_cgeqp3
libmagma.so:magma_cgeqp3_gpu
libmagma.so:magma_cgeqr2_batched
libmagma.so:magma_cgeqr2_gpu
libmagma.so:magma_cgeqr2x2_gpu
libmagma.so:magma_cgeqr2x3_gpu
libmagma.so:magma_cgeqr2x4_gpu
libmagma.so:magma_cgeqr2x_gpu
libmagma.so:magma_cgeqrf
libmagma.so:magma_cgeqrf2_gpu
libmagma.so:magma_cgeqrf2_mgpu
libmagma.so:magma_cgeqrf3_gpu
libmagma.so:magma_cgeqrf_batched
libmagma.so:magma_cgeqrf_batched_smallsq
libmagma.so:magma_cgeqrf_expert_batched
libmagma.so:magma_cgeqrf_gpu
libmagma.so:magma_cgeqrf_m
libmagma.so:magma_cgeqrf_ooc
libmagma.so:magma_cgeqrf_panel_batched
libmagma.so:magma_cgeqrs3_gpu
libmagma.so:magma_cgeqrs_gpu
libmagma.so:magma_cgerbt_batched
libmagma.so:magma_cgerbt_gpu
libmagma.so:magma_cgerc
libmagma.so:magma_cgerfs_nopiv_gpu
libmagma.so:magma_cgeru
libmagma.so:magma_cgesdd
libmagma.so:magma_cgesv
libmagma.so:magma_cgesv_batched
libmagma.so:magma_cgesv_batched_small
libmagma.so:magma_cgesv_gpu
libmagma.so:magma_cgesv_nopiv_batched
libmagma.so:magma_cgesv_nopiv_gpu
libmagma.so:magma_cgesv_rbt
libmagma.so:magma_cgesv_rbt_batched
libmagma.so:magma_cgesvd
libmagma.so:magma_cgetf2_batched
libmagma.so:magma_cgetf2_batched_v1
libmagma.so:magma_cgetf2_batched_v2
libmagma.so:magma_cgetf2_fused_batched
libmagma.so:magma_cgetf2_gpu
libmagma.so:magma_cgetf2_native
libmagma.so:magma_cgetf2_native_fused
libmagma.so:magma_cgetf2_nopiv
libmagma.so:magma_cgetf2_nopiv_batched
libmagma.so:magma_cgetf2_nopiv_internal_batched
libmagma.so:magma_cgetf2_vbatched
libmagma.so:magma_cgetf2trsm_2d_native
libmagma.so:magma_cgetf2trsm_batched
libmagma.so:magma_cgetmatrix_1D_col_bcyclic
libmagma.so:magma_cgetmatrix_1D_col_bcyclic_v1
libmagma.so:magma_cgetmatrix_1D_row_bcyclic
libmagma.so:magma_cgetmatrix_1D_row_bcyclic_v1
libmagma.so:magma_cgetrf
libmagma.so:magma_cgetrf2_mgpu
libmagma.so:magma_cgetrf_batched
libmagma.so:magma_cgetrf_batched_smallsq_noshfl
libmagma.so:magma_cgetrf_batched_smallsq_shfl
libmagma.so:magma_cgetrf_gpu
libmagma.so:magma_cgetrf_gpu_expert
libmagma.so:magma_cgetrf_m
libmagma.so:magma_cgetrf_mgpu
libmagma.so:magma_cgetrf_native
libmagma.so:magma_cgetrf_nopiv
libmagma.so:magma_cgetrf_nopiv_batched
libmagma.so:magma_cgetrf_nopiv_gpu
libmagma.so:magma_cgetrf_panel_nopiv_batched
libmagma.so:magma_cgetrf_piv
libmagma.so:magma_cgetrf_recpanel_batched
libmagma.so:magma_cgetrf_recpanel_native
libmagma.so:magma_cgetrf_recpanel_nopiv_batched
libmagma.so:magma_cgetrf_recpanel_vbatched
libmagma.so:magma_cgetrf_vbatched
libmagma.so:magma_cgetrf_vbatched_max_nocheck
libmagma.so:magma_cgetri_gpu
libmagma.so:magma_cgetri_outofplace_batched
libmagma.so:magma_cgetrs_batched
libmagma.so:magma_cgetrs_gpu
libmagma.so:magma_cgetrs_nopiv_batched
libmagma.so:magma_cgetrs_nopiv_gpu
libmagma.so:magma_cgglse
libmagma.so:magma_cggrqf
libmagma.so:magma_chbtype1cb
libmagma.so:magma_chbtype2cb
libmagma.so:magma_chbtype3cb
libmagma.so:magma_cheevd
libmagma.so:magma_cheevd_gpu
libmagma.so:magma_cheevd_m
libmagma.so:magma_cheevdx
libmagma.so:magma_cheevdx_2stage
libmagma.so:magma_cheevdx_2stage_m
libmagma.so:magma_cheevdx_getworksize
libmagma.so:magma_cheevdx_gpu
libmagma.so:magma_cheevdx_m
libmagma.so:magma_cheevr
libmagma.so:magma_cheevr_gpu
libmagma.so:magma_cheevx
libmagma.so:magma_cheevx_gpu
libmagma.so:magma_chegst
libmagma.so:magma_chegst_gpu
libmagma.so:magma_chegst_m
libmagma.so:magma_chegvd
libmagma.so:magma_chegvd_m
libmagma.so:magma_chegvdx
libmagma.so:magma_chegvdx_2stage
libmagma.so:magma_chegvdx_2stage_m
libmagma.so:magma_chegvdx_m
libmagma.so:magma_chegvr
libmagma.so:magma_chegvx
libmagma.so:magma_chemm
libmagma.so:magma_chemv
libmagma.so:magma_cher
libmagma.so:magma_cher2
libmagma.so:magma_cher2k
libmagma.so:magma_cher2k_mgpu
libmagma.so:magma_cherk
libmagma.so:magma_cherk_batched
libmagma.so:magma_cherk_mgpu
libmagma.so:magma_cherk_mgpu2
libmagma.so:magma_chesv
libmagma.so:magma_chesv_nopiv_gpu
libmagma.so:magma_chetrd
libmagma.so:magma_chetrd2_gpu
libmagma.so:magma_chetrd_gpu
libmagma.so:magma_chetrd_hb2st
libmagma.so:magma_chetrd_he2hb
libmagma.so:magma_chetrd_he2hb_mgpu
libmagma.so:magma_chetrd_mgpu
libmagma.so:magma_chetrf
libmagma.so:magma_chetrf_aasen
libmagma.so:magma_chetrf_gpu
libmagma.so:magma_chetrf_nopiv
libmagma.so:magma_chetrf_nopiv_cpu
libmagma.so:magma_chetrf_nopiv_gpu
libmagma.so:magma_chetrs_gpu
libmagma.so:magma_chetrs_nopiv_gpu
libmagma.so:magma_chtodhe
libmagma.so:magma_chtodpo
libmagma.so:magma_clabrd_gpu
libmagma.so:magma_clahef_gpu
libmagma.so:magma_clahr2
libmagma.so:magma_clahr2_m
libmagma.so:magma_clahru
libmagma.so:magma_clahru_m
libmagma.so:magma_claqps
libmagma.so:magma_claqps2_gpu
libmagma.so:magma_claqps_gpu
libmagma.so:magma_clarf_gpu
libmagma.so:magma_clarf_sm
libmagma.so:magma_clarfb2_gpu
libmagma.so:magma_clarfb_gemm_batched
libmagma.so:magma_clarfb_gpu
libmagma.so:magma_clarfb_gpu_gemm
libmagma.so:magma_clarfb_gpu_gemm_v1
libmagma.so:magma_clarfb_gpu_v1
libmagma.so:magma_clarfbx_gpu
libmagma.so:magma_clarfbx_gpu_v1
libmagma.so:magma_clarfg_gpu
libmagma.so:magma_clarfg_gpu_v1
libmagma.so:magma_clarfgtx_gpu
libmagma.so:magma_clarfgtx_gpu_v1
libmagma.so:magma_clarfgx_gpu
libmagma.so:magma_clarfgx_gpu_v1
libmagma.so:magma_clarft_batched
libmagma.so:magma_clarft_sm32x32_batched
libmagma.so:magma_clarfx_gpu
libmagma.so:magma_clarfx_gpu_v1
libmagma.so:magma_clarfy
libmagma.so:magma_claswp_columnserial
libmagma.so:magma_claswp_columnserial_batched
libmagma.so:magma_claswp_left_rowserial_vbatched
libmagma.so:magma_claswp_right_rowserial_vbatched
libmagma.so:magma_claswp_rowparallel_batched
libmagma.so:magma_claswp_rowparallel_native
libmagma.so:magma_claswp_rowserial_batched
libmagma.so:magma_claswp_rowserial_native
libmagma.so:magma_clatrd
libmagma.so:magma_clatrd2
libmagma.so:magma_clatrd_mgpu
libmagma.so:magma_clatrsd
libmagma.so:magma_clauum
libmagma.so:magma_clauum_gpu
libmagma.so:magma_cmake_lwork
libmagma.so:magma_cnan_inf
libmagma.so:magma_cnan_inf_gpu
libmagma.so:magma_compute_trsm_jb
libmagma.so:magma_copymatrix_async_internal
libmagma.so:magma_copymatrix_internal
libmagma.so:magma_copymatrix_v1_internal
libmagma.so:magma_copyvector_async_internal
libmagma.so:magma_copyvector_internal
libmagma.so:magma_copyvector_v1_internal
libmagma.so:magma_cpanel_to_q
libmagma.so:magma_cposv
libmagma.so:magma_cposv_batched
libmagma.so:magma_cposv_gpu
libmagma.so:magma_cpotf2_batched
libmagma.so:magma_cpotf2_gpu
libmagma.so:magma_cpotf2_lpin
libmagma.so:magma_cpotf2_lpout
libmagma.so:magma_cpotf2_vbatched
libmagma.so:magma_cpotrf
libmagma.so:magma_cpotrf3_mgpu
libmagma.so:magma_cpotrf_batched
libmagma.so:magma_cpotrf_expert
libmagma.so:magma_cpotrf_expert_gpu
libmagma.so:magma_cpotrf_gpu
libmagma.so:magma_cpotrf_lg_batched
libmagma.so:magma_cpotrf_lg_vbatched
libmagma.so:magma_cpotrf_lpin_batched
libmagma.so:magma_cpotrf_lpout_batched
libmagma.so:magma_cpotrf_lpout_vbatched
libmagma.so:magma_cpotrf_m
libmagma.so:magma_cpotrf_mgpu
libmagma.so:magma_cpotrf_native
libmagma.so:magma_cpotrf_panel_batched
libmagma.so:magma_cpotrf_panel_vbatched
libmagma.so:magma_cpotrf_recpanel_batched
libmagma.so:magma_cpotrf_rectile_batched
libmagma.so:magma_cpotrf_rectile_native
libmagma.so:magma_cpotrf_vbatched
libmagma.so:magma_cpotrf_vbatched_max_nocheck
libmagma.so:magma_cpotri
libmagma.so:magma_cpotri_gpu
libmagma.so:magma_cpotrs_batched
libmagma.so:magma_cpotrs_gpu
libmagma.so:magma_cprint
libmagma.so:magma_cprint_gpu
libmagma.so:magma_cq_to_panel
libmagma.so:magma_crecommend_cublas_gemm_batched
libmagma.so:magma_crecommend_cublas_gemm_stream
libmagma.so:magma_crot
libmagma.so:magma_crotg
libmagma.so:magma_cscal
libmagma.so:magma_cscal_cgeru_batched
libmagma.so:magma_cscal_cgeru_native
libmagma.so:magma_cscal_cgeru_vbatched
libmagma.so:magma_cset_pointer
libmagma.so:magma_cset_pointer_var_cc
libmagma.so:magma_csetmatrix_1D_col_bcyclic
libmagma.so:magma_csetmatrix_1D_col_bcyclic_v1
libmagma.so:magma_csetmatrix_1D_row_bcyclic
libmagma.so:magma_csetmatrix_1D_row_bcyclic_v1
libmagma.so:magma_csetvector_const
libmagma.so:magma_csqrt
libmagma.so:magma_csrot
libmagma.so:magma_csscal
libmagma.so:magma_cstedx
libmagma.so:magma_cstedx_m
libmagma.so:magma_cswap
libmagma.so:magma_cswap_batched
libmagma.so:magma_cswap_native
libmagma.so:magma_cswap_vbatched
libmagma.so:magma_csymm
libmagma.so:magma_csymv
libmagma.so:magma_csyr
libmagma.so:magma_csyr2
libmagma.so:magma_csyr2k
libmagma.so:magma_csyrk
libmagma.so:magma_csysv_nopiv_gpu
libmagma.so:magma_csytrf_nopiv_cpu
libmagma.so:magma_csytrf_nopiv_gpu
libmagma.so:magma_csytrs_nopiv_gpu
libmagma.so:magma_ctrevc3
libmagma.so:magma_ctrevc3_mt
libmagma.so:magma_ctrmm
libmagma.so:magma_ctrmv
libmagma.so:magma_ctrmv_kernel
libmagma.so:magma_ctrmv_kernel2
libmagma.so:magma_ctrmv_tkernel
libmagma.so:magma_ctrsm
libmagma.so:magma_ctrsm_m
libmagma.so:magma_ctrsv
libmagma.so:magma_ctrtri
libmagma.so:magma_ctrtri_gpu
libmagma.so:magma_cungbr
libmagma.so:magma_cunghr
libmagma.so:magma_cunghr_m
libmagma.so:magma_cunglq
libmagma.so:magma_cungqr
libmagma.so:magma_cungqr2
libmagma.so:magma_cungqr_2stage_gpu
libmagma.so:magma_cungqr_gpu
libmagma.so:magma_cungqr_m
libmagma.so:magma_cungtr
libmagma.so:magma_cunmbr
libmagma.so:magma_cunmlq
libmagma.so:magma_cunmql
libmagma.so:magma_cunmql2_gpu
libmagma.so:magma_cunmqr
libmagma.so:magma_cunmqr2_gpu
libmagma.so:magma_cunmqr_2stage_gpu
libmagma.so:magma_cunmqr_gpu
libmagma.so:magma_cunmqr_m
libmagma.so:magma_cunmrq
libmagma.so:magma_cunmtr
libmagma.so:magma_cunmtr_gpu
libmagma.so:magma_cunmtr_m
libmagma.so:magma_d_isinf
libmagma.so:magma_d_isnan
libmagma.so:magma_d_isnan_inf
libmagma.so:magma_dasum
libmagma.so:magma_daxpy
libmagma.so:magma_dbulge_applyQ_v2
libmagma.so:magma_dbulge_applyQ_v2_m
libmagma.so:magma_dbulge_back
libmagma.so:magma_dbulge_back_m
libmagma.so:magma_dbulge_getlwstg2
libmagma.so:magma_dbulge_getstg2size
libmagma.so:magma_dcomputecolumn_batched
libmagma.so:magma_dcopy
libmagma.so:magma_ddisplace_pointers
libmagma.so:magma_ddisplace_pointers_var_cc
libmagma.so:magma_ddisplace_pointers_var_cv
libmagma.so:magma_ddisplace_pointers_var_vc
libmagma.so:magma_ddisplace_pointers_var_vv
libmagma.so:magma_ddot
libmagma.so:magma_ddtohpo
libmagma.so:magma_device_sync
libmagma.so:magma_dfgmres_plu_gpu
libmagma.so:magma_dgbtrf_batched
libmagma.so:magma_dgebrd
libmagma.so:magma_dgeev
libmagma.so:magma_dgeev_m
libmagma.so:magma_dgegqr_gpu
libmagma.so:magma_dgehrd
libmagma.so:magma_dgehrd2
libmagma.so:magma_dgehrd_m
libmagma.so:magma_dgelqf
libmagma.so:magma_dgelqf_gpu
libmagma.so:magma_dgels
libmagma.so:magma_dgels3_gpu
libmagma.so:magma_dgels_gpu
libmagma.so:magma_dgemm
libmagma.so:magma_dgemm_batched
libmagma.so:magma_dgemm_batched_core
libmagma.so:magma_dgemv
libmagma.so:magma_dgemv_kernel1
libmagma.so:magma_dgemv_kernel2
libmagma.so:magma_dgemv_kernel3
libmagma.so:magma_dgeqlf
libmagma.so:magma_dgeqp3
libmagma.so:magma_dgeqp3_gpu
libmagma.so:magma_dgeqr2_batched
libmagma.so:magma_dgeqr2_gpu
libmagma.so:magma_dgeqr2x2_gpu
libmagma.so:magma_dgeqr2x3_gpu
libmagma.so:magma_dgeqr2x4_gpu
libmagma.so:magma_dgeqr2x_gpu
libmagma.so:magma_dgeqrf
libmagma.so:magma_dgeqrf2_gpu
libmagma.so:magma_dgeqrf2_mgpu
libmagma.so:magma_dgeqrf3_gpu
libmagma.so:magma_dgeqrf_batched
libmagma.so:magma_dgeqrf_batched_smallsq
libmagma.so:magma_dgeqrf_expert_batched
libmagma.so:magma_dgeqrf_gpu
libmagma.so:magma_dgeqrf_m
libmagma.so:magma_dgeqrf_ooc
libmagma.so:magma_dgeqrf_panel_batched
libmagma.so:magma_dgeqrs3_gpu
libmagma.so:magma_dgeqrs_gpu
libmagma.so:magma_dger
libmagma.so:magma_dgerbt_batched
libmagma.so:magma_dgerbt_gpu
libmagma.so:magma_dgerfs_nopiv_gpu
libmagma.so:magma_dgesdd
libmagma.so:magma_dgesv
libmagma.so:magma_dgesv_batched
libmagma.so:magma_dgesv_batched_small
libmagma.so:magma_dgesv_gpu
libmagma.so:magma_dgesv_nopiv_batched
libmagma.so:magma_dgesv_nopiv_gpu
libmagma.so:magma_dgesv_rbt
libmagma.so:magma_dgesv_rbt_batched
libmagma.so:magma_dgesvd
libmagma.so:magma_dgetf2_batched
libmagma.so:magma_dgetf2_batched_v1
libmagma.so:magma_dgetf2_batched_v2
libmagma.so:magma_dgetf2_fused_batched
libmagma.so:magma_dgetf2_gpu
libmagma.so:magma_dgetf2_native
libmagma.so:magma_dgetf2_native_fused
libmagma.so:magma_dgetf2_nopiv
libmagma.so:magma_dgetf2_nopiv_batched
libmagma.so:magma_dgetf2_nopiv_internal_batched
libmagma.so:magma_dgetf2_vbatched
libmagma.so:magma_dgetf2trsm_2d_native
libmagma.so:magma_dgetf2trsm_batched
libmagma.so:magma_dgetmatrix_1D_col_bcyclic
libmagma.so:magma_dgetmatrix_1D_col_bcyclic_v1
libmagma.so:magma_dgetmatrix_1D_row_bcyclic
libmagma.so:magma_dgetmatrix_1D_row_bcyclic_v1
libmagma.so:magma_dgetrf
libmagma.so:magma_dgetrf2_mgpu
libmagma.so:magma_dgetrf_batched
libmagma.so:magma_dgetrf_batched_smallsq_noshfl
libmagma.so:magma_dgetrf_batched_smallsq_shfl
libmagma.so:magma_dgetrf_gpu
libmagma.so:magma_dgetrf_gpu_expert
libmagma.so:magma_dgetrf_m
libmagma.so:magma_dgetrf_mgpu
libmagma.so:magma_dgetrf_native
libmagma.so:magma_dgetrf_nopiv
libmagma.so:magma_dgetrf_nopiv_batched
libmagma.so:magma_dgetrf_nopiv_gpu
libmagma.so:magma_dgetrf_panel_nopiv_batched
libmagma.so:magma_dgetrf_piv
libmagma.so:magma_dgetrf_recpanel_batched
libmagma.so:magma_dgetrf_recpanel_native
libmagma.so:magma_dgetrf_recpanel_nopiv_batched
libmagma.so:magma_dgetrf_recpanel_vbatched
libmagma.so:magma_dgetrf_vbatched
libmagma.so:magma_dgetrf_vbatched_max_nocheck
libmagma.so:magma_dgetri_gpu
libmagma.so:magma_dgetri_outofplace_batched
libmagma.so:magma_dgetrs_batched
libmagma.so:magma_dgetrs_gpu
libmagma.so:magma_dgetrs_nopiv_batched
libmagma.so:magma_dgetrs_nopiv_gpu
libmagma.so:magma_dgglse
libmagma.so:magma_dggrqf
libmagma.so:magma_dhgesv_iteref_gpu
libmagma.so:magma_dhtodhe
libmagma.so:magma_dhtodpo
libmagma.so:magma_diag_const
libmagma.so:magma_dirange
libmagma.so:magma_direct_const
libmagma.so:magma_dist_const
libmagma.so:magma_dlabrd_gpu
libmagma.so:magma_dlaex0
libmagma.so:magma_dlaex0_m
libmagma.so:magma_dlaex1
libmagma.so:magma_dlaex1_m
libmagma.so:magma_dlaex3
libmagma.so:magma_dlaex3_m
libmagma.so:magma_dlahr2
libmagma.so:magma_dlahr2_m
libmagma.so:magma_dlahru
libmagma.so:magma_dlahru_m
libmagma.so:magma_dlaln2
libmagma.so:magma_dlaqps
libmagma.so:magma_dlaqps2_gpu
libmagma.so:magma_dlaqps_gpu
libmagma.so:magma_dlaqtrsd
libmagma.so:magma_dlarf_gpu
libmagma.so:magma_dlarf_sm
libmagma.so:magma_dlarfb2_gpu
libmagma.so:magma_dlarfb_gemm_batched
libmagma.so:magma_dlarfb_gpu
libmagma.so:magma_dlarfb_gpu_gemm
libmagma.so:magma_dlarfb_gpu_gemm_v1
libmagma.so:magma_dlarfb_gpu_v1
libmagma.so:magma_dlarfbx_gpu
libmagma.so:magma_dlarfbx_gpu_v1
libmagma.so:magma_dlarfg_gpu
libmagma.so:magma_dlarfg_gpu_v1
libmagma.so:magma_dlarfgtx_gpu
libmagma.so:magma_dlarfgtx_gpu_v1
libmagma.so:magma_dlarfgx_gpu
libmagma.so:magma_dlarfgx_gpu_v1
libmagma.so:magma_dlarft_batched
libmagma.so:magma_dlarft_sm32x32_batched
libmagma.so:magma_dlarfx_gpu
libmagma.so:magma_dlarfx_gpu_v1
libmagma.so:magma_dlarfy
libmagma.so:magma_dlaswp_columnserial
libmagma.so:magma_dlaswp_columnserial_batched
libmagma.so:magma_dlaswp_left_rowserial_vbatched
libmagma.so:magma_dlaswp_right_rowserial_vbatched
libmagma.so:magma_dlaswp_rowparallel_batched
libmagma.so:magma_dlaswp_rowparallel_native
libmagma.so:magma_dlaswp_rowserial_batched
libmagma.so:magma_dlaswp_rowserial_native
libmagma.so:magma_dlasyf_gpu
libmagma.so:magma_dlatrd
libmagma.so:magma_dlatrd2
libmagma.so:magma_dlatrd_mgpu
libmagma.so:magma_dlauum
libmagma.so:magma_dlauum_gpu
libmagma.so:magma_dmake_lwork
libmagma.so:magma_dmove_eig
libmagma.so:magma_dnan_inf
libmagma.so:magma_dnan_inf_gpu
libmagma.so:magma_dnrm2
libmagma.so:magma_dnrm2_adjust_kernel
libmagma.so:magma_dorgbr
libmagma.so:magma_dorghr
libmagma.so:magma_dorghr_m
libmagma.so:magma_dorglq
libmagma.so:magma_dorgqr
libmagma.so:magma_dorgqr2
libmagma.so:magma_dorgqr_2stage_gpu
libmagma.so:magma_dorgqr_gpu
libmagma.so:magma_dorgqr_m
libmagma.so:magma_dorgtr
libmagma.so:magma_dormbr
libmagma.so:magma_dormlq
libmagma.so:magma_dormql
libmagma.so:magma_dormql2_gpu
libmagma.so:magma_dormqr
libmagma.so:magma_dormqr2_gpu
libmagma.so:magma_dormqr_2stage_gpu
libmagma.so:magma_dormqr_gpu
libmagma.so:magma_dormqr_m
libmagma.so:magma_dormrq
libmagma.so:magma_dormtr
libmagma.so:magma_dormtr_gpu
libmagma.so:magma_dormtr_m
libmagma.so:magma_dpanel_to_q
libmagma.so:magma_dposv
libmagma.so:magma_dposv_batched
libmagma.so:magma_dposv_gpu
libmagma.so:magma_dpotf2_batched
libmagma.so:magma_dpotf2_gpu
libmagma.so:magma_dpotf2_lpin
libmagma.so:magma_dpotf2_lpout
libmagma.so:magma_dpotf2_vbatched
libmagma.so:magma_dpotrf
libmagma.so:magma_dpotrf3_mgpu
libmagma.so:magma_dpotrf_batched
libmagma.so:magma_dpotrf_expert
libmagma.so:magma_dpotrf_expert_gpu
libmagma.so:magma_dpotrf_gpu
libmagma.so:magma_dpotrf_lg_batched
libmagma.so:magma_dpotrf_lg_vbatched
libmagma.so:magma_dpotrf_lpin_batched
libmagma.so:magma_dpotrf_lpout_batched
libmagma.so:magma_dpotrf_lpout_vbatched
libmagma.so:magma_dpotrf_m
libmagma.so:magma_dpotrf_mgpu
libmagma.so:magma_dpotrf_native
libmagma.so:magma_dpotrf_panel_batched
libmagma.so:magma_dpotrf_panel_vbatched
libmagma.so:magma_dpotrf_recpanel_batched
libmagma.so:magma_dpotrf_rectile_batched
libmagma.so:magma_dpotrf_rectile_native
libmagma.so:magma_dpotrf_vbatched
libmagma.so:magma_dpotrf_vbatched_max_nocheck
libmagma.so:magma_dpotri
libmagma.so:magma_dpotri_gpu
libmagma.so:magma_dpotrs_batched
libmagma.so:magma_dpotrs_gpu
libmagma.so:magma_dprint
libmagma.so:magma_dprint_gpu
libmagma.so:magma_dq_to_panel
libmagma.so:magma_drecommend_cublas_gemm_batched
libmagma.so:magma_drecommend_cublas_gemm_stream
libmagma.so:magma_drot
libmagma.so:magma_drotg
libmagma.so:magma_drotm
libmagma.so:magma_drotmg
libmagma.so:magma_dsbtype1cb
libmagma.so:magma_dsbtype2cb
libmagma.so:magma_dsbtype3cb
libmagma.so:magma_dscal
libmagma.so:magma_dscal_dger_batched
libmagma.so:magma_dscal_dger_native
libmagma.so:magma_dscal_dger_vbatched
libmagma.so:magma_dset_pointer
libmagma.so:magma_dset_pointer_var_cc
libmagma.so:magma_dsetmatrix_1D_col_bcyclic
libmagma.so:magma_dsetmatrix_1D_col_bcyclic_v1
libmagma.so:magma_dsetmatrix_1D_row_bcyclic
libmagma.so:magma_dsetmatrix_1D_row_bcyclic_v1
libmagma.so:magma_dsetvector_const
libmagma.so:magma_dsgeqrsv_gpu
libmagma.so:magma_dsgesv_gpu
libmagma.so:magma_dsgesv_iteref_gpu
libmagma.so:magma_dsgetrs_gpu
libmagma.so:magma_dsidi
libmagma.so:magma_dsposv_gpu
libmagma.so:magma_dssysv_gpu
libmagma.so:magma_dstedx
libmagma.so:magma_dstedx_m
libmagma.so:magma_dswap
libmagma.so:magma_dswap_batched
libmagma.so:magma_dswap_native
libmagma.so:magma_dswap_vbatched
libmagma.so:magma_dsyevd
libmagma.so:magma_dsyevd_gpu
libmagma.so:magma_dsyevd_m
libmagma.so:magma_dsyevdx
libmagma.so:magma_dsyevdx_2stage
libmagma.so:magma_dsyevdx_2stage_m
libmagma.so:magma_dsyevdx_getworksize
libmagma.so:magma_dsyevdx_gpu
libmagma.so:magma_dsyevdx_m
libmagma.so:magma_dsygst
libmagma.so:magma_dsygst_gpu
libmagma.so:magma_dsygst_m
libmagma.so:magma_dsygvd
libmagma.so:magma_dsygvd_m
libmagma.so:magma_dsygvdx
libmagma.so:magma_dsygvdx_2stage
libmagma.so:magma_dsygvdx_2stage_m
libmagma.so:magma_dsygvdx_m
libmagma.so:magma_dsymm
libmagma.so:magma_dsymv
libmagma.so:magma_dsyr
libmagma.so:magma_dsyr2
libmagma.so:magma_dsyr2k
libmagma.so:magma_dsyr2k_mgpu
libmagma.so:magma_dsyrk
libmagma.so:magma_dsyrk_batched
libmagma.so:magma_dsyrk_mgpu
libmagma.so:magma_dsyrk_mgpu2
libmagma.so:magma_dsysv
libmagma.so:magma_dsysv_nopiv_gpu
libmagma.so:magma_dsytrd
libmagma.so:magma_dsytrd2_gpu
libmagma.so:magma_dsytrd_gpu
libmagma.so:magma_dsytrd_mgpu
libmagma.so:magma_dsytrd_sb2st
libmagma.so:magma_dsytrd_sy2sb
libmagma.so:magma_dsytrd_sy2sb_mgpu
libmagma.so:magma_dsytrf
libmagma.so:magma_dsytrf_aasen
libmagma.so:magma_dsytrf_gpu
libmagma.so:magma_dsytrf_nopiv
libmagma.so:magma_dsytrf_nopiv_cpu
libmagma.so:magma_dsytrf_nopiv_gpu
libmagma.so:magma_dsytrs_gpu
libmagma.so:magma_dsytrs_nopiv_gpu
libmagma.so:magma_dtrevc3
libmagma.so:magma_dtrevc3_mt
libmagma.so:magma_dtrmm
libmagma.so:magma_dtrmv
libmagma.so:magma_dtrmv_kernel
libmagma.so:magma_dtrmv_kernel2
libmagma.so:magma_dtrmv_tkernel
libmagma.so:magma_dtrsm
libmagma.so:magma_dtrsm_m
libmagma.so:magma_dtrsv
libmagma.so:magma_dtrtri
libmagma.so:magma_dtrtri_gpu
libmagma.so:magma_dvrange
libmagma.so:magma_dxgesv_gmres_gpu
libmagma.so:magma_dzasum
libmagma.so:magma_dznrm2
libmagma.so:magma_dznrm2_adjust_kernel
libmagma.so:magma_event_create
libmagma.so:magma_event_create_untimed
libmagma.so:magma_event_destroy
libmagma.so:magma_event_record
libmagma.so:magma_event_sync
libmagma.so:magma_finalize
libmagma.so:magma_free_cpu
libmagma.so:magma_free_internal
libmagma.so:magma_free_pinned_internal
libmagma.so:magma_gemm_vbatched_checker
libmagma.so:magma_gemv_vbatched_checker
libmagma.so:magma_get_cbulge_VTsiz
libmagma.so:magma_get_cbulge_gcperf
libmagma.so:magma_get_cbulge_lq2
libmagma.so:magma_get_cbulge_mgpu_nb
libmagma.so:magma_get_cbulge_nb
libmagma.so:magma_get_cbulge_vblksiz
libmagma.so:magma_get_cgebrd_nb
libmagma.so:magma_get_cgehrd_nb
libmagma.so:magma_get_cgelqf_nb
libmagma.so:magma_get_cgemm_batched_ntcol
libmagma.so:magma_get_cgemm_batched_smallsq_limit
libmagma.so:magma_get_cgeqlf_nb
libmagma.so:magma_get_cgeqp3_nb
libmagma.so:magma_get_cgeqrf_batched_nb
libmagma.so:magma_get_cgeqrf_batched_ntcol
libmagma.so:magma_get_cgeqrf_nb
libmagma.so:magma_get_cgesvd_nb
libmagma.so:magma_get_cgetrf_batched_nbparam
libmagma.so:magma_get_cgetrf_batched_ntcol
libmagma.so:magma_get_cgetrf_native_nb
libmagma.so:magma_get_cgetrf_nb
libmagma.so:magma_get_cgetri_batched_ntcol
libmagma.so:magma_get_cgetri_nb
libmagma.so:magma_get_chegst_m_nb
libmagma.so:magma_get_chegst_nb
libmagma.so:magma_get_chetrd_nb
libmagma.so:magma_get_chetrf_aasen_nb
libmagma.so:magma_get_chetrf_nb
libmagma.so:magma_get_chetrf_nopiv_nb
libmagma.so:magma_get_cpotrf_batched_crossover
libmagma.so:magma_get_cpotrf_batched_nbparam
libmagma.so:magma_get_cpotrf_nb
libmagma.so:magma_get_cpotrf_right_nb
libmagma.so:magma_get_cpotrf_vbatched_crossover
libmagma.so:magma_get_cpu_sgetrf_time
libmagma.so:magma_get_ctrsm_batched_stop_nb
libmagma.so:magma_get_ctrsm_m_nb
libmagma.so:magma_get_dbulge_VTsiz
libmagma.so:magma_get_dbulge_gcperf
libmagma.so:magma_get_dbulge_lq2
libmagma.so:magma_get_dbulge_mgpu_nb
libmagma.so:magma_get_dbulge_nb
libmagma.so:magma_get_dbulge_vblksiz
libmagma.so:magma_get_dgebrd_nb
libmagma.so:magma_get_dgehrd_nb
libmagma.so:magma_get_dgelqf_nb
libmagma.so:magma_get_dgemm_batched_ntcol
libmagma.so:magma_get_dgemm_batched_smallsq_limit
libmagma.so:magma_get_dgeqlf_nb
libmagma.so:magma_get_dgeqp3_nb
libmagma.so:magma_get_dgeqrf_batched_nb
libmagma.so:magma_get_dgeqrf_batched_ntcol
libmagma.so:magma_get_dgeqrf_nb
libmagma.so:magma_get_dgesvd_nb
libmagma.so:magma_get_dgetrf_batched_nbparam
libmagma.so:magma_get_dgetrf_batched_ntcol
libmagma.so:magma_get_dgetrf_native_nb
libmagma.so:magma_get_dgetrf_nb
libmagma.so:magma_get_dgetri_batched_ntcol
libmagma.so:magma_get_dgetri_nb
libmagma.so:magma_get_dlaed3_k
libmagma.so:magma_get_dlaex3_m_k
libmagma.so:magma_get_dlaex3_m_nb
libmagma.so:magma_get_dpotrf_batched_crossover
libmagma.so:magma_get_dpotrf_batched_nbparam
libmagma.so:magma_get_dpotrf_nb
libmagma.so:magma_get_dpotrf_right_nb
libmagma.so:magma_get_dpotrf_vbatched_crossover
libmagma.so:magma_get_dsygst_m_nb
libmagma.so:magma_get_dsygst_nb
libmagma.so:magma_get_dsytrd_nb
libmagma.so:magma_get_dsytrf_aasen_nb
libmagma.so:magma_get_dsytrf_nb
libmagma.so:magma_get_dsytrf_nopiv_nb
libmagma.so:magma_get_dtrsm_batched_stop_nb
libmagma.so:magma_get_dtrsm_m_nb
libmagma.so:magma_get_gemex_rankk_time
libmagma.so:magma_get_gemm_shape
libmagma.so:magma_get_hgetrf_nb
libmagma.so:magma_get_lapack_numthreads
libmagma.so:magma_get_omp_numthreads
libmagma.so:magma_get_parallel_numthreads
libmagma.so:magma_get_sbulge_VTsiz
libmagma.so:magma_get_sbulge_gcperf
libmagma.so:magma_get_sbulge_lq2
libmagma.so:magma_get_sbulge_mgpu_nb
libmagma.so:magma_get_sbulge_nb
libmagma.so:magma_get_sbulge_vblksiz
libmagma.so:magma_get_sgebrd_nb
libmagma.so:magma_get_sgehrd_nb
libmagma.so:magma_get_sgelqf_nb
libmagma.so:magma_get_sgemm_batched_ntcol
libmagma.so:magma_get_sgemm_batched_smallsq_limit
libmagma.so:magma_get_sgeqlf_nb
libmagma.so:magma_get_sgeqp3_nb
libmagma.so:magma_get_sgeqrf_batched_nb
libmagma.so:magma_get_sgeqrf_batched_ntcol
libmagma.so:magma_get_sgeqrf_nb
libmagma.so:magma_get_sgesvd_nb
libmagma.so:magma_get_sgetrf_batched_nbparam
libmagma.so:magma_get_sgetrf_batched_ntcol
libmagma.so:magma_get_sgetrf_native_nb
libmagma.so:magma_get_sgetrf_nb
libmagma.so:magma_get_sgetri_batched_ntcol
libmagma.so:magma_get_sgetri_nb
libmagma.so:magma_get_slaed3_k
libmagma.so:magma_get_slaex3_m_k
libmagma.so:magma_get_slaex3_m_nb
libmagma.so:magma_get_smlsize_divideconquer
libmagma.so:magma_get_spotrf_batched_crossover
libmagma.so:magma_get_spotrf_batched_nbparam
libmagma.so:magma_get_spotrf_nb
libmagma.so:magma_get_spotrf_right_nb
libmagma.so:magma_get_spotrf_vbatched_crossover
libmagma.so:magma_get_ssygst_m_nb
libmagma.so:magma_get_ssygst_nb
libmagma.so:magma_get_ssytrd_nb
libmagma.so:magma_get_ssytrf_aasen_nb
libmagma.so:magma_get_ssytrf_nb
libmagma.so:magma_get_ssytrf_nopiv_nb
libmagma.so:magma_get_strsm_batched_stop_nb
libmagma.so:magma_get_strsm_m_nb
libmagma.so:magma_get_xgetrf_nb
libmagma.so:magma_get_zbulge_VTsiz
libmagma.so:magma_get_zbulge_gcperf
libmagma.so:magma_get_zbulge_lq2
libmagma.so:magma_get_zbulge_mgpu_nb
libmagma.so:magma_get_zbulge_nb
libmagma.so:magma_get_zbulge_vblksiz
libmagma.so:magma_get_zgebrd_nb
libmagma.so:magma_get_zgehrd_nb
libmagma.so:magma_get_zgelqf_nb
libmagma.so:magma_get_zgemm_batched_ntcol
libmagma.so:magma_get_zgemm_batched_smallsq_limit
libmagma.so:magma_get_zgeqlf_nb
libmagma.so:magma_get_zgeqp3_nb
libmagma.so:magma_get_zgeqrf_batched_nb
libmagma.so:magma_get_zgeqrf_batched_ntcol
libmagma.so:magma_get_zgeqrf_nb
libmagma.so:magma_get_zgesvd_nb
libmagma.so:magma_get_zgetrf_batched_nbparam
libmagma.so:magma_get_zgetrf_batched_ntcol
libmagma.so:magma_get_zgetrf_native_nb
libmagma.so:magma_get_zgetrf_nb
libmagma.so:magma_get_zgetri_batched_ntcol
libmagma.so:magma_get_zgetri_nb
libmagma.so:magma_get_zhegst_m_nb
libmagma.so:magma_get_zhegst_nb
libmagma.so:magma_get_zhetrd_nb
libmagma.so:magma_get_zhetrf_aasen_nb
libmagma.so:magma_get_zhetrf_nb
libmagma.so:magma_get_zhetrf_nopiv_nb
libmagma.so:magma_get_zpotrf_batched_crossover
libmagma.so:magma_get_zpotrf_batched_nbparam
libmagma.so:magma_get_zpotrf_nb
libmagma.so:magma_get_zpotrf_right_nb
libmagma.so:magma_get_zpotrf_vbatched_crossover
libmagma.so:magma_get_ztrsm_batched_stop_nb
libmagma.so:magma_get_ztrsm_m_nb
libmagma.so:magma_getdevice
libmagma.so:magma_getdevice_arch
libmagma.so:magma_getdevice_multiprocessor_count
libmagma.so:magma_getdevice_shmem_block
libmagma.so:magma_getdevice_shmem_multiprocessor
libmagma.so:magma_getdevices
libmagma.so:magma_getmatrix_async_internal
libmagma.so:magma_getmatrix_internal
libmagma.so:magma_getmatrix_v1_internal
libmagma.so:magma_getrf_vbatched_checker
libmagma.so:magma_getrf_vbatched_setup
libmagma.so:magma_getvector_async_internal
libmagma.so:magma_getvector_internal
libmagma.so:magma_getvector_v1_internal
libmagma.so:magma_hemm_vbatched_checker
libmagma.so:magma_hemv_vbatched_checker
libmagma.so:magma_her2k_vbatched_checker
libmagma.so:magma_herk_vbatched_checker
libmagma.so:magma_hgemm
libmagma.so:magma_hgemmx
libmagma.so:magma_hgetrf_gpu
libmagma.so:magma_hipblasGetErrorString
libmagma.so:magma_hset_pointer
libmagma.so:magma_htgetrf_gpu
libmagma.so:magma_icamax
libmagma.so:magma_icamax_batched
libmagma.so:magma_icamax_native
libmagma.so:magma_icamax_vbatched
libmagma.so:magma_icamin
libmagma.so:magma_idamax
libmagma.so:magma_idamax_batched
libmagma.so:magma_idamax_native
libmagma.so:magma_idamax_vbatched
libmagma.so:magma_idamin
libmagma.so:magma_idisplace_pointers
libmagma.so:magma_imax_size_1
libmagma.so:magma_imax_size_2
libmagma.so:magma_imax_size_3
libmagma.so:magma_indices_1D_bcyclic
libmagma.so:magma_init
libmagma.so:magma_is_devptr
libmagma.so:magma_isamax
libmagma.so:magma_isamax_batched
libmagma.so:magma_isamax_native
libmagma.so:magma_isamax_vbatched
libmagma.so:magma_isamin
libmagma.so:magma_iset_pointer
libmagma.so:magma_isum_reduce
libmagma.so:magma_ivec_add
libmagma.so:magma_ivec_addc
libmagma.so:magma_ivec_ceildiv
libmagma.so:magma_ivec_max
libmagma.so:magma_ivec_maxc
libmagma.so:magma_ivec_min_vv
libmagma.so:magma_ivec_minc
libmagma.so:magma_ivec_mul
libmagma.so:magma_ivec_mulc
libmagma.so:magma_ivec_roundup
libmagma.so:magma_ivec_setc
libmagma.so:magma_izamax
libmagma.so:magma_izamax_batched
libmagma.so:magma_izamax_native
libmagma.so:magma_izamax_vbatched
libmagma.so:magma_izamin
libmagma.so:magma_malloc
libmagma.so:magma_malloc_cpu
libmagma.so:magma_malloc_pinned
libmagma.so:magma_mem_info
libmagma.so:magma_mem_size
libmagma.so:magma_memset
libmagma.so:magma_memset_async
libmagma.so:magma_norm_const
libmagma.so:magma_num_gpus
libmagma.so:magma_order_const
libmagma.so:magma_pack_const
libmagma.so:magma_potrf_vbatched_checker
libmagma.so:magma_prefix_sum_inplace
libmagma.so:magma_prefix_sum_inplace_w
libmagma.so:magma_prefix_sum_outofplace
libmagma.so:magma_prefix_sum_outofplace_w
libmagma.so:magma_print_environment
libmagma.so:magma_queue_create_from_hip_internal
libmagma.so:magma_queue_create_internal
libmagma.so:magma_queue_create_v1_internal
libmagma.so:magma_queue_destroy_internal
libmagma.so:magma_queue_get_device
libmagma.so:magma_queue_get_hip_stream
libmagma.so:magma_queue_get_hipblas_handle
libmagma.so:magma_queue_get_hipsparse_handle
libmagma.so:magma_queue_sync_internal
libmagma.so:magma_queue_wait_event
libmagma.so:magma_range_const
libmagma.so:magma_s_isinf
libmagma.so:magma_s_isnan
libmagma.so:magma_s_isnan_inf
libmagma.so:magma_sasum
libmagma.so:magma_saxpy
libmagma.so:magma_sbulge_applyQ_v2
libmagma.so:magma_sbulge_applyQ_v2_m
libmagma.so:magma_sbulge_back
libmagma.so:magma_sbulge_back_m
libmagma.so:magma_sbulge_getlwstg2
libmagma.so:magma_sbulge_getstg2size
libmagma.so:magma_scasum
libmagma.so:magma_scnrm2
libmagma.so:magma_scnrm2_adjust_kernel
libmagma.so:magma_scomputecolumn_batched
libmagma.so:magma_scopy
libmagma.so:magma_sdisplace_pointers
libmagma.so:magma_sdisplace_pointers_var_cc
libmagma.so:magma_sdisplace_pointers_var_cv
libmagma.so:magma_sdisplace_pointers_var_vc
libmagma.so:magma_sdisplace_pointers_var_vv
libmagma.so:magma_sdot
libmagma.so:magma_sdtohpo
libmagma.so:magma_set_lapack_numthreads
libmagma.so:magma_set_omp_numthreads
libmagma.so:magma_setdevice
libmagma.so:magma_setmatrix_async_internal
libmagma.so:magma_setmatrix_internal
libmagma.so:magma_setmatrix_v1_internal
libmagma.so:magma_setvector_async_internal
libmagma.so:magma_setvector_internal
libmagma.so:magma_setvector_v1_internal
libmagma.so:magma_sgbtrf_batched
libmagma.so:magma_sgebrd
libmagma.so:magma_sgeev
libmagma.so:magma_sgeev_m
libmagma.so:magma_sgegqr_gpu
libmagma.so:magma_sgehrd
libmagma.so:magma_sgehrd2
libmagma.so:magma_sgehrd_m
libmagma.so:magma_sgelqf
libmagma.so:magma_sgelqf_gpu
libmagma.so:magma_sgels
libmagma.so:magma_sgels3_gpu
libmagma.so:magma_sgels_gpu
libmagma.so:magma_sgemm
libmagma.so:magma_sgemm_batched
libmagma.so:magma_sgemm_batched_core
libmagma.so:magma_sgemv
libmagma.so:magma_sgemv_kernel1
libmagma.so:magma_sgemv_kernel2
libmagma.so:magma_sgemv_kernel3
libmagma.so:magma_sgeqlf
libmagma.so:magma_sgeqp3
libmagma.so:magma_sgeqp3_gpu
libmagma.so:magma_sgeqr2_batched
libmagma.so:magma_sgeqr2_gpu
libmagma.so:magma_sgeqr2x2_gpu
libmagma.so:magma_sgeqr2x3_gpu
libmagma.so:magma_sgeqr2x4_gpu
libmagma.so:magma_sgeqr2x_gpu
libmagma.so:magma_sgeqrf
libmagma.so:magma_sgeqrf2_gpu
libmagma.so:magma_sgeqrf2_mgpu
libmagma.so:magma_sgeqrf3_gpu
libmagma.so:magma_sgeqrf_batched
libmagma.so:magma_sgeqrf_batched_smallsq
libmagma.so:magma_sgeqrf_expert_batched
libmagma.so:magma_sgeqrf_gpu
libmagma.so:magma_sgeqrf_m
libmagma.so:magma_sgeqrf_ooc
libmagma.so:magma_sgeqrf_panel_batched
libmagma.so:magma_sgeqrs3_gpu
libmagma.so:magma_sgeqrs_gpu
libmagma.so:magma_sger
libmagma.so:magma_sgerbt_batched
libmagma.so:magma_sgerbt_gpu
libmagma.so:magma_sgerfs_nopiv_gpu
libmagma.so:magma_sgesdd
libmagma.so:magma_sgesv
libmagma.so:magma_sgesv_batched
libmagma.so:magma_sgesv_batched_small
libmagma.so:magma_sgesv_gpu
libmagma.so:magma_sgesv_nopiv_batched
libmagma.so:magma_sgesv_nopiv_gpu
libmagma.so:magma_sgesv_rbt
libmagma.so:magma_sgesv_rbt_batched
libmagma.so:magma_sgesvd
libmagma.so:magma_sgetf2_batched
libmagma.so:magma_sgetf2_batched_v1
libmagma.so:magma_sgetf2_batched_v2
libmagma.so:magma_sgetf2_fused_batched
libmagma.so:magma_sgetf2_gpu
libmagma.so:magma_sgetf2_native
libmagma.so:magma_sgetf2_native_fused
libmagma.so:magma_sgetf2_nopiv
libmagma.so:magma_sgetf2_nopiv_batched
libmagma.so:magma_sgetf2_nopiv_internal_batched
libmagma.so:magma_sgetf2_vbatched
libmagma.so:magma_sgetf2trsm_2d_native
libmagma.so:magma_sgetf2trsm_batched
libmagma.so:magma_sgetmatrix_1D_col_bcyclic
libmagma.so:magma_sgetmatrix_1D_col_bcyclic_v1
libmagma.so:magma_sgetmatrix_1D_row_bcyclic
libmagma.so:magma_sgetmatrix_1D_row_bcyclic_v1
libmagma.so:magma_sgetrf
libmagma.so:magma_sgetrf2_mgpu
libmagma.so:magma_sgetrf_batched
libmagma.so:magma_sgetrf_batched_smallsq_noshfl
libmagma.so:magma_sgetrf_batched_smallsq_shfl
libmagma.so:magma_sgetrf_gpu
libmagma.so:magma_sgetrf_gpu_expert
libmagma.so:magma_sgetrf_m
libmagma.so:magma_sgetrf_mgpu
libmagma.so:magma_sgetrf_native
libmagma.so:magma_sgetrf_nopiv
libmagma.so:magma_sgetrf_nopiv_batched
libmagma.so:magma_sgetrf_nopiv_gpu
libmagma.so:magma_sgetrf_panel_nopiv_batched
libmagma.so:magma_sgetrf_piv
libmagma.so:magma_sgetrf_recpanel_batched
libmagma.so:magma_sgetrf_recpanel_native
libmagma.so:magma_sgetrf_recpanel_nopiv_batched
libmagma.so:magma_sgetrf_recpanel_vbatched
libmagma.so:magma_sgetrf_vbatched
libmagma.so:magma_sgetrf_vbatched_max_nocheck
libmagma.so:magma_sgetri_gpu
libmagma.so:magma_sgetri_outofplace_batched
libmagma.so:magma_sgetrs_batched
libmagma.so:magma_sgetrs_gpu
libmagma.so:magma_sgetrs_nopiv_batched
libmagma.so:magma_sgetrs_nopiv_gpu
libmagma.so:magma_sgglse
libmagma.so:magma_sggrqf
libmagma.so:magma_shtodhe
libmagma.so:magma_shtodpo
libmagma.so:magma_side_const
libmagma.so:magma_sirange
libmagma.so:magma_slabrd_gpu
libmagma.so:magma_slaex0
libmagma.so:magma_slaex0_m
libmagma.so:magma_slaex1
libmagma.so:magma_slaex1_m
libmagma.so:magma_slaex3
libmagma.so:magma_slaex3_m
libmagma.so:magma_slahr2
libmagma.so:magma_slahr2_m
libmagma.so:magma_slahru
libmagma.so:magma_slahru_m
libmagma.so:magma_slaln2
libmagma.so:magma_slaqps
libmagma.so:magma_slaqps2_gpu
libmagma.so:magma_slaqps_gpu
libmagma.so:magma_slaqtrsd
libmagma.so:magma_slarf_gpu
libmagma.so:magma_slarf_sm
libmagma.so:magma_slarfb2_gpu
libmagma.so:magma_slarfb_gemm_batched
libmagma.so:magma_slarfb_gpu
libmagma.so:magma_slarfb_gpu_gemm
libmagma.so:magma_slarfb_gpu_gemm_v1
libmagma.so:magma_slarfb_gpu_v1
libmagma.so:magma_slarfbx_gpu
libmagma.so:magma_slarfbx_gpu_v1
libmagma.so:magma_slarfg_gpu
libmagma.so:magma_slarfg_gpu_v1
libmagma.so:magma_slarfgtx_gpu
libmagma.so:magma_slarfgtx_gpu_v1
libmagma.so:magma_slarfgx_gpu
libmagma.so:magma_slarfgx_gpu_v1
libmagma.so:magma_slarft_batched
libmagma.so:magma_slarft_sm32x32_batched
libmagma.so:magma_slarfx_gpu
libmagma.so:magma_slarfx_gpu_v1
libmagma.so:magma_slarfy
libmagma.so:magma_slaswp_columnserial
libmagma.so:magma_slaswp_columnserial_batched
libmagma.so:magma_slaswp_left_rowserial_vbatched
libmagma.so:magma_slaswp_right_rowserial_vbatched
libmagma.so:magma_slaswp_rowparallel_batched
libmagma.so:magma_slaswp_rowparallel_native
libmagma.so:magma_slaswp_rowserial_batched
libmagma.so:magma_slaswp_rowserial_native
libmagma.so:magma_slasyf_gpu
libmagma.so:magma_slatrd
libmagma.so:magma_slatrd2
libmagma.so:magma_slatrd_mgpu
libmagma.so:magma_slauum
libmagma.so:magma_slauum_gpu
libmagma.so:magma_smake_lwork
libmagma.so:magma_smove_eig
libmagma.so:magma_snan_inf
libmagma.so:magma_snan_inf_gpu
libmagma.so:magma_snrm2
libmagma.so:magma_snrm2_adjust_kernel
libmagma.so:magma_sorgbr
libmagma.so:magma_sorghr
libmagma.so:magma_sorghr_m
libmagma.so:magma_sorglq
libmagma.so:magma_sorgqr
libmagma.so:magma_sorgqr2
libmagma.so:magma_sorgqr_2stage_gpu
libmagma.so:magma_sorgqr_gpu
libmagma.so:magma_sorgqr_m
libmagma.so:magma_sorgtr
libmagma.so:magma_sormbr
libmagma.so:magma_sormlq
libmagma.so:magma_sormql
libmagma.so:magma_sormql2_gpu
libmagma.so:magma_sormqr
libmagma.so:magma_sormqr2_gpu
libmagma.so:magma_sormqr_2stage_gpu
libmagma.so:magma_sormqr_gpu
libmagma.so:magma_sormqr_m
libmagma.so:magma_sormrq
libmagma.so:magma_sormtr
libmagma.so:magma_sormtr_gpu
libmagma.so:magma_sormtr_m
libmagma.so:magma_spanel_to_q
libmagma.so:magma_sposv
libmagma.so:magma_sposv_batched
libmagma.so:magma_sposv_gpu
libmagma.so:magma_spotf2_batched
libmagma.so:magma_spotf2_gpu
libmagma.so:magma_spotf2_lpin
libmagma.so:magma_spotf2_lpout
libmagma.so:magma_spotf2_vbatched
libmagma.so:magma_spotrf
libmagma.so:magma_spotrf3_mgpu
libmagma.so:magma_spotrf_batched
libmagma.so:magma_spotrf_expert
libmagma.so:magma_spotrf_expert_gpu
libmagma.so:magma_spotrf_gpu
libmagma.so:magma_spotrf_lg_batched
libmagma.so:magma_spotrf_lg_vbatched
libmagma.so:magma_spotrf_lpin_batched
libmagma.so:magma_spotrf_lpout_batched
libmagma.so:magma_spotrf_lpout_vbatched
libmagma.so:magma_spotrf_m
libmagma.so:magma_spotrf_mgpu
libmagma.so:magma_spotrf_native
libmagma.so:magma_spotrf_panel_batched
libmagma.so:magma_spotrf_panel_vbatched
libmagma.so:magma_spotrf_recpanel_batched
libmagma.so:magma_spotrf_rectile_batched
libmagma.so:magma_spotrf_rectile_native
libmagma.so:magma_spotrf_vbatched
libmagma.so:magma_spotrf_vbatched_max_nocheck
libmagma.so:magma_spotri
libmagma.so:magma_spotri_gpu
libmagma.so:magma_spotrs_batched
libmagma.so:magma_spotrs_gpu
libmagma.so:magma_sprint
libmagma.so:magma_sprint_gpu
libmagma.so:magma_sq_to_panel
libmagma.so:magma_srecommend_cublas_gemm_batched
libmagma.so:magma_srecommend_cublas_gemm_stream
libmagma.so:magma_srot
libmagma.so:magma_srotg
libmagma.so:magma_srotm
libmagma.so:magma_srotmg
libmagma.so:magma_ssbtype1cb
libmagma.so:magma_ssbtype2cb
libmagma.so:magma_ssbtype3cb
libmagma.so:magma_sscal
libmagma.so:magma_sscal_sger_batched
libmagma.so:magma_sscal_sger_native
libmagma.so:magma_sscal_sger_vbatched
libmagma.so:magma_sset_pointer
libmagma.so:magma_sset_pointer_var_cc
libmagma.so:magma_ssetmatrix_1D_col_bcyclic
libmagma.so:magma_ssetmatrix_1D_col_bcyclic_v1
libmagma.so:magma_ssetmatrix_1D_row_bcyclic
libmagma.so:magma_ssetmatrix_1D_row_bcyclic_v1
libmagma.so:magma_ssetvector_const
libmagma.so:magma_ssidi
libmagma.so:magma_sstedx
libmagma.so:magma_sstedx_m
libmagma.so:magma_sswap
libmagma.so:magma_sswap_batched
libmagma.so:magma_sswap_native
libmagma.so:magma_sswap_vbatched
libmagma.so:magma_ssyevd
libmagma.so:magma_ssyevd_gpu
libmagma.so:magma_ssyevd_m
libmagma.so:magma_ssyevdx
libmagma.so:magma_ssyevdx_2stage
libmagma.so:magma_ssyevdx_2stage_m
libmagma.so:magma_ssyevdx_getworksize
libmagma.so:magma_ssyevdx_gpu
libmagma.so:magma_ssyevdx_m
libmagma.so:magma_ssygst
libmagma.so:magma_ssygst_gpu
libmagma.so:magma_ssygst_m
libmagma.so:magma_ssygvd
libmagma.so:magma_ssygvd_m
libmagma.so:magma_ssygvdx
libmagma.so:magma_ssygvdx_2stage
libmagma.so:magma_ssygvdx_2stage_m
libmagma.so:magma_ssygvdx_m
libmagma.so:magma_ssymm
libmagma.so:magma_ssymv
libmagma.so:magma_ssyr
libmagma.so:magma_ssyr2
libmagma.so:magma_ssyr2k
libmagma.so:magma_ssyr2k_mgpu
libmagma.so:magma_ssyrk
libmagma.so:magma_ssyrk_batched
libmagma.so:magma_ssyrk_mgpu
libmagma.so:magma_ssyrk_mgpu2
libmagma.so:magma_ssysv
libmagma.so:magma_ssysv_nopiv_gpu
libmagma.so:magma_ssytrd
libmagma.so:magma_ssytrd2_gpu
libmagma.so:magma_ssytrd_gpu
libmagma.so:magma_ssytrd_mgpu
libmagma.so:magma_ssytrd_sb2st
libmagma.so:magma_ssytrd_sy2sb
libmagma.so:magma_ssytrd_sy2sb_mgpu
libmagma.so:magma_ssytrf
libmagma.so:magma_ssytrf_aasen
libmagma.so:magma_ssytrf_gpu
libmagma.so:magma_ssytrf_nopiv
libmagma.so:magma_ssytrf_nopiv_cpu
libmagma.so:magma_ssytrf_nopiv_gpu
libmagma.so:magma_ssytrs_gpu
libmagma.so:magma_ssytrs_nopiv_gpu
libmagma.so:magma_storev_const
libmagma.so:magma_strerror
libmagma.so:magma_strevc3
libmagma.so:magma_strevc3_mt
libmagma.so:magma_strlcpy
libmagma.so:magma_strmm
libmagma.so:magma_strmv
libmagma.so:magma_strmv_kernel
libmagma.so:magma_strmv_kernel2
libmagma.so:magma_strmv_tkernel
libmagma.so:magma_strsm
libmagma.so:magma_strsm_m
libmagma.so:magma_strsv
libmagma.so:magma_strtri
libmagma.so:magma_strtri_gpu
libmagma.so:magma_svrange
libmagma.so:magma_swp2pswp
libmagma.so:magma_sym_const
libmagma.so:magma_sync_wtime
libmagma.so:magma_syr2k_vbatched_checker
libmagma.so:magma_syrk_vbatched_checker
libmagma.so:magma_thread_main
libmagma.so:magma_trans_const
libmagma.so:magma_trmm_vbatched_checker
libmagma.so:magma_trsm_vbatched_checker
libmagma.so:magma_uplo_const
libmagma.so:magma_vec_const
libmagma.so:magma_vect_const
libmagma.so:magma_version
libmagma.so:magma_wtime
libmagma.so:magma_xerbla
libmagma.so:magma_xhsgetrf_gpu
libmagma.so:magma_xshgetrf_gpu
libmagma.so:magma_yield
libmagma.so:magma_z_isinf
libmagma.so:magma_z_isnan
libmagma.so:magma_z_isnan_inf
libmagma.so:magma_zaxpy
libmagma.so:magma_zbulge_applyQ_v2
libmagma.so:magma_zbulge_applyQ_v2_m
libmagma.so:magma_zbulge_back
libmagma.so:magma_zbulge_back_m
libmagma.so:magma_zbulge_getlwstg2
libmagma.so:magma_zbulge_getstg2size
libmagma.so:magma_zcgeqrsv_gpu
libmagma.so:magma_zcgesv_gpu
libmagma.so:magma_zcgetrs_gpu
libmagma.so:magma_zchesv_gpu
libmagma.so:magma_zcomputecolumn_batched
libmagma.so:magma_zcopy
libmagma.so:magma_zcposv_gpu
libmagma.so:magma_zdisplace_pointers
libmagma.so:magma_zdisplace_pointers_var_cc
libmagma.so:magma_zdisplace_pointers_var_cv
libmagma.so:magma_zdisplace_pointers_var_vc
libmagma.so:magma_zdisplace_pointers_var_vv
libmagma.so:magma_zdotc
libmagma.so:magma_zdotu
libmagma.so:magma_zdrot
libmagma.so:magma_zdscal
libmagma.so:magma_zdtohpo
libmagma.so:magma_zgbtrf_batched
libmagma.so:magma_zgebrd
libmagma.so:magma_zgeev
libmagma.so:magma_zgeev_m
libmagma.so:magma_zgegqr_gpu
libmagma.so:magma_zgehrd
libmagma.so:magma_zgehrd2
libmagma.so:magma_zgehrd_m
libmagma.so:magma_zgelqf
libmagma.so:magma_zgelqf_gpu
libmagma.so:magma_zgels
libmagma.so:magma_zgels3_gpu
libmagma.so:magma_zgels_gpu
libmagma.so:magma_zgemm
libmagma.so:magma_zgemm_batched
libmagma.so:magma_zgemm_batched_core
libmagma.so:magma_zgemv
libmagma.so:magma_zgemv_kernel1
libmagma.so:magma_zgemv_kernel2
libmagma.so:magma_zgemv_kernel3
libmagma.so:magma_zgeqlf
libmagma.so:magma_zgeqp3
libmagma.so:magma_zgeqp3_gpu
libmagma.so:magma_zgeqr2_batched
libmagma.so:magma_zgeqr2_gpu
libmagma.so:magma_zgeqr2x2_gpu
libmagma.so:magma_zgeqr2x3_gpu
libmagma.so:magma_zgeqr2x4_gpu
libmagma.so:magma_zgeqr2x_gpu
libmagma.so:magma_zgeqrf
libmagma.so:magma_zgeqrf2_gpu
libmagma.so:magma_zgeqrf2_mgpu
libmagma.so:magma_zgeqrf3_gpu
libmagma.so:magma_zgeqrf_batched
libmagma.so:magma_zgeqrf_batched_smallsq
libmagma.so:magma_zgeqrf_expert_batched
libmagma.so:magma_zgeqrf_gpu
libmagma.so:magma_zgeqrf_m
libmagma.so:magma_zgeqrf_ooc
libmagma.so:magma_zgeqrf_panel_batched
libmagma.so:magma_zgeqrs3_gpu
libmagma.so:magma_zgeqrs_gpu
libmagma.so:magma_zgerbt_batched
libmagma.so:magma_zgerbt_gpu
libmagma.so:magma_zgerc
libmagma.so:magma_zgerfs_nopiv_gpu
libmagma.so:magma_zgeru
libmagma.so:magma_zgesdd
libmagma.so:magma_zgesv
libmagma.so:magma_zgesv_batched
libmagma.so:magma_zgesv_batched_small
libmagma.so:magma_zgesv_gpu
libmagma.so:magma_zgesv_nopiv_batched
libmagma.so:magma_zgesv_nopiv_gpu
libmagma.so:magma_zgesv_rbt
libmagma.so:magma_zgesv_rbt_batched
libmagma.so:magma_zgesvd
libmagma.so:magma_zgetf2_batched
libmagma.so:magma_zgetf2_batched_v1
libmagma.so:magma_zgetf2_batched_v2
libmagma.so:magma_zgetf2_fused_batched
libmagma.so:magma_zgetf2_gpu
libmagma.so:magma_zgetf2_native
libmagma.so:magma_zgetf2_native_fused
libmagma.so:magma_zgetf2_nopiv
libmagma.so:magma_zgetf2_nopiv_batched
libmagma.so:magma_zgetf2_nopiv_internal_batched
libmagma.so:magma_zgetf2_vbatched
libmagma.so:magma_zgetf2trsm_2d_native
libmagma.so:magma_zgetf2trsm_batched
libmagma.so:magma_zgetmatrix_1D_col_bcyclic
libmagma.so:magma_zgetmatrix_1D_col_bcyclic_v1
libmagma.so:magma_zgetmatrix_1D_row_bcyclic
libmagma.so:magma_zgetmatrix_1D_row_bcyclic_v1
libmagma.so:magma_zgetrf
libmagma.so:magma_zgetrf2_mgpu
libmagma.so:magma_zgetrf_batched
libmagma.so:magma_zgetrf_batched_smallsq_noshfl
libmagma.so:magma_zgetrf_batched_smallsq_shfl
libmagma.so:magma_zgetrf_gpu
libmagma.so:magma_zgetrf_gpu_expert
libmagma.so:magma_zgetrf_m
libmagma.so:magma_zgetrf_mgpu
libmagma.so:magma_zgetrf_native
libmagma.so:magma_zgetrf_nopiv
libmagma.so:magma_zgetrf_nopiv_batched
libmagma.so:magma_zgetrf_nopiv_gpu
libmagma.so:magma_zgetrf_panel_nopiv_batched
libmagma.so:magma_zgetrf_piv
libmagma.so:magma_zgetrf_recpanel_batched
libmagma.so:magma_zgetrf_recpanel_native
libmagma.so:magma_zgetrf_recpanel_nopiv_batched
libmagma.so:magma_zgetrf_recpanel_vbatched
libmagma.so:magma_zgetrf_vbatched
libmagma.so:magma_zgetrf_vbatched_max_nocheck
libmagma.so:magma_zgetri_gpu
libmagma.so:magma_zgetri_outofplace_batched
libmagma.so:magma_zgetrs_batched
libmagma.so:magma_zgetrs_gpu
libmagma.so:magma_zgetrs_nopiv_batched
libmagma.so:magma_zgetrs_nopiv_gpu
libmagma.so:magma_zgglse
libmagma.so:magma_zggrqf
libmagma.so:magma_zhbtype1cb
libmagma.so:magma_zhbtype2cb
libmagma.so:magma_zhbtype3cb
libmagma.so:magma_zheevd
libmagma.so:magma_zheevd_gpu
libmagma.so:magma_zheevd_m
libmagma.so:magma_zheevdx
libmagma.so:magma_zheevdx_2stage
libmagma.so:magma_zheevdx_2stage_m
libmagma.so:magma_zheevdx_getworksize
libmagma.so:magma_zheevdx_gpu
libmagma.so:magma_zheevdx_m
libmagma.so:magma_zheevr
libmagma.so:magma_zheevr_gpu
libmagma.so:magma_zheevx
libmagma.so:magma_zheevx_gpu
libmagma.so:magma_zhegst
libmagma.so:magma_zhegst_gpu
libmagma.so:magma_zhegst_m
libmagma.so:magma_zhegvd
libmagma.so:magma_zhegvd_m
libmagma.so:magma_zhegvdx
libmagma.so:magma_zhegvdx_2stage
libmagma.so:magma_zhegvdx_2stage_m
libmagma.so:magma_zhegvdx_m
libmagma.so:magma_zhegvr
libmagma.so:magma_zhegvx
libmagma.so:magma_zhemm
libmagma.so:magma_zhemv
libmagma.so:magma_zher
libmagma.so:magma_zher2
libmagma.so:magma_zher2k
libmagma.so:magma_zher2k_mgpu
libmagma.so:magma_zherk
libmagma.so:magma_zherk_batched
libmagma.so:magma_zherk_mgpu
libmagma.so:magma_zherk_mgpu2
libmagma.so:magma_zhesv
libmagma.so:magma_zhesv_nopiv_gpu
libmagma.so:magma_zhetrd
libmagma.so:magma_zhetrd2_gpu
libmagma.so:magma_zhetrd_gpu
libmagma.so:magma_zhetrd_hb2st
libmagma.so:magma_zhetrd_he2hb
libmagma.so:magma_zhetrd_he2hb_mgpu
libmagma.so:magma_zhetrd_mgpu
libmagma.so:magma_zhetrf
libmagma.so:magma_zhetrf_aasen
libmagma.so:magma_zhetrf_gpu
libmagma.so:magma_zhetrf_nopiv
libmagma.so:magma_zhetrf_nopiv_cpu
libmagma.so:magma_zhetrf_nopiv_gpu
libmagma.so:magma_zhetrs_gpu
libmagma.so:magma_zhetrs_nopiv_gpu
libmagma.so:magma_zhtodhe
libmagma.so:magma_zhtodpo
libmagma.so:magma_zlabrd_gpu
libmagma.so:magma_zlahef_gpu
libmagma.so:magma_zlahr2
libmagma.so:magma_zlahr2_m
libmagma.so:magma_zlahru
libmagma.so:magma_zlahru_m
libmagma.so:magma_zlaqps
libmagma.so:magma_zlaqps2_gpu
libmagma.so:magma_zlaqps_gpu
libmagma.so:magma_zlarf_gpu
libmagma.so:magma_zlarf_sm
libmagma.so:magma_zlarfb2_gpu
libmagma.so:magma_zlarfb_gemm_batched
libmagma.so:magma_zlarfb_gpu
libmagma.so:magma_zlarfb_gpu_gemm
libmagma.so:magma_zlarfb_gpu_gemm_v1
libmagma.so:magma_zlarfb_gpu_v1
libmagma.so:magma_zlarfbx_gpu
libmagma.so:magma_zlarfbx_gpu_v1
libmagma.so:magma_zlarfg_gpu
libmagma.so:magma_zlarfg_gpu_v1
libmagma.so:magma_zlarfgtx_gpu
libmagma.so:magma_zlarfgtx_gpu_v1
libmagma.so:magma_zlarfgx_gpu
libmagma.so:magma_zlarfgx_gpu_v1
libmagma.so:magma_zlarft_batched
libmagma.so:magma_zlarft_sm32x32_batched
libmagma.so:magma_zlarfx_gpu
libmagma.so:magma_zlarfx_gpu_v1
libmagma.so:magma_zlarfy
libmagma.so:magma_zlaswp_columnserial
libmagma.so:magma_zlaswp_columnserial_batched
libmagma.so:magma_zlaswp_left_rowserial_vbatched
libmagma.so:magma_zlaswp_right_rowserial_vbatched
libmagma.so:magma_zlaswp_rowparallel_batched
libmagma.so:magma_zlaswp_rowparallel_native
libmagma.so:magma_zlaswp_rowserial_batched
libmagma.so:magma_zlaswp_rowserial_native
libmagma.so:magma_zlatrd
libmagma.so:magma_zlatrd2
libmagma.so:magma_zlatrd_mgpu
libmagma.so:magma_zlatrsd
libmagma.so:magma_zlauum
libmagma.so:magma_zlauum_gpu
libmagma.so:magma_zmake_lwork
libmagma.so:magma_znan_inf
libmagma.so:magma_znan_inf_gpu
libmagma.so:magma_zpanel_to_q
libmagma.so:magma_zposv
libmagma.so:magma_zposv_batched
libmagma.so:magma_zposv_gpu
libmagma.so:magma_zpotf2_batched
libmagma.so:magma_zpotf2_gpu
libmagma.so:magma_zpotf2_lpin
libmagma.so:magma_zpotf2_lpout
libmagma.so:magma_zpotf2_vbatched
libmagma.so:magma_zpotrf
libmagma.so:magma_zpotrf3_mgpu
libmagma.so:magma_zpotrf_batched
libmagma.so:magma_zpotrf_expert
libmagma.so:magma_zpotrf_expert_gpu
libmagma.so:magma_zpotrf_gpu
libmagma.so:magma_zpotrf_lg_batched
libmagma.so:magma_zpotrf_lg_vbatched
libmagma.so:magma_zpotrf_lpin_batched
libmagma.so:magma_zpotrf_lpout_batched
libmagma.so:magma_zpotrf_lpout_vbatched
libmagma.so:magma_zpotrf_m
libmagma.so:magma_zpotrf_mgpu
libmagma.so:magma_zpotrf_native
libmagma.so:magma_zpotrf_panel_batched
libmagma.so:magma_zpotrf_panel_vbatched
libmagma.so:magma_zpotrf_recpanel_batched
libmagma.so:magma_zpotrf_rectile_batched
libmagma.so:magma_zpotrf_rectile_native
libmagma.so:magma_zpotrf_vbatched
libmagma.so:magma_zpotrf_vbatched_max_nocheck
libmagma.so:magma_zpotri
libmagma.so:magma_zpotri_gpu
libmagma.so:magma_zpotrs_batched
libmagma.so:magma_zpotrs_gpu
libmagma.so:magma_zprint
libmagma.so:magma_zprint_gpu
libmagma.so:magma_zq_to_panel
libmagma.so:magma_zrecommend_cublas_gemm_batched
libmagma.so:magma_zrecommend_cublas_gemm_stream
libmagma.so:magma_zrot
libmagma.so:magma_zrotg
libmagma.so:magma_zscal
libmagma.so:magma_zscal_zgeru_batched
libmagma.so:magma_zscal_zgeru_native
libmagma.so:magma_zscal_zgeru_vbatched
libmagma.so:magma_zset_pointer
libmagma.so:magma_zset_pointer_var_cc
libmagma.so:magma_zsetmatrix_1D_col_bcyclic
libmagma.so:magma_zsetmatrix_1D_col_bcyclic_v1
libmagma.so:magma_zsetmatrix_1D_row_bcyclic
libmagma.so:magma_zsetmatrix_1D_row_bcyclic_v1
libmagma.so:magma_zsetvector_const
libmagma.so:magma_zsqrt
libmagma.so:magma_zstedx
libmagma.so:magma_zstedx_m
libmagma.so:magma_zswap
libmagma.so:magma_zswap_batched
libmagma.so:magma_zswap_native
libmagma.so:magma_zswap_vbatched
libmagma.so:magma_zsymm
libmagma.so:magma_zsymv
libmagma.so:magma_zsyr
libmagma.so:magma_zsyr2
libmagma.so:magma_zsyr2k
libmagma.so:magma_zsyrk
libmagma.so:magma_zsysv_nopiv_gpu
libmagma.so:magma_zsytrf_nopiv_cpu
libmagma.so:magma_zsytrf_nopiv_gpu
libmagma.so:magma_zsytrs_nopiv_gpu
libmagma.so:magma_ztrevc3
libmagma.so:magma_ztrevc3_mt
libmagma.so:magma_ztrmm
libmagma.so:magma_ztrmv
libmagma.so:magma_ztrmv_kernel
libmagma.so:magma_ztrmv_kernel2
libmagma.so:magma_ztrmv_tkernel
libmagma.so:magma_ztrsm
libmagma.so:magma_ztrsm_m
libmagma.so:magma_ztrsv
libmagma.so:magma_ztrtri
libmagma.so:magma_ztrtri_gpu
libmagma.so:magma_zungbr
libmagma.so:magma_zunghr
libmagma.so:magma_zunghr_m
libmagma.so:magma_zunglq
libmagma.so:magma_zungqr
libmagma.so:magma_zungqr2
libmagma.so:magma_zungqr_2stage_gpu
libmagma.so:magma_zungqr_gpu
libmagma.so:magma_zungqr_m
libmagma.so:magma_zungtr
libmagma.so:magma_zunmbr
libmagma.so:magma_zunmlq
libmagma.so:magma_zunmql
libmagma.so:magma_zunmql2_gpu
libmagma.so:magma_zunmqr
libmagma.so:magma_zunmqr2_gpu
libmagma.so:magma_zunmqr_2stage_gpu
libmagma.so:magma_zunmqr_gpu
libmagma.so:magma_zunmqr_m
libmagma.so:magma_zunmrq
libmagma.so:magma_zunmtr
libmagma.so:magma_zunmtr_gpu
libmagma.so:magma_zunmtr_m
libmagma.so:magmablasGetKernelStream
libmagma.so:magmablasGetQueue
libmagma.so:magmablasSetKernelStream
libmagma.so:magmablas_caxpycp
libmagma.so:magmablas_caxpycp_v1
libmagma.so:magmablas_cdiinertia
libmagma.so:magmablas_cgeadd
libmagma.so:magmablas_cgeadd2
libmagma.so:magmablas_cgeadd2_v1
libmagma.so:magmablas_cgeadd_batched
libmagma.so:magmablas_cgeadd_v1
libmagma.so:magmablas_cgeam
libmagma.so:magmablas_cgemm
libmagma.so:magmablas_cgemm_batched
libmagma.so:magmablas_cgemm_batched_core
libmagma.so:magmablas_cgemm_batched_smallsq
libmagma.so:magmablas_cgemm_batched_strided
libmagma.so:magmablas_cgemm_reduce
libmagma.so:magmablas_cgemm_reduce_v1
libmagma.so:magmablas_cgemm_v1
libmagma.so:magmablas_cgemm_vbatched
libmagma.so:magmablas_cgemm_vbatched_core
libmagma.so:magmablas_cgemm_vbatched_max
libmagma.so:magmablas_cgemm_vbatched_max_nocheck
libmagma.so:magmablas_cgemm_vbatched_nocheck
libmagma.so:magmablas_cgemv
libmagma.so:magmablas_cgemv_batched
libmagma.so:magmablas_cgemv_conj
libmagma.so:magmablas_cgemv_conj_v1
libmagma.so:magmablas_cgemv_v1
libmagma.so:magmablas_cgemv_vbatched
libmagma.so:magmablas_cgemv_vbatched_max
libmagma.so:magmablas_cgemv_vbatched_max_nocheck
libmagma.so:magmablas_cgemv_vbatched_nocheck
libmagma.so:magmablas_cgetmatrix_transpose
libmagma.so:magmablas_cgetmatrix_transpose_mgpu
libmagma.so:magmablas_cgetmatrix_transpose_v1
libmagma.so:magmablas_cheinertia
libmagma.so:magmablas_chemm
libmagma.so:magmablas_chemm_batched
libmagma.so:magmablas_chemm_batched_core
libmagma.so:magmablas_chemm_mgpu
libmagma.so:magmablas_chemm_vbatched
libmagma.so:magmablas_chemm_vbatched_core
libmagma.so:magmablas_chemm_vbatched_max
libmagma.so:magmablas_chemm_vbatched_max_nocheck
libmagma.so:magmablas_chemm_vbatched_nocheck
libmagma.so:magmablas_chemv
libmagma.so:magmablas_chemv_batched
libmagma.so:magmablas_chemv_batched_core
libmagma.so:magmablas_chemv_mgpu
libmagma.so:magmablas_chemv_mgpu_sync
libmagma.so:magmablas_chemv_v1
libmagma.so:magmablas_chemv_vbatched
libmagma.so:magmablas_chemv_vbatched_core
libmagma.so:magmablas_chemv_vbatched_max
libmagma.so:magmablas_chemv_vbatched_max_nocheck
libmagma.so:magmablas_chemv_vbatched_nocheck
libmagma.so:magmablas_chemv_work
libmagma.so:magmablas_cher2k
libmagma.so:magmablas_cher2k_batched
libmagma.so:magmablas_cher2k_mgpu2
libmagma.so:magmablas_cher2k_vbatched
libmagma.so:magmablas_cher2k_vbatched_max
libmagma.so:magmablas_cher2k_vbatched_max_nocheck
libmagma.so:magmablas_cher2k_vbatched_nocheck
libmagma.so:magmablas_cherk
libmagma.so:magmablas_cherk_batched
libmagma.so:magmablas_cherk_batched_core
libmagma.so:magmablas_cherk_internal
libmagma.so:magmablas_cherk_internal_vbatched
libmagma.so:magmablas_cherk_small_reduce
libmagma.so:magmablas_cherk_vbatched
libmagma.so:magmablas_cherk_vbatched_max
libmagma.so:magmablas_cherk_vbatched_max_nocheck
libmagma.so:magmablas_cherk_vbatched_nocheck
libmagma.so:magmablas_clacpy
libmagma.so:magmablas_clacpy_batched
libmagma.so:magmablas_clacpy_conj
libmagma.so:magmablas_clacpy_conj_v1
libmagma.so:magmablas_clacpy_sym_in
libmagma.so:magmablas_clacpy_sym_in_v1
libmagma.so:magmablas_clacpy_sym_out
libmagma.so:magmablas_clacpy_sym_out_v1
libmagma.so:magmablas_clacpy_v1
libmagma.so:magmablas_clacpy_vbatched
libmagma.so:magmablas_clag2z
libmagma.so:magmablas_clag2z_v1
libmagma.so:magmablas_clange
libmagma.so:magmablas_clange_v1
libmagma.so:magmablas_clanhe
libmagma.so:magmablas_clanhe_v1
libmagma.so:magmablas_clarfg
libmagma.so:magmablas_clarfg_v1
libmagma.so:magmablas_clarft_ctrmv_sm32x32
libmagma.so:magmablas_clarft_ctrmv_sm32x32_batched
libmagma.so:magmablas_clarft_gemv_loop_inside
libmagma.so:magmablas_clarft_gemv_loop_inside_batched
libmagma.so:magmablas_clarft_gemvcolwise
libmagma.so:magmablas_clarft_gemvcolwise_batched
libmagma.so:magmablas_clarft_gemvrowwise
libmagma.so:magmablas_clarft_gemvrowwise_batched
libmagma.so:magmablas_clarft_recctrmv_sm32x32
libmagma.so:magmablas_clarft_recctrmv_sm32x32_batched
libmagma.so:magmablas_clascl
libmagma.so:magmablas_clascl2
libmagma.so:magmablas_clascl2_v1
libmagma.so:magmablas_clascl_2x2
libmagma.so:magmablas_clascl_2x2_v1
libmagma.so:magmablas_clascl_diag
libmagma.so:magmablas_clascl_diag_v1
libmagma.so:magmablas_clascl_v1
libmagma.so:magmablas_claset
libmagma.so:magmablas_claset_band
libmagma.so:magmablas_claset_band_v1
libmagma.so:magmablas_claset_batched
libmagma.so:magmablas_claset_v1
libmagma.so:magmablas_claset_vbatched
libmagma.so:magmablas_claswp
libmagma.so:magmablas_claswp2
libmagma.so:magmablas_claswp2_v1
libmagma.so:magmablas_claswp_sym
libmagma.so:magmablas_claswp_sym_v1
libmagma.so:magmablas_claswp_v1
libmagma.so:magmablas_claswpx
libmagma.so:magmablas_claswpx_v1
libmagma.so:magmablas_clat2z
libmagma.so:magmablas_clat2z_v1
libmagma.so:magmablas_convert_dp2hp
libmagma.so:magmablas_convert_hp2dp
libmagma.so:magmablas_convert_hp2sp
libmagma.so:magmablas_convert_sp2hp
libmagma.so:magmablas_cprbt
libmagma.so:magmablas_cprbt_batched
libmagma.so:magmablas_cprbt_mtv
libmagma.so:magmablas_cprbt_mtv_batched
libmagma.so:magmablas_cprbt_mtv_v1
libmagma.so:magmablas_cprbt_mv
libmagma.so:magmablas_cprbt_mv_batched
libmagma.so:magmablas_cprbt_mv_v1
libmagma.so:magmablas_cprbt_v1
libmagma.so:magmablas_csetmatrix_transpose
libmagma.so:magmablas_csetmatrix_transpose_mgpu
libmagma.so:magmablas_csetmatrix_transpose_v1
libmagma.so:magmablas_cswap
libmagma.so:magmablas_cswap_v1
libmagma.so:magmablas_cswapblk
libmagma.so:magmablas_cswapblk_v1
libmagma.so:magmablas_cswapdblk
libmagma.so:magmablas_cswapdblk_v1
libmagma.so:magmablas_csymm
libmagma.so:magmablas_csymmetrize
libmagma.so:magmablas_csymmetrize_tiles
libmagma.so:magmablas_csymmetrize_tiles_v1
libmagma.so:magmablas_csymmetrize_v1
libmagma.so:magmablas_csymv
libmagma.so:magmablas_csymv_v1
libmagma.so:magmablas_csymv_work
libmagma.so:magmablas_csyr2k
libmagma.so:magmablas_csyr2k_batched
libmagma.so:magmablas_csyr2k_vbatched
libmagma.so:magmablas_csyr2k_vbatched_max
libmagma.so:magmablas_csyr2k_vbatched_max_nocheck
libmagma.so:magmablas_csyr2k_vbatched_nocheck
libmagma.so:magmablas_csyrk
libmagma.so:magmablas_csyrk_batched
libmagma.so:magmablas_csyrk_batched_core
libmagma.so:magmablas_csyrk_internal_vbatched
libmagma.so:magmablas_csyrk_vbatched
libmagma.so:magmablas_csyrk_vbatched_max
libmagma.so:magmablas_csyrk_vbatched_max_nocheck
libmagma.so:magmablas_csyrk_vbatched_nocheck
libmagma.so:magmablas_ctranspose
libmagma.so:magmablas_ctranspose_batched
libmagma.so:magmablas_ctranspose_batched_stride
libmagma.so:magmablas_ctranspose_conj
libmagma.so:magmablas_ctranspose_conj_batched
libmagma.so:magmablas_ctranspose_conj_inplace
libmagma.so:magmablas_ctranspose_conj_inplace_v1
libmagma.so:magmablas_ctranspose_conj_v1
libmagma.so:magmablas_ctranspose_inplace
libmagma.so:magmablas_ctranspose_inplace_v1
libmagma.so:magmablas_ctranspose_v1
libmagma.so:magmablas_ctrmm
libmagma.so:magmablas_ctrmm_batched
libmagma.so:magmablas_ctrmm_batched_core
libmagma.so:magmablas_ctrmm_vbatched
libmagma.so:magmablas_ctrmm_vbatched_core
libmagma.so:magmablas_ctrmm_vbatched_max
libmagma.so:magmablas_ctrmm_vbatched_max_nocheck
libmagma.so:magmablas_ctrmm_vbatched_nocheck
libmagma.so:magmablas_ctrmv
libmagma.so:magmablas_ctrsm
libmagma.so:magmablas_ctrsm_batched
libmagma.so:magmablas_ctrsm_inv_batched
libmagma.so:magmablas_ctrsm_inv_outofplace_batched
libmagma.so:magmablas_ctrsm_inv_outofplace_vbatched
libmagma.so:magmablas_ctrsm_inv_vbatched
libmagma.so:magmablas_ctrsm_inv_vbatched_max
libmagma.so:magmablas_ctrsm_inv_vbatched_max_nocheck
libmagma.so:magmablas_ctrsm_inv_vbatched_nocheck
libmagma.so:magmablas_ctrsm_inv_work_batched
libmagma.so:magmablas_ctrsm_inv_work_vbatched
libmagma.so:magmablas_ctrsm_outofplace
libmagma.so:magmablas_ctrsm_outofplace_v1
libmagma.so:magmablas_ctrsm_recursive_batched
libmagma.so:magmablas_ctrsm_small_batched
libmagma.so:magmablas_ctrsm_small_vbatched
libmagma.so:magmablas_ctrsm_v1
libmagma.so:magmablas_ctrsm_vbatched
libmagma.so:magmablas_ctrsm_vbatched_core
libmagma.so:magmablas_ctrsm_vbatched_max
libmagma.so:magmablas_ctrsm_vbatched_max_nocheck
libmagma.so:magmablas_ctrsm_vbatched_nocheck
libmagma.so:magmablas_ctrsm_work
libmagma.so:magmablas_ctrsm_work_v1
libmagma.so:magmablas_ctrsv
libmagma.so:magmablas_ctrsv_batched
libmagma.so:magmablas_ctrsv_outofplace
libmagma.so:magmablas_ctrsv_outofplace_batched
libmagma.so:magmablas_ctrsv_recursive_outofplace
libmagma.so:magmablas_ctrsv_recursive_outofplace_batched
libmagma.so:magmablas_ctrsv_work_batched
libmagma.so:magmablas_ctrtri_diag
libmagma.so:magmablas_ctrtri_diag_batched
libmagma.so:magmablas_ctrtri_diag_v1
libmagma.so:magmablas_ctrtri_diag_vbatched
libmagma.so:magmablas_daxpycp
libmagma.so:magmablas_daxpycp_v1
libmagma.so:magmablas_ddiinertia
libmagma.so:magmablas_dgeadd
libmagma.so:magmablas_dgeadd2
libmagma.so:magmablas_dgeadd2_v1
libmagma.so:magmablas_dgeadd_batched
libmagma.so:magmablas_dgeadd_v1
libmagma.so:magmablas_dgeam
libmagma.so:magmablas_dgemm
libmagma.so:magmablas_dgemm_batched
libmagma.so:magmablas_dgemm_batched_core
libmagma.so:magmablas_dgemm_batched_smallsq
libmagma.so:magmablas_dgemm_batched_strided
libmagma.so:magmablas_dgemm_reduce
libmagma.so:magmablas_dgemm_reduce_v1
libmagma.so:magmablas_dgemm_v1
libmagma.so:magmablas_dgemm_vbatched
libmagma.so:magmablas_dgemm_vbatched_core
libmagma.so:magmablas_dgemm_vbatched_max
libmagma.so:magmablas_dgemm_vbatched_max_nocheck
libmagma.so:magmablas_dgemm_vbatched_nocheck
libmagma.so:magmablas_dgemv
libmagma.so:magmablas_dgemv_batched
libmagma.so:magmablas_dgemv_conj
libmagma.so:magmablas_dgemv_conj_v1
libmagma.so:magmablas_dgemv_v1
libmagma.so:magmablas_dgemv_vbatched
libmagma.so:magmablas_dgemv_vbatched_max
libmagma.so:magmablas_dgemv_vbatched_max_nocheck
libmagma.so:magmablas_dgemv_vbatched_nocheck
libmagma.so:magmablas_dgetmatrix_transpose
libmagma.so:magmablas_dgetmatrix_transpose_mgpu
libmagma.so:magmablas_dgetmatrix_transpose_v1
libmagma.so:magmablas_dlacpy
libmagma.so:magmablas_dlacpy_batched
libmagma.so:magmablas_dlacpy_conj
libmagma.so:magmablas_dlacpy_conj_v1
libmagma.so:magmablas_dlacpy_sym_in
libmagma.so:magmablas_dlacpy_sym_in_v1
libmagma.so:magmablas_dlacpy_sym_out
libmagma.so:magmablas_dlacpy_sym_out_v1
libmagma.so:magmablas_dlacpy_v1
libmagma.so:magmablas_dlacpy_vbatched
libmagma.so:magmablas_dlag2s
libmagma.so:magmablas_dlag2s_v1
libmagma.so:magmablas_dlange
libmagma.so:magmablas_dlange_v1
libmagma.so:magmablas_dlansy
libmagma.so:magmablas_dlansy_v1
libmagma.so:magmablas_dlarfg
libmagma.so:magmablas_dlarfg_v1
libmagma.so:magmablas_dlarft_dtrmv_sm32x32
libmagma.so:magmablas_dlarft_dtrmv_sm32x32_batched
libmagma.so:magmablas_dlarft_gemv_loop_inside
libmagma.so:magmablas_dlarft_gemv_loop_inside_batched
libmagma.so:magmablas_dlarft_gemvcolwise
libmagma.so:magmablas_dlarft_gemvcolwise_batched
libmagma.so:magmablas_dlarft_gemvrowwise
libmagma.so:magmablas_dlarft_gemvrowwise_batched
libmagma.so:magmablas_dlarft_recdtrmv_sm32x32
libmagma.so:magmablas_dlarft_recdtrmv_sm32x32_batched
libmagma.so:magmablas_dlascl
libmagma.so:magmablas_dlascl2
libmagma.so:magmablas_dlascl2_v1
libmagma.so:magmablas_dlascl_2x2
libmagma.so:magmablas_dlascl_2x2_v1
libmagma.so:magmablas_dlascl_diag
libmagma.so:magmablas_dlascl_diag_v1
libmagma.so:magmablas_dlascl_v1
libmagma.so:magmablas_dlaset
libmagma.so:magmablas_dlaset_band
libmagma.so:magmablas_dlaset_band_v1
libmagma.so:magmablas_dlaset_batched
libmagma.so:magmablas_dlaset_v1
libmagma.so:magmablas_dlaset_vbatched
libmagma.so:magmablas_dlaswp
libmagma.so:magmablas_dlaswp2
libmagma.so:magmablas_dlaswp2_v1
libmagma.so:magmablas_dlaswp_sym
libmagma.so:magmablas_dlaswp_sym_v1
libmagma.so:magmablas_dlaswp_v1
libmagma.so:magmablas_dlaswpx
libmagma.so:magmablas_dlaswpx_v1
libmagma.so:magmablas_dlat2s
libmagma.so:magmablas_dlat2s_v1
libmagma.so:magmablas_dnrm2_adjust
libmagma.so:magmablas_dnrm2_adjust_v1
libmagma.so:magmablas_dnrm2_check
libmagma.so:magmablas_dnrm2_check_v1
libmagma.so:magmablas_dnrm2_cols
libmagma.so:magmablas_dnrm2_cols_v1
libmagma.so:magmablas_dnrm2_row_check_adjust
libmagma.so:magmablas_dnrm2_row_check_adjust_v1
libmagma.so:magmablas_dnrm2_sm
libmagma.so:magmablas_dprbt
libmagma.so:magmablas_dprbt_batched
libmagma.so:magmablas_dprbt_mtv
libmagma.so:magmablas_dprbt_mtv_batched
libmagma.so:magmablas_dprbt_mtv_v1
libmagma.so:magmablas_dprbt_mv
libmagma.so:magmablas_dprbt_mv_batched
libmagma.so:magmablas_dprbt_mv_v1
libmagma.so:magmablas_dprbt_v1
libmagma.so:magmablas_dsaxpycp
libmagma.so:magmablas_dsaxpycp_v1
libmagma.so:magmablas_dsetmatrix_transpose
libmagma.so:magmablas_dsetmatrix_transpose_mgpu
libmagma.so:magmablas_dsetmatrix_transpose_v1
libmagma.so:magmablas_dsiinertia
libmagma.so:magmablas_dslaswp
libmagma.so:magmablas_dslaswp_v1
libmagma.so:magmablas_dswap
libmagma.so:magmablas_dswap_v1
libmagma.so:magmablas_dswapblk
libmagma.so:magmablas_dswapblk_v1
libmagma.so:magmablas_dswapdblk
libmagma.so:magmablas_dswapdblk_v1
libmagma.so:magmablas_dsymm
libmagma.so:magmablas_dsymm_batched
libmagma.so:magmablas_dsymm_batched_core
libmagma.so:magmablas_dsymm_mgpu
libmagma.so:magmablas_dsymm_vbatched
libmagma.so:magmablas_dsymm_vbatched_core
libmagma.so:magmablas_dsymm_vbatched_max
libmagma.so:magmablas_dsymm_vbatched_max_nocheck
libmagma.so:magmablas_dsymm_vbatched_nocheck
libmagma.so:magmablas_dsymmetrize
libmagma.so:magmablas_dsymmetrize_tiles
libmagma.so:magmablas_dsymmetrize_tiles_v1
libmagma.so:magmablas_dsymmetrize_v1
libmagma.so:magmablas_dsymv
libmagma.so:magmablas_dsymv_batched
libmagma.so:magmablas_dsymv_batched_core
libmagma.so:magmablas_dsymv_mgpu
libmagma.so:magmablas_dsymv_mgpu_sync
libmagma.so:magmablas_dsymv_v1
libmagma.so:magmablas_dsymv_vbatched
libmagma.so:magmablas_dsymv_vbatched_core
libmagma.so:magmablas_dsymv_vbatched_max
libmagma.so:magmablas_dsymv_vbatched_max_nocheck
libmagma.so:magmablas_dsymv_vbatched_nocheck
libmagma.so:magmablas_dsymv_work
libmagma.so:magmablas_dsyr2k
libmagma.so:magmablas_dsyr2k_batched
libmagma.so:magmablas_dsyr2k_mgpu2
libmagma.so:magmablas_dsyr2k_vbatched
libmagma.so:magmablas_dsyr2k_vbatched_max
libmagma.so:magmablas_dsyr2k_vbatched_max_nocheck
libmagma.so:magmablas_dsyr2k_vbatched_nocheck
libmagma.so:magmablas_dsyrk
libmagma.so:magmablas_dsyrk_batched
libmagma.so:magmablas_dsyrk_batched_core
libmagma.so:magmablas_dsyrk_internal
libmagma.so:magmablas_dsyrk_internal_vbatched
libmagma.so:magmablas_dsyrk_small_reduce
libmagma.so:magmablas_dsyrk_vbatched
libmagma.so:magmablas_dsyrk_vbatched_max
libmagma.so:magmablas_dsyrk_vbatched_max_nocheck
libmagma.so:magmablas_dsyrk_vbatched_nocheck
libmagma.so:magmablas_dtranspose
libmagma.so:magmablas_dtranspose_batched
libmagma.so:magmablas_dtranspose_batched_stride
libmagma.so:magmablas_dtranspose_inplace
libmagma.so:magmablas_dtranspose_inplace_v1
libmagma.so:magmablas_dtranspose_v1
libmagma.so:magmablas_dtrmm
libmagma.so:magmablas_dtrmm_batched
libmagma.so:magmablas_dtrmm_batched_core
libmagma.so:magmablas_dtrmm_vbatched
libmagma.so:magmablas_dtrmm_vbatched_core
libmagma.so:magmablas_dtrmm_vbatched_max
libmagma.so:magmablas_dtrmm_vbatched_max_nocheck
libmagma.so:magmablas_dtrmm_vbatched_nocheck
libmagma.so:magmablas_dtrmv
libmagma.so:magmablas_dtrsm
libmagma.so:magmablas_dtrsm_batched
libmagma.so:magmablas_dtrsm_inv_batched
libmagma.so:magmablas_dtrsm_inv_outofplace_batched
libmagma.so:magmablas_dtrsm_inv_outofplace_vbatched
libmagma.so:magmablas_dtrsm_inv_vbatched
libmagma.so:magmablas_dtrsm_inv_vbatched_max
libmagma.so:magmablas_dtrsm_inv_vbatched_max_nocheck
libmagma.so:magmablas_dtrsm_inv_vbatched_nocheck
libmagma.so:magmablas_dtrsm_inv_work_batched
libmagma.so:magmablas_dtrsm_inv_work_vbatched
libmagma.so:magmablas_dtrsm_outofplace
libmagma.so:magmablas_dtrsm_outofplace_v1
libmagma.so:magmablas_dtrsm_recursive_batched
libmagma.so:magmablas_dtrsm_small_batched
libmagma.so:magmablas_dtrsm_small_vbatched
libmagma.so:magmablas_dtrsm_v1
libmagma.so:magmablas_dtrsm_vbatched
libmagma.so:magmablas_dtrsm_vbatched_core
libmagma.so:magmablas_dtrsm_vbatched_max
libmagma.so:magmablas_dtrsm_vbatched_max_nocheck
libmagma.so:magmablas_dtrsm_vbatched_nocheck
libmagma.so:magmablas_dtrsm_work
libmagma.so:magmablas_dtrsm_work_v1
libmagma.so:magmablas_dtrsv
libmagma.so:magmablas_dtrsv_batched
libmagma.so:magmablas_dtrsv_outofplace
libmagma.so:magmablas_dtrsv_outofplace_batched
libmagma.so:magmablas_dtrsv_recursive_outofplace
libmagma.so:magmablas_dtrsv_recursive_outofplace_batched
libmagma.so:magmablas_dtrsv_work_batched
libmagma.so:magmablas_dtrtri_diag
libmagma.so:magmablas_dtrtri_diag_batched
libmagma.so:magmablas_dtrtri_diag_v1
libmagma.so:magmablas_dtrtri_diag_vbatched
libmagma.so:magmablas_dznrm2_adjust
libmagma.so:magmablas_dznrm2_adjust_v1
libmagma.so:magmablas_dznrm2_check
libmagma.so:magmablas_dznrm2_check_v1
libmagma.so:magmablas_dznrm2_cols
libmagma.so:magmablas_dznrm2_cols_v1
libmagma.so:magmablas_dznrm2_row_check_adjust
libmagma.so:magmablas_dznrm2_row_check_adjust_v1
libmagma.so:magmablas_dznrm2_sm
libmagma.so:magmablas_hgemm_batched
libmagma.so:magmablas_hlag2s
libmagma.so:magmablas_hlag2s_batched
libmagma.so:magmablas_hlaswp
libmagma.so:magmablas_hlaswp2
libmagma.so:magmablas_saxpycp
libmagma.so:magmablas_saxpycp_v1
libmagma.so:magmablas_scnrm2_adjust
libmagma.so:magmablas_scnrm2_adjust_v1
libmagma.so:magmablas_scnrm2_check
libmagma.so:magmablas_scnrm2_check_v1
libmagma.so:magmablas_scnrm2_cols
libmagma.so:magmablas_scnrm2_cols_v1
libmagma.so:magmablas_scnrm2_row_check_adjust
libmagma.so:magmablas_scnrm2_row_check_adjust_v1
libmagma.so:magmablas_scnrm2_sm
libmagma.so:magmablas_sdiinertia
libmagma.so:magmablas_sgeadd
libmagma.so:magmablas_sgeadd2
libmagma.so:magmablas_sgeadd2_v1
libmagma.so:magmablas_sgeadd_batched
libmagma.so:magmablas_sgeadd_v1
libmagma.so:magmablas_sgeam
libmagma.so:magmablas_sgemm
libmagma.so:magmablas_sgemm_batched
libmagma.so:magmablas_sgemm_batched_core
libmagma.so:magmablas_sgemm_batched_smallsq
libmagma.so:magmablas_sgemm_batched_strided
libmagma.so:magmablas_sgemm_reduce
libmagma.so:magmablas_sgemm_reduce_v1
libmagma.so:magmablas_sgemm_v1
libmagma.so:magmablas_sgemm_vbatched
libmagma.so:magmablas_sgemm_vbatched_core
libmagma.so:magmablas_sgemm_vbatched_max
libmagma.so:magmablas_sgemm_vbatched_max_nocheck
libmagma.so:magmablas_sgemm_vbatched_nocheck
libmagma.so:magmablas_sgemv
libmagma.so:magmablas_sgemv_batched
libmagma.so:magmablas_sgemv_conj
libmagma.so:magmablas_sgemv_conj_v1
libmagma.so:magmablas_sgemv_v1
libmagma.so:magmablas_sgemv_vbatched
libmagma.so:magmablas_sgemv_vbatched_max
libmagma.so:magmablas_sgemv_vbatched_max_nocheck
libmagma.so:magmablas_sgemv_vbatched_nocheck
libmagma.so:magmablas_sgetmatrix_transpose
libmagma.so:magmablas_sgetmatrix_transpose_mgpu
libmagma.so:magmablas_sgetmatrix_transpose_v1
libmagma.so:magmablas_slacpy
libmagma.so:magmablas_slacpy_batched
libmagma.so:magmablas_slacpy_conj
libmagma.so:magmablas_slacpy_conj_v1
libmagma.so:magmablas_slacpy_sym_in
libmagma.so:magmablas_slacpy_sym_in_v1
libmagma.so:magmablas_slacpy_sym_out
libmagma.so:magmablas_slacpy_sym_out_v1
libmagma.so:magmablas_slacpy_v1
libmagma.so:magmablas_slacpy_vbatched
libmagma.so:magmablas_slag2d
libmagma.so:magmablas_slag2d_v1
libmagma.so:magmablas_slag2h
libmagma.so:magmablas_slag2h_batched
libmagma.so:magmablas_slange
libmagma.so:magmablas_slange_v1
libmagma.so:magmablas_slansy
libmagma.so:magmablas_slansy_v1
libmagma.so:magmablas_slarfg
libmagma.so:magmablas_slarfg_v1
libmagma.so:magmablas_slarft_gemv_loop_inside
libmagma.so:magmablas_slarft_gemv_loop_inside_batched
libmagma.so:magmablas_slarft_gemvcolwise
libmagma.so:magmablas_slarft_gemvcolwise_batched
libmagma.so:magmablas_slarft_gemvrowwise
libmagma.so:magmablas_slarft_gemvrowwise_batched
libmagma.so:magmablas_slarft_recstrmv_sm32x32
libmagma.so:magmablas_slarft_recstrmv_sm32x32_batched
libmagma.so:magmablas_slarft_strmv_sm32x32
libmagma.so:magmablas_slarft_strmv_sm32x32_batched
libmagma.so:magmablas_slascl
libmagma.so:magmablas_slascl2
libmagma.so:magmablas_slascl2_v1
libmagma.so:magmablas_slascl_2x2
libmagma.so:magmablas_slascl_2x2_v1
libmagma.so:magmablas_slascl_diag
libmagma.so:magmablas_slascl_diag_v1
libmagma.so:magmablas_slascl_v1
libmagma.so:magmablas_slaset
libmagma.so:magmablas_slaset_band
libmagma.so:magmablas_slaset_band_v1
libmagma.so:magmablas_slaset_batched
libmagma.so:magmablas_slaset_v1
libmagma.so:magmablas_slaset_vbatched
libmagma.so:magmablas_slaswp
libmagma.so:magmablas_slaswp2
libmagma.so:magmablas_slaswp2_v1
libmagma.so:magmablas_slaswp_sym
libmagma.so:magmablas_slaswp_sym_v1
libmagma.so:magmablas_slaswp_v1
libmagma.so:magmablas_slaswpx
libmagma.so:magmablas_slaswpx_v1
libmagma.so:magmablas_slat2d
libmagma.so:magmablas_slat2d_v1
libmagma.so:magmablas_snrm2_adjust
libmagma.so:magmablas_snrm2_adjust_v1
libmagma.so:magmablas_snrm2_check
libmagma.so:magmablas_snrm2_check_v1
libmagma.so:magmablas_snrm2_cols
libmagma.so:magmablas_snrm2_cols_v1
libmagma.so:magmablas_snrm2_row_check_adjust
libmagma.so:magmablas_snrm2_row_check_adjust_v1
libmagma.so:magmablas_snrm2_sm
libmagma.so:magmablas_sprbt
libmagma.so:magmablas_sprbt_batched
libmagma.so:magmablas_sprbt_mtv
libmagma.so:magmablas_sprbt_mtv_batched
libmagma.so:magmablas_sprbt_mtv_v1
libmagma.so:magmablas_sprbt_mv
libmagma.so:magmablas_sprbt_mv_batched
libmagma.so:magmablas_sprbt_mv_v1
libmagma.so:magmablas_sprbt_v1
libmagma.so:magmablas_ssetmatrix_transpose
libmagma.so:magmablas_ssetmatrix_transpose_mgpu
libmagma.so:magmablas_ssetmatrix_transpose_v1
libmagma.so:magmablas_ssiinertia
libmagma.so:magmablas_sswap
libmagma.so:magmablas_sswap_v1
libmagma.so:magmablas_sswapblk
libmagma.so:magmablas_sswapblk_v1
libmagma.so:magmablas_sswapdblk
libmagma.so:magmablas_sswapdblk_v1
libmagma.so:magmablas_ssymm
libmagma.so:magmablas_ssymm_batched
libmagma.so:magmablas_ssymm_batched_core
libmagma.so:magmablas_ssymm_mgpu
libmagma.so:magmablas_ssymm_vbatched
libmagma.so:magmablas_ssymm_vbatched_core
libmagma.so:magmablas_ssymm_vbatched_max
libmagma.so:magmablas_ssymm_vbatched_max_nocheck
libmagma.so:magmablas_ssymm_vbatched_nocheck
libmagma.so:magmablas_ssymmetrize
libmagma.so:magmablas_ssymmetrize_tiles
libmagma.so:magmablas_ssymmetrize_tiles_v1
libmagma.so:magmablas_ssymmetrize_v1
libmagma.so:magmablas_ssymv
libmagma.so:magmablas_ssymv_batched
libmagma.so:magmablas_ssymv_batched_core
libmagma.so:magmablas_ssymv_mgpu
libmagma.so:magmablas_ssymv_mgpu_sync
libmagma.so:magmablas_ssymv_v1
libmagma.so:magmablas_ssymv_vbatched
libmagma.so:magmablas_ssymv_vbatched_core
libmagma.so:magmablas_ssymv_vbatched_max
libmagma.so:magmablas_ssymv_vbatched_max_nocheck
libmagma.so:magmablas_ssymv_vbatched_nocheck
libmagma.so:magmablas_ssymv_work
libmagma.so:magmablas_ssyr2k
libmagma.so:magmablas_ssyr2k_batched
libmagma.so:magmablas_ssyr2k_mgpu2
libmagma.so:magmablas_ssyr2k_vbatched
libmagma.so:magmablas_ssyr2k_vbatched_max
libmagma.so:magmablas_ssyr2k_vbatched_max_nocheck
libmagma.so:magmablas_ssyr2k_vbatched_nocheck
libmagma.so:magmablas_ssyrk
libmagma.so:magmablas_ssyrk_batched
libmagma.so:magmablas_ssyrk_batched_core
libmagma.so:magmablas_ssyrk_internal
libmagma.so:magmablas_ssyrk_internal_vbatched
libmagma.so:magmablas_ssyrk_small_reduce
libmagma.so:magmablas_ssyrk_vbatched
libmagma.so:magmablas_ssyrk_vbatched_max
libmagma.so:magmablas_ssyrk_vbatched_max_nocheck
libmagma.so:magmablas_ssyrk_vbatched_nocheck
libmagma.so:magmablas_stranspose
libmagma.so:magmablas_stranspose_batched
libmagma.so:magmablas_stranspose_batched_stride
libmagma.so:magmablas_stranspose_inplace
libmagma.so:magmablas_stranspose_inplace_v1
libmagma.so:magmablas_stranspose_v1
libmagma.so:magmablas_strmm
libmagma.so:magmablas_strmm_batched
libmagma.so:magmablas_strmm_batched_core
libmagma.so:magmablas_strmm_vbatched
libmagma.so:magmablas_strmm_vbatched_core
libmagma.so:magmablas_strmm_vbatched_max
libmagma.so:magmablas_strmm_vbatched_max_nocheck
libmagma.so:magmablas_strmm_vbatched_nocheck
libmagma.so:magmablas_strmv
libmagma.so:magmablas_strsm
libmagma.so:magmablas_strsm_batched
libmagma.so:magmablas_strsm_inv_batched
libmagma.so:magmablas_strsm_inv_outofplace_batched
libmagma.so:magmablas_strsm_inv_outofplace_vbatched
libmagma.so:magmablas_strsm_inv_vbatched
libmagma.so:magmablas_strsm_inv_vbatched_max
libmagma.so:magmablas_strsm_inv_vbatched_max_nocheck
libmagma.so:magmablas_strsm_inv_vbatched_nocheck
libmagma.so:magmablas_strsm_inv_work_batched
libmagma.so:magmablas_strsm_inv_work_vbatched
libmagma.so:magmablas_strsm_outofplace
libmagma.so:magmablas_strsm_outofplace_v1
libmagma.so:magmablas_strsm_recursive_batched
libmagma.so:magmablas_strsm_small_batched
libmagma.so:magmablas_strsm_small_vbatched
libmagma.so:magmablas_strsm_v1
libmagma.so:magmablas_strsm_vbatched
libmagma.so:magmablas_strsm_vbatched_core
libmagma.so:magmablas_strsm_vbatched_max
libmagma.so:magmablas_strsm_vbatched_max_nocheck
libmagma.so:magmablas_strsm_vbatched_nocheck
libmagma.so:magmablas_strsm_work
libmagma.so:magmablas_strsm_work_v1
libmagma.so:magmablas_strsv
libmagma.so:magmablas_strsv_batched
libmagma.so:magmablas_strsv_outofplace
libmagma.so:magmablas_strsv_outofplace_batched
libmagma.so:magmablas_strsv_recursive_outofplace
libmagma.so:magmablas_strsv_recursive_outofplace_batched
libmagma.so:magmablas_strsv_work_batched
libmagma.so:magmablas_strtri_diag
libmagma.so:magmablas_strtri_diag_batched
libmagma.so:magmablas_strtri_diag_v1
libmagma.so:magmablas_strtri_diag_vbatched
libmagma.so:magmablas_zaxpycp
libmagma.so:magmablas_zaxpycp_v1
libmagma.so:magmablas_zcaxpycp
libmagma.so:magmablas_zcaxpycp_v1
libmagma.so:magmablas_zclaswp
libmagma.so:magmablas_zclaswp_v1
libmagma.so:magmablas_zdiinertia
libmagma.so:magmablas_zgeadd
libmagma.so:magmablas_zgeadd2
libmagma.so:magmablas_zgeadd2_v1
libmagma.so:magmablas_zgeadd_batched
libmagma.so:magmablas_zgeadd_v1
libmagma.so:magmablas_zgeam
libmagma.so:magmablas_zgemm
libmagma.so:magmablas_zgemm_batched
libmagma.so:magmablas_zgemm_batched_core
libmagma.so:magmablas_zgemm_batched_smallsq
libmagma.so:magmablas_zgemm_batched_strided
libmagma.so:magmablas_zgemm_reduce
libmagma.so:magmablas_zgemm_reduce_v1
libmagma.so:magmablas_zgemm_v1
libmagma.so:magmablas_zgemm_vbatched
libmagma.so:magmablas_zgemm_vbatched_core
libmagma.so:magmablas_zgemm_vbatched_max
libmagma.so:magmablas_zgemm_vbatched_max_nocheck
libmagma.so:magmablas_zgemm_vbatched_nocheck
libmagma.so:magmablas_zgemv
libmagma.so:magmablas_zgemv_batched
libmagma.so:magmablas_zgemv_conj
libmagma.so:magmablas_zgemv_conj_v1
libmagma.so:magmablas_zgemv_v1
libmagma.so:magmablas_zgemv_vbatched
libmagma.so:magmablas_zgemv_vbatched_max
libmagma.so:magmablas_zgemv_vbatched_max_nocheck
libmagma.so:magmablas_zgemv_vbatched_nocheck
libmagma.so:magmablas_zgetmatrix_transpose
libmagma.so:magmablas_zgetmatrix_transpose_mgpu
libmagma.so:magmablas_zgetmatrix_transpose_v1
libmagma.so:magmablas_zheinertia
libmagma.so:magmablas_zhemm
libmagma.so:magmablas_zhemm_batched
libmagma.so:magmablas_zhemm_batched_core
libmagma.so:magmablas_zhemm_mgpu
libmagma.so:magmablas_zhemm_vbatched
libmagma.so:magmablas_zhemm_vbatched_core
libmagma.so:magmablas_zhemm_vbatched_max
libmagma.so:magmablas_zhemm_vbatched_max_nocheck
libmagma.so:magmablas_zhemm_vbatched_nocheck
libmagma.so:magmablas_zhemv
libmagma.so:magmablas_zhemv_batched
libmagma.so:magmablas_zhemv_batched_core
libmagma.so:magmablas_zhemv_mgpu
libmagma.so:magmablas_zhemv_mgpu_sync
libmagma.so:magmablas_zhemv_v1
libmagma.so:magmablas_zhemv_vbatched
libmagma.so:magmablas_zhemv_vbatched_core
libmagma.so:magmablas_zhemv_vbatched_max
libmagma.so:magmablas_zhemv_vbatched_max_nocheck
libmagma.so:magmablas_zhemv_vbatched_nocheck
libmagma.so:magmablas_zhemv_work
libmagma.so:magmablas_zher2k
libmagma.so:magmablas_zher2k_batched
libmagma.so:magmablas_zher2k_mgpu2
libmagma.so:magmablas_zher2k_vbatched
libmagma.so:magmablas_zher2k_vbatched_max
libmagma.so:magmablas_zher2k_vbatched_max_nocheck
libmagma.so:magmablas_zher2k_vbatched_nocheck
libmagma.so:magmablas_zherk
libmagma.so:magmablas_zherk_batched
libmagma.so:magmablas_zherk_batched_core
libmagma.so:magmablas_zherk_internal
libmagma.so:magmablas_zherk_internal_vbatched
libmagma.so:magmablas_zherk_small_reduce
libmagma.so:magmablas_zherk_vbatched
libmagma.so:magmablas_zherk_vbatched_max
libmagma.so:magmablas_zherk_vbatched_max_nocheck
libmagma.so:magmablas_zherk_vbatched_nocheck
libmagma.so:magmablas_zlacpy
libmagma.so:magmablas_zlacpy_batched
libmagma.so:magmablas_zlacpy_conj
libmagma.so:magmablas_zlacpy_conj_v1
libmagma.so:magmablas_zlacpy_sym_in
libmagma.so:magmablas_zlacpy_sym_in_v1
libmagma.so:magmablas_zlacpy_sym_out
libmagma.so:magmablas_zlacpy_sym_out_v1
libmagma.so:magmablas_zlacpy_v1
libmagma.so:magmablas_zlacpy_vbatched
libmagma.so:magmablas_zlag2c
libmagma.so:magmablas_zlag2c_v1
libmagma.so:magmablas_zlange
libmagma.so:magmablas_zlange_v1
libmagma.so:magmablas_zlanhe
libmagma.so:magmablas_zlanhe_v1
libmagma.so:magmablas_zlarfg
libmagma.so:magmablas_zlarfg_v1
libmagma.so:magmablas_zlarft_gemv_loop_inside
libmagma.so:magmablas_zlarft_gemv_loop_inside_batched
libmagma.so:magmablas_zlarft_gemvcolwise
libmagma.so:magmablas_zlarft_gemvcolwise_batched
libmagma.so:magmablas_zlarft_gemvrowwise
libmagma.so:magmablas_zlarft_gemvrowwise_batched
libmagma.so:magmablas_zlarft_recztrmv_sm32x32
libmagma.so:magmablas_zlarft_recztrmv_sm32x32_batched
libmagma.so:magmablas_zlarft_ztrmv_sm32x32
libmagma.so:magmablas_zlarft_ztrmv_sm32x32_batched
libmagma.so:magmablas_zlascl
libmagma.so:magmablas_zlascl2
libmagma.so:magmablas_zlascl2_v1
libmagma.so:magmablas_zlascl_2x2
libmagma.so:magmablas_zlascl_2x2_v1
libmagma.so:magmablas_zlascl_diag
libmagma.so:magmablas_zlascl_diag_v1
libmagma.so:magmablas_zlascl_v1
libmagma.so:magmablas_zlaset
libmagma.so:magmablas_zlaset_band
libmagma.so:magmablas_zlaset_band_v1
libmagma.so:magmablas_zlaset_batched
libmagma.so:magmablas_zlaset_v1
libmagma.so:magmablas_zlaset_vbatched
libmagma.so:magmablas_zlaswp
libmagma.so:magmablas_zlaswp2
libmagma.so:magmablas_zlaswp2_v1
libmagma.so:magmablas_zlaswp_sym
libmagma.so:magmablas_zlaswp_sym_v1
libmagma.so:magmablas_zlaswp_v1
libmagma.so:magmablas_zlaswpx
libmagma.so:magmablas_zlaswpx_v1
libmagma.so:magmablas_zlat2c
libmagma.so:magmablas_zlat2c_v1
libmagma.so:magmablas_zprbt
libmagma.so:magmablas_zprbt_batched
libmagma.so:magmablas_zprbt_mtv
libmagma.so:magmablas_zprbt_mtv_batched
libmagma.so:magmablas_zprbt_mtv_v1
libmagma.so:magmablas_zprbt_mv
libmagma.so:magmablas_zprbt_mv_batched
libmagma.so:magmablas_zprbt_mv_v1
libmagma.so:magmablas_zprbt_v1
libmagma.so:magmablas_zsetmatrix_transpose
libmagma.so:magmablas_zsetmatrix_transpose_mgpu
libmagma.so:magmablas_zsetmatrix_transpose_v1
libmagma.so:magmablas_zswap
libmagma.so:magmablas_zswap_v1
libmagma.so:magmablas_zswapblk
libmagma.so:magmablas_zswapblk_v1
libmagma.so:magmablas_zswapdblk
libmagma.so:magmablas_zswapdblk_v1
libmagma.so:magmablas_zsymm
libmagma.so:magmablas_zsymmetrize
libmagma.so:magmablas_zsymmetrize_tiles
libmagma.so:magmablas_zsymmetrize_tiles_v1
libmagma.so:magmablas_zsymmetrize_v1
libmagma.so:magmablas_zsymv
libmagma.so:magmablas_zsymv_v1
libmagma.so:magmablas_zsymv_work
libmagma.so:magmablas_zsyr2k
libmagma.so:magmablas_zsyr2k_batched
libmagma.so:magmablas_zsyr2k_vbatched
libmagma.so:magmablas_zsyr2k_vbatched_max
libmagma.so:magmablas_zsyr2k_vbatched_max_nocheck
libmagma.so:magmablas_zsyr2k_vbatched_nocheck
libmagma.so:magmablas_zsyrk
libmagma.so:magmablas_zsyrk_batched
libmagma.so:magmablas_zsyrk_batched_core
libmagma.so:magmablas_zsyrk_internal_vbatched
libmagma.so:magmablas_zsyrk_vbatched
libmagma.so:magmablas_zsyrk_vbatched_max
libmagma.so:magmablas_zsyrk_vbatched_max_nocheck
libmagma.so:magmablas_zsyrk_vbatched_nocheck
libmagma.so:magmablas_ztranspose
libmagma.so:magmablas_ztranspose_batched
libmagma.so:magmablas_ztranspose_batched_stride
libmagma.so:magmablas_ztranspose_conj
libmagma.so:magmablas_ztranspose_conj_batched
libmagma.so:magmablas_ztranspose_conj_inplace
libmagma.so:magmablas_ztranspose_conj_inplace_v1
libmagma.so:magmablas_ztranspose_conj_v1
libmagma.so:magmablas_ztranspose_inplace
libmagma.so:magmablas_ztranspose_inplace_v1
libmagma.so:magmablas_ztranspose_v1
libmagma.so:magmablas_ztrmm
libmagma.so:magmablas_ztrmm_batched
libmagma.so:magmablas_ztrmm_batched_core
libmagma.so:magmablas_ztrmm_vbatched
libmagma.so:magmablas_ztrmm_vbatched_core
libmagma.so:magmablas_ztrmm_vbatched_max
libmagma.so:magmablas_ztrmm_vbatched_max_nocheck
libmagma.so:magmablas_ztrmm_vbatched_nocheck
libmagma.so:magmablas_ztrmv
libmagma.so:magmablas_ztrsm
libmagma.so:magmablas_ztrsm_batched
libmagma.so:magmablas_ztrsm_inv_batched
libmagma.so:magmablas_ztrsm_inv_outofplace_batched
libmagma.so:magmablas_ztrsm_inv_outofplace_vbatched
libmagma.so:magmablas_ztrsm_inv_vbatched
libmagma.so:magmablas_ztrsm_inv_vbatched_max
libmagma.so:magmablas_ztrsm_inv_vbatched_max_nocheck
libmagma.so:magmablas_ztrsm_inv_vbatched_nocheck
libmagma.so:magmablas_ztrsm_inv_work_batched
libmagma.so:magmablas_ztrsm_inv_work_vbatched
libmagma.so:magmablas_ztrsm_outofplace
libmagma.so:magmablas_ztrsm_outofplace_v1
libmagma.so:magmablas_ztrsm_recursive_batched
libmagma.so:magmablas_ztrsm_small_batched
libmagma.so:magmablas_ztrsm_small_vbatched
libmagma.so:magmablas_ztrsm_v1
libmagma.so:magmablas_ztrsm_vbatched
libmagma.so:magmablas_ztrsm_vbatched_core
libmagma.so:magmablas_ztrsm_vbatched_max
libmagma.so:magmablas_ztrsm_vbatched_max_nocheck
libmagma.so:magmablas_ztrsm_vbatched_nocheck
libmagma.so:magmablas_ztrsm_work
libmagma.so:magmablas_ztrsm_work_v1
libmagma.so:magmablas_ztrsv
libmagma.so:magmablas_ztrsv_batched
libmagma.so:magmablas_ztrsv_outofplace
libmagma.so:magmablas_ztrsv_outofplace_batched
libmagma.so:magmablas_ztrsv_recursive_outofplace
libmagma.so:magmablas_ztrsv_recursive_outofplace_batched
libmagma.so:magmablas_ztrsv_work_batched
libmagma.so:magmablas_ztrtri_diag
libmagma.so:magmablas_ztrtri_diag_batched
libmagma.so:magmablas_ztrtri_diag_v1
libmagma.so:magmablas_ztrtri_diag_vbatched
libmagma.so:magmablasf_caxpycp_
libmagma.so:magmablasf_cgeadd2_
libmagma.so:magmablasf_cgeadd_
libmagma.so:magmablasf_cgemm_
libmagma.so:magmablasf_cgemm_reduce_
libmagma.so:magmablasf_cgemv_
libmagma.so:magmablasf_cgemv_conj_
libmagma.so:magmablasf_cgetmatrix_transpose_
libmagma.so:magmablasf_chemv_
libmagma.so:magmablasf_chemv_work_
libmagma.so:magmablasf_clacpy_
libmagma.so:magmablasf_clacpy_conj_
libmagma.so:magmablasf_clacpy_sym_in_
libmagma.so:magmablasf_clacpy_sym_out_
libmagma.so:magmablasf_clange_
libmagma.so:magmablasf_clanhe_
libmagma.so:magmablasf_clascl2_
libmagma.so:magmablasf_clascl_
libmagma.so:magmablasf_clascl_2x2_
libmagma.so:magmablasf_clascl_diag_
libmagma.so:magmablasf_claset_
libmagma.so:magmablasf_claset_band_
libmagma.so:magmablasf_claswp2_
libmagma.so:magmablasf_claswp_
libmagma.so:magmablasf_claswp_sym_
libmagma.so:magmablasf_claswpx_
libmagma.so:magmablasf_cprbt_
libmagma.so:magmablasf_cprbt_mtv_
libmagma.so:magmablasf_cprbt_mv_
libmagma.so:magmablasf_csetmatrix_transpose_
libmagma.so:magmablasf_cswap_
libmagma.so:magmablasf_cswapblk_
libmagma.so:magmablasf_cswapdblk_
libmagma.so:magmablasf_csymmetrize_
libmagma.so:magmablasf_csymmetrize_tiles_
libmagma.so:magmablasf_csymv_
libmagma.so:magmablasf_csymv_work_
libmagma.so:magmablasf_ctranspose_
libmagma.so:magmablasf_ctranspose_conj_
libmagma.so:magmablasf_ctranspose_conj_inplace_
libmagma.so:magmablasf_ctranspose_inplace_
libmagma.so:magmablasf_ctrsm_
libmagma.so:magmablasf_ctrsm_outofplace_
libmagma.so:magmablasf_ctrsm_work_
libmagma.so:magmablasf_ctrsv_
libmagma.so:magmablasf_ctrsv_outofplace_
libmagma.so:magmablasf_ctrtri_diag_
libmagma.so:magmablasf_daxpycp_
libmagma.so:magmablasf_dgeadd2_
libmagma.so:magmablasf_dgeadd_
libmagma.so:magmablasf_dgemm_
libmagma.so:magmablasf_dgemm_reduce_
libmagma.so:magmablasf_dgemv_
libmagma.so:magmablasf_dgemv_conj_
libmagma.so:magmablasf_dgetmatrix_transpose_
libmagma.so:magmablasf_dlacpy_
libmagma.so:magmablasf_dlacpy_conj_
libmagma.so:magmablasf_dlacpy_sym_in_
libmagma.so:magmablasf_dlacpy_sym_out_
libmagma.so:magmablasf_dlange_
libmagma.so:magmablasf_dlansy_
libmagma.so:magmablasf_dlascl2_
libmagma.so:magmablasf_dlascl_
libmagma.so:magmablasf_dlascl_2x2_
libmagma.so:magmablasf_dlascl_diag_
libmagma.so:magmablasf_dlaset_
libmagma.so:magmablasf_dlaset_band_
libmagma.so:magmablasf_dlaswp2_
libmagma.so:magmablasf_dlaswp_
libmagma.so:magmablasf_dlaswp_sym_
libmagma.so:magmablasf_dlaswpx_
libmagma.so:magmablasf_dnrm2_adjust_
libmagma.so:magmablasf_dnrm2_check_
libmagma.so:magmablasf_dnrm2_cols_
libmagma.so:magmablasf_dnrm2_row_check_adjust_
libmagma.so:magmablasf_dprbt_
libmagma.so:magmablasf_dprbt_mtv_
libmagma.so:magmablasf_dprbt_mv_
libmagma.so:magmablasf_dsetmatrix_transpose_
libmagma.so:magmablasf_dswap_
libmagma.so:magmablasf_dswapblk_
libmagma.so:magmablasf_dswapdblk_
libmagma.so:magmablasf_dsymmetrize_
libmagma.so:magmablasf_dsymmetrize_tiles_
libmagma.so:magmablasf_dsymv_
libmagma.so:magmablasf_dsymv_work_
libmagma.so:magmablasf_dtranspose_
libmagma.so:magmablasf_dtranspose_inplace_
libmagma.so:magmablasf_dtrsm_
libmagma.so:magmablasf_dtrsm_outofplace_
libmagma.so:magmablasf_dtrsm_work_
libmagma.so:magmablasf_dtrsv_
libmagma.so:magmablasf_dtrsv_outofplace_
libmagma.so:magmablasf_dtrtri_diag_
libmagma.so:magmablasf_dznrm2_adjust_
libmagma.so:magmablasf_dznrm2_check_
libmagma.so:magmablasf_dznrm2_cols_
libmagma.so:magmablasf_dznrm2_row_check_adjust_
libmagma.so:magmablasf_saxpycp_
libmagma.so:magmablasf_scnrm2_adjust_
libmagma.so:magmablasf_scnrm2_check_
libmagma.so:magmablasf_scnrm2_cols_
libmagma.so:magmablasf_scnrm2_row_check_adjust_
libmagma.so:magmablasf_sgeadd2_
libmagma.so:magmablasf_sgeadd_
libmagma.so:magmablasf_sgemm_
libmagma.so:magmablasf_sgemm_reduce_
libmagma.so:magmablasf_sgemv_
libmagma.so:magmablasf_sgemv_conj_
libmagma.so:magmablasf_sgetmatrix_transpose_
libmagma.so:magmablasf_slacpy_
libmagma.so:magmablasf_slacpy_conj_
libmagma.so:magmablasf_slacpy_sym_in_
libmagma.so:magmablasf_slacpy_sym_out_
libmagma.so:magmablasf_slange_
libmagma.so:magmablasf_slansy_
libmagma.so:magmablasf_slascl2_
libmagma.so:magmablasf_slascl_
libmagma.so:magmablasf_slascl_2x2_
libmagma.so:magmablasf_slascl_diag_
libmagma.so:magmablasf_slaset_
libmagma.so:magmablasf_slaset_band_
libmagma.so:magmablasf_slaswp2_
libmagma.so:magmablasf_slaswp_
libmagma.so:magmablasf_slaswp_sym_
libmagma.so:magmablasf_slaswpx_
libmagma.so:magmablasf_snrm2_adjust_
libmagma.so:magmablasf_snrm2_check_
libmagma.so:magmablasf_snrm2_cols_
libmagma.so:magmablasf_snrm2_row_check_adjust_
libmagma.so:magmablasf_sprbt_
libmagma.so:magmablasf_sprbt_mtv_
libmagma.so:magmablasf_sprbt_mv_
libmagma.so:magmablasf_ssetmatrix_transpose_
libmagma.so:magmablasf_sswap_
libmagma.so:magmablasf_sswapblk_
libmagma.so:magmablasf_sswapdblk_
libmagma.so:magmablasf_ssymmetrize_
libmagma.so:magmablasf_ssymmetrize_tiles_
libmagma.so:magmablasf_ssymv_
libmagma.so:magmablasf_ssymv_work_
libmagma.so:magmablasf_stranspose_
libmagma.so:magmablasf_stranspose_inplace_
libmagma.so:magmablasf_strsm_
libmagma.so:magmablasf_strsm_outofplace_
libmagma.so:magmablasf_strsm_work_
libmagma.so:magmablasf_strsv_
libmagma.so:magmablasf_strsv_outofplace_
libmagma.so:magmablasf_strtri_diag_
libmagma.so:magmablasf_zaxpycp_
libmagma.so:magmablasf_zgeadd2_
libmagma.so:magmablasf_zgeadd_
libmagma.so:magmablasf_zgemm_
libmagma.so:magmablasf_zgemm_reduce_
libmagma.so:magmablasf_zgemv_
libmagma.so:magmablasf_zgemv_conj_
libmagma.so:magmablasf_zgetmatrix_transpose_
libmagma.so:magmablasf_zhemv_
libmagma.so:magmablasf_zhemv_work_
libmagma.so:magmablasf_zlacpy_
libmagma.so:magmablasf_zlacpy_conj_
libmagma.so:magmablasf_zlacpy_sym_in_
libmagma.so:magmablasf_zlacpy_sym_out_
libmagma.so:magmablasf_zlange_
libmagma.so:magmablasf_zlanhe_
libmagma.so:magmablasf_zlascl2_
libmagma.so:magmablasf_zlascl_
libmagma.so:magmablasf_zlascl_2x2_
libmagma.so:magmablasf_zlascl_diag_
libmagma.so:magmablasf_zlaset_
libmagma.so:magmablasf_zlaset_band_
libmagma.so:magmablasf_zlaswp2_
libmagma.so:magmablasf_zlaswp_
libmagma.so:magmablasf_zlaswp_sym_
libmagma.so:magmablasf_zlaswpx_
libmagma.so:magmablasf_zprbt_
libmagma.so:magmablasf_zprbt_mtv_
libmagma.so:magmablasf_zprbt_mv_
libmagma.so:magmablasf_zsetmatrix_transpose_
libmagma.so:magmablasf_zswap_
libmagma.so:magmablasf_zswapblk_
libmagma.so:magmablasf_zswapdblk_
libmagma.so:magmablasf_zsymmetrize_
libmagma.so:magmablasf_zsymmetrize_tiles_
libmagma.so:magmablasf_zsymv_
libmagma.so:magmablasf_zsymv_work_
libmagma.so:magmablasf_ztranspose_
libmagma.so:magmablasf_ztranspose_conj_
libmagma.so:magmablasf_ztranspose_conj_inplace_
libmagma.so:magmablasf_ztranspose_inplace_
libmagma.so:magmablasf_ztrsm_
libmagma.so:magmablasf_ztrsm_outofplace_
libmagma.so:magmablasf_ztrsm_work_
libmagma.so:magmablasf_ztrsv_
libmagma.so:magmablasf_ztrsv_outofplace_
libmagma.so:magmablasf_ztrtri_diag_
libmagma.so:magmaf_c_isinf_
libmagma.so:magmaf_c_isnan_
libmagma.so:magmaf_c_isnan_inf_
libmagma.so:magmaf_caxpy_
libmagma.so:magmaf_ccopy_
libmagma.so:magmaf_ccopymatrix_
libmagma.so:magmaf_ccopymatrix_async_
libmagma.so:magmaf_ccopyvector_
libmagma.so:magmaf_ccopyvector_async_
libmagma.so:magmaf_cgebrd_
libmagma.so:magmaf_cgeev_
libmagma.so:magmaf_cgeev_m_
libmagma.so:magmaf_cgegqr_gpu_
libmagma.so:magmaf_cgehrd2_
libmagma.so:magmaf_cgehrd_
libmagma.so:magmaf_cgehrd_m_
libmagma.so:magmaf_cgelqf_
libmagma.so:magmaf_cgelqf_gpu_
libmagma.so:magmaf_cgels3_gpu_
libmagma.so:magmaf_cgels_
libmagma.so:magmaf_cgels_gpu_
libmagma.so:magmaf_cgemm_
libmagma.so:magmaf_cgemv_
libmagma.so:magmaf_cgeqlf_
libmagma.so:magmaf_cgeqp3_
libmagma.so:magmaf_cgeqp3_gpu_
libmagma.so:magmaf_cgeqr2x2_gpu_
libmagma.so:magmaf_cgeqr2x3_gpu_
libmagma.so:magmaf_cgeqr2x4_gpu_
libmagma.so:magmaf_cgeqr2x_gpu_
libmagma.so:magmaf_cgeqrf2_gpu_
libmagma.so:magmaf_cgeqrf3_gpu_
libmagma.so:magmaf_cgeqrf_
libmagma.so:magmaf_cgeqrf_gpu_
libmagma.so:magmaf_cgeqrf_m_
libmagma.so:magmaf_cgeqrf_ooc_
libmagma.so:magmaf_cgeqrs3_gpu_
libmagma.so:magmaf_cgeqrs_gpu_
libmagma.so:magmaf_cgerbt_gpu_
libmagma.so:magmaf_cgerc_
libmagma.so:magmaf_cgerfs_nopiv_gpu_
libmagma.so:magmaf_cgeru_
libmagma.so:magmaf_cgesdd_
libmagma.so:magmaf_cgesv_
libmagma.so:magmaf_cgesv_gpu_
libmagma.so:magmaf_cgesv_nopiv_gpu_
libmagma.so:magmaf_cgesv_rbt_
libmagma.so:magmaf_cgesvd_
libmagma.so:magmaf_cgetf2_gpu_
libmagma.so:magmaf_cgetf2_nopiv_
libmagma.so:magmaf_cgetmatrix_
libmagma.so:magmaf_cgetmatrix_async_
libmagma.so:magmaf_cgetrf_
libmagma.so:magmaf_cgetrf_gpu_
libmagma.so:magmaf_cgetrf_m_
libmagma.so:magmaf_cgetrf_nopiv_
libmagma.so:magmaf_cgetrf_nopiv_gpu_
libmagma.so:magmaf_cgetri_gpu_
libmagma.so:magmaf_cgetrs_gpu_
libmagma.so:magmaf_cgetrs_nopiv_gpu_
libmagma.so:magmaf_cgetvector_
libmagma.so:magmaf_cgetvector_async_
libmagma.so:magmaf_cgglse_
libmagma.so:magmaf_cggrqf_
libmagma.so:magmaf_cheevd_
libmagma.so:magmaf_cheevd_gpu_
libmagma.so:magmaf_cheevd_m_
libmagma.so:magmaf_cheevdx_
libmagma.so:magmaf_cheevdx_2stage_
libmagma.so:magmaf_cheevdx_2stage_m_
libmagma.so:magmaf_cheevdx_gpu_
libmagma.so:magmaf_cheevdx_m_
libmagma.so:magmaf_cheevr_
libmagma.so:magmaf_cheevr_gpu_
libmagma.so:magmaf_cheevx_
libmagma.so:magmaf_cheevx_gpu_
libmagma.so:magmaf_chegst_
libmagma.so:magmaf_chegst_gpu_
libmagma.so:magmaf_chegst_m_
libmagma.so:magmaf_chegvd_
libmagma.so:magmaf_chegvd_m_
libmagma.so:magmaf_chegvdx_
libmagma.so:magmaf_chegvdx_2stage_
libmagma.so:magmaf_chegvdx_2stage_m_
libmagma.so:magmaf_chegvdx_m_
libmagma.so:magmaf_chegvr_
libmagma.so:magmaf_chegvx_
libmagma.so:magmaf_chemm_
libmagma.so:magmaf_chemv_
libmagma.so:magmaf_cher2_
libmagma.so:magmaf_cher2k_
libmagma.so:magmaf_cher_
libmagma.so:magmaf_cherk_
libmagma.so:magmaf_chesv_
libmagma.so:magmaf_chesv_nopiv_gpu_
libmagma.so:magmaf_chetrd2_gpu_
libmagma.so:magmaf_chetrd_
libmagma.so:magmaf_chetrd_gpu_
libmagma.so:magmaf_chetrd_hb2st_
libmagma.so:magmaf_chetrd_he2hb_
libmagma.so:magmaf_chetrf_
libmagma.so:magmaf_chetrf_aasen_
libmagma.so:magmaf_chetrf_nopiv_
libmagma.so:magmaf_chetrf_nopiv_cpu_
libmagma.so:magmaf_chetrf_nopiv_gpu_
libmagma.so:magmaf_chetrs_nopiv_gpu_
libmagma.so:magmaf_clarf_gpu_
libmagma.so:magmaf_clarfb2_gpu_
libmagma.so:magmaf_clarfb_gpu_
libmagma.so:magmaf_clarfb_gpu_gemm_
libmagma.so:magmaf_clarfbx_gpu_
libmagma.so:magmaf_clarfgtx_gpu_
libmagma.so:magmaf_clarfgx_gpu_
libmagma.so:magmaf_clarfx_gpu_
libmagma.so:magmaf_clatrsd_
libmagma.so:magmaf_clauum_
libmagma.so:magmaf_clauum_gpu_
libmagma.so:magmaf_cmalloc_
libmagma.so:magmaf_cmalloc_cpu_
libmagma.so:magmaf_cmalloc_pinned_
libmagma.so:magmaf_cnan_inf_
libmagma.so:magmaf_cnan_inf_gpu_
libmagma.so:magmaf_cpanel_to_q_
libmagma.so:magmaf_cposv_
libmagma.so:magmaf_cposv_gpu_
libmagma.so:magmaf_cpotf2_gpu_
libmagma.so:magmaf_cpotf2_lpin_
libmagma.so:magmaf_cpotf2_lpout_
libmagma.so:magmaf_cpotrf_
libmagma.so:magmaf_cpotrf_gpu_
libmagma.so:magmaf_cpotrf_m_
libmagma.so:magmaf_cpotri_
libmagma.so:magmaf_cpotri_gpu_
libmagma.so:magmaf_cpotrs_gpu_
libmagma.so:magmaf_cprint_
libmagma.so:magmaf_cprint_gpu_
libmagma.so:magmaf_cq_to_panel_
libmagma.so:magmaf_crot_
libmagma.so:magmaf_crotg_
libmagma.so:magmaf_cscal_
libmagma.so:magmaf_csetmatrix_
libmagma.so:magmaf_csetmatrix_async_
libmagma.so:magmaf_csetvector_
libmagma.so:magmaf_csetvector_async_
libmagma.so:magmaf_csrot_
libmagma.so:magmaf_csscal_
libmagma.so:magmaf_cstedx_
libmagma.so:magmaf_cstedx_m_
libmagma.so:magmaf_cswap_
libmagma.so:magmaf_csymm_
libmagma.so:magmaf_csymv_
libmagma.so:magmaf_csyr2_
libmagma.so:magmaf_csyr2k_
libmagma.so:magmaf_csyr_
libmagma.so:magmaf_csyrk_
libmagma.so:magmaf_csysv_nopiv_gpu_
libmagma.so:magmaf_csytrf_nopiv_cpu_
libmagma.so:magmaf_csytrf_nopiv_gpu_
libmagma.so:magmaf_csytrs_nopiv_gpu_
libmagma.so:magmaf_ctrevc3_
libmagma.so:magmaf_ctrevc3_mt_
libmagma.so:magmaf_ctrmm_
libmagma.so:magmaf_ctrmv_
libmagma.so:magmaf_ctrsm_
libmagma.so:magmaf_ctrsm_m_
libmagma.so:magmaf_ctrsv_
libmagma.so:magmaf_ctrtri_
libmagma.so:magmaf_ctrtri_gpu_
libmagma.so:magmaf_cungbr_
libmagma.so:magmaf_cunghr_
libmagma.so:magmaf_cunghr_m_
libmagma.so:magmaf_cunglq_
libmagma.so:magmaf_cungqr2_
libmagma.so:magmaf_cungqr_
libmagma.so:magmaf_cungqr_gpu_
libmagma.so:magmaf_cungqr_m_
libmagma.so:magmaf_cunmbr_
libmagma.so:magmaf_cunmlq_
libmagma.so:magmaf_cunmql2_gpu_
libmagma.so:magmaf_cunmql_
libmagma.so:magmaf_cunmqr2_gpu_
libmagma.so:magmaf_cunmqr_
libmagma.so:magmaf_cunmqr_gpu_
libmagma.so:magmaf_cunmqr_m_
libmagma.so:magmaf_cunmrq_
libmagma.so:magmaf_cunmtr_
libmagma.so:magmaf_cunmtr_gpu_
libmagma.so:magmaf_cunmtr_m_
libmagma.so:magmaf_d_isinf_
libmagma.so:magmaf_d_isnan_
libmagma.so:magmaf_d_isnan_inf_
libmagma.so:magmaf_dasum_
libmagma.so:magmaf_daxpy_
libmagma.so:magmaf_dcopy_
libmagma.so:magmaf_dcopymatrix_
libmagma.so:magmaf_dcopymatrix_async_
libmagma.so:magmaf_dcopyvector_
libmagma.so:magmaf_dcopyvector_async_
libmagma.so:magmaf_ddot_
libmagma.so:magmaf_dgebrd_
libmagma.so:magmaf_dgeev_
libmagma.so:magmaf_dgeev_m_
libmagma.so:magmaf_dgegqr_gpu_
libmagma.so:magmaf_dgehrd2_
libmagma.so:magmaf_dgehrd_
libmagma.so:magmaf_dgehrd_m_
libmagma.so:magmaf_dgelqf_
libmagma.so:magmaf_dgelqf_gpu_
libmagma.so:magmaf_dgels3_gpu_
libmagma.so:magmaf_dgels_
libmagma.so:magmaf_dgels_gpu_
libmagma.so:magmaf_dgemm_
libmagma.so:magmaf_dgemv_
libmagma.so:magmaf_dgeqlf_
libmagma.so:magmaf_dgeqp3_
libmagma.so:magmaf_dgeqp3_gpu_
libmagma.so:magmaf_dgeqr2x2_gpu_
libmagma.so:magmaf_dgeqr2x3_gpu_
libmagma.so:magmaf_dgeqr2x4_gpu_
libmagma.so:magmaf_dgeqr2x_gpu_
libmagma.so:magmaf_dgeqrf2_gpu_
libmagma.so:magmaf_dgeqrf3_gpu_
libmagma.so:magmaf_dgeqrf_
libmagma.so:magmaf_dgeqrf_gpu_
libmagma.so:magmaf_dgeqrf_m_
libmagma.so:magmaf_dgeqrf_ooc_
libmagma.so:magmaf_dgeqrs3_gpu_
libmagma.so:magmaf_dgeqrs_gpu_
libmagma.so:magmaf_dger_
libmagma.so:magmaf_dgerbt_gpu_
libmagma.so:magmaf_dgerfs_nopiv_gpu_
libmagma.so:magmaf_dgesdd_
libmagma.so:magmaf_dgesv_
libmagma.so:magmaf_dgesv_gpu_
libmagma.so:magmaf_dgesv_nopiv_gpu_
libmagma.so:magmaf_dgesv_rbt_
libmagma.so:magmaf_dgesvd_
libmagma.so:magmaf_dgetf2_gpu_
libmagma.so:magmaf_dgetf2_nopiv_
libmagma.so:magmaf_dgetmatrix_
libmagma.so:magmaf_dgetmatrix_async_
libmagma.so:magmaf_dgetrf_
libmagma.so:magmaf_dgetrf_gpu_
libmagma.so:magmaf_dgetrf_m_
libmagma.so:magmaf_dgetrf_nopiv_
libmagma.so:magmaf_dgetrf_nopiv_gpu_
libmagma.so:magmaf_dgetri_gpu_
libmagma.so:magmaf_dgetrs_gpu_
libmagma.so:magmaf_dgetrs_nopiv_gpu_
libmagma.so:magmaf_dgetvector_
libmagma.so:magmaf_dgetvector_async_
libmagma.so:magmaf_dgglse_
libmagma.so:magmaf_dggrqf_
libmagma.so:magmaf_dirange_
libmagma.so:magmaf_dlaln2_
libmagma.so:magmaf_dlaqtrsd_
libmagma.so:magmaf_dlarf_gpu_
libmagma.so:magmaf_dlarfb2_gpu_
libmagma.so:magmaf_dlarfb_gpu_
libmagma.so:magmaf_dlarfb_gpu_gemm_
libmagma.so:magmaf_dlarfbx_gpu_
libmagma.so:magmaf_dlarfgtx_gpu_
libmagma.so:magmaf_dlarfgx_gpu_
libmagma.so:magmaf_dlarfx_gpu_
libmagma.so:magmaf_dlauum_
libmagma.so:magmaf_dlauum_gpu_
libmagma.so:magmaf_dmake_lwork_
libmagma.so:magmaf_dmalloc_
libmagma.so:magmaf_dmalloc_cpu_
libmagma.so:magmaf_dmalloc_pinned_
libmagma.so:magmaf_dmove_eig_
libmagma.so:magmaf_dnan_inf_
libmagma.so:magmaf_dnan_inf_gpu_
libmagma.so:magmaf_dnrm2_
libmagma.so:magmaf_dorgbr_
libmagma.so:magmaf_dorghr_
libmagma.so:magmaf_dorghr_m_
libmagma.so:magmaf_dorglq_
libmagma.so:magmaf_dorgqr2_
libmagma.so:magmaf_dorgqr_
libmagma.so:magmaf_dorgqr_gpu_
libmagma.so:magmaf_dorgqr_m_
libmagma.so:magmaf_dormbr_
libmagma.so:magmaf_dormlq_
libmagma.so:magmaf_dormql2_gpu_
libmagma.so:magmaf_dormql_
libmagma.so:magmaf_dormqr2_gpu_
libmagma.so:magmaf_dormqr_
libmagma.so:magmaf_dormqr_gpu_
libmagma.so:magmaf_dormqr_m_
libmagma.so:magmaf_dormrq_
libmagma.so:magmaf_dormtr_
libmagma.so:magmaf_dormtr_gpu_
libmagma.so:magmaf_dormtr_m_
libmagma.so:magmaf_dpanel_to_q_
libmagma.so:magmaf_dposv_
libmagma.so:magmaf_dposv_gpu_
libmagma.so:magmaf_dpotf2_gpu_
libmagma.so:magmaf_dpotf2_lpin_
libmagma.so:magmaf_dpotf2_lpout_
libmagma.so:magmaf_dpotrf_
libmagma.so:magmaf_dpotrf_gpu_
libmagma.so:magmaf_dpotrf_m_
libmagma.so:magmaf_dpotri_
libmagma.so:magmaf_dpotri_gpu_
libmagma.so:magmaf_dpotrs_gpu_
libmagma.so:magmaf_dprint_
libmagma.so:magmaf_dprint_gpu_
libmagma.so:magmaf_dq_to_panel_
libmagma.so:magmaf_drot_
libmagma.so:magmaf_drotg_
libmagma.so:magmaf_drotm_
libmagma.so:magmaf_drotmg_
libmagma.so:magmaf_dscal_
libmagma.so:magmaf_dsetmatrix_
libmagma.so:magmaf_dsetmatrix_async_
libmagma.so:magmaf_dsetvector_
libmagma.so:magmaf_dsetvector_async_
libmagma.so:magmaf_dstedx_
libmagma.so:magmaf_dstedx_m_
libmagma.so:magmaf_dswap_
libmagma.so:magmaf_dsyevd_
libmagma.so:magmaf_dsyevd_gpu_
libmagma.so:magmaf_dsyevd_m_
libmagma.so:magmaf_dsyevdx_
libmagma.so:magmaf_dsyevdx_2stage_
libmagma.so:magmaf_dsyevdx_2stage_m_
libmagma.so:magmaf_dsyevdx_gpu_
libmagma.so:magmaf_dsyevdx_m_
libmagma.so:magmaf_dsygst_
libmagma.so:magmaf_dsygst_gpu_
libmagma.so:magmaf_dsygst_m_
libmagma.so:magmaf_dsygvd_
libmagma.so:magmaf_dsygvd_m_
libmagma.so:magmaf_dsygvdx_
libmagma.so:magmaf_dsygvdx_2stage_
libmagma.so:magmaf_dsygvdx_2stage_m_
libmagma.so:magmaf_dsygvdx_m_
libmagma.so:magmaf_dsymm_
libmagma.so:magmaf_dsymv_
libmagma.so:magmaf_dsyr2_
libmagma.so:magmaf_dsyr2k_
libmagma.so:magmaf_dsyr_
libmagma.so:magmaf_dsyrk_
libmagma.so:magmaf_dsysv_
libmagma.so:magmaf_dsysv_nopiv_gpu_
libmagma.so:magmaf_dsytrd2_gpu_
libmagma.so:magmaf_dsytrd_
libmagma.so:magmaf_dsytrd_gpu_
libmagma.so:magmaf_dsytrd_sb2st_
libmagma.so:magmaf_dsytrd_sy2sb_
libmagma.so:magmaf_dsytrf_
libmagma.so:magmaf_dsytrf_aasen_
libmagma.so:magmaf_dsytrf_nopiv_
libmagma.so:magmaf_dsytrf_nopiv_cpu_
libmagma.so:magmaf_dsytrf_nopiv_gpu_
libmagma.so:magmaf_dsytrs_nopiv_gpu_
libmagma.so:magmaf_dtrevc3_
libmagma.so:magmaf_dtrevc3_mt_
libmagma.so:magmaf_dtrmm_
libmagma.so:magmaf_dtrmv_
libmagma.so:magmaf_dtrsm_
libmagma.so:magmaf_dtrsm_m_
libmagma.so:magmaf_dtrsv_
libmagma.so:magmaf_dtrtri_
libmagma.so:magmaf_dtrtri_gpu_
libmagma.so:magmaf_dvrange_
libmagma.so:magmaf_dzasum_
libmagma.so:magmaf_dznrm2_
libmagma.so:magmaf_finalize_
libmagma.so:magmaf_free_
libmagma.so:magmaf_free_cpu_
libmagma.so:magmaf_free_pinned_
libmagma.so:magmaf_get_cbulge_gcperf_
libmagma.so:magmaf_get_cbulge_nb_
libmagma.so:magmaf_get_cbulge_vblksiz_
libmagma.so:magmaf_get_cgebrd_nb_
libmagma.so:magmaf_get_cgehrd_nb_
libmagma.so:magmaf_get_cgelqf_nb_
libmagma.so:magmaf_get_cgeqlf_nb_
libmagma.so:magmaf_get_cgeqp3_nb_
libmagma.so:magmaf_get_cgeqrf_nb_
libmagma.so:magmaf_get_cgesvd_nb_
libmagma.so:magmaf_get_cgetrf_nb_
libmagma.so:magmaf_get_cgetri_nb_
libmagma.so:magmaf_get_chegst_m_nb_
libmagma.so:magmaf_get_chegst_nb_
libmagma.so:magmaf_get_chetrd_nb_
libmagma.so:magmaf_get_chetrf_aasen_nb_
libmagma.so:magmaf_get_chetrf_nb_
libmagma.so:magmaf_get_chetrf_nopiv_nb_
libmagma.so:magmaf_get_cpotrf_nb_
libmagma.so:magmaf_get_dbulge_gcperf_
libmagma.so:magmaf_get_dbulge_nb_
libmagma.so:magmaf_get_dbulge_vblksiz_
libmagma.so:magmaf_get_dgebrd_nb_
libmagma.so:magmaf_get_dgehrd_nb_
libmagma.so:magmaf_get_dgelqf_nb_
libmagma.so:magmaf_get_dgeqlf_nb_
libmagma.so:magmaf_get_dgeqp3_nb_
libmagma.so:magmaf_get_dgeqrf_nb_
libmagma.so:magmaf_get_dgesvd_nb_
libmagma.so:magmaf_get_dgetrf_nb_
libmagma.so:magmaf_get_dgetri_nb_
libmagma.so:magmaf_get_dlaex3_m_nb_
libmagma.so:magmaf_get_dpotrf_nb_
libmagma.so:magmaf_get_dsygst_m_nb_
libmagma.so:magmaf_get_dsygst_nb_
libmagma.so:magmaf_get_dsytrd_nb_
libmagma.so:magmaf_get_dsytrf_aasen_nb_
libmagma.so:magmaf_get_dsytrf_nb_
libmagma.so:magmaf_get_dsytrf_nopiv_nb_
libmagma.so:magmaf_get_sbulge_gcperf_
libmagma.so:magmaf_get_sbulge_nb_
libmagma.so:magmaf_get_sbulge_vblksiz_
libmagma.so:magmaf_get_sgebrd_nb_
libmagma.so:magmaf_get_sgehrd_nb_
libmagma.so:magmaf_get_sgelqf_nb_
libmagma.so:magmaf_get_sgeqlf_nb_
libmagma.so:magmaf_get_sgeqp3_nb_
libmagma.so:magmaf_get_sgeqrf_nb_
libmagma.so:magmaf_get_sgesvd_nb_
libmagma.so:magmaf_get_sgetrf_nb_
libmagma.so:magmaf_get_sgetri_nb_
libmagma.so:magmaf_get_slaex3_m_nb_
libmagma.so:magmaf_get_spotrf_nb_
libmagma.so:magmaf_get_ssygst_m_nb_
libmagma.so:magmaf_get_ssygst_nb_
libmagma.so:magmaf_get_ssytrd_nb_
libmagma.so:magmaf_get_ssytrf_aasen_nb_
libmagma.so:magmaf_get_ssytrf_nb_
libmagma.so:magmaf_get_ssytrf_nopiv_nb_
libmagma.so:magmaf_get_zbulge_gcperf_
libmagma.so:magmaf_get_zbulge_nb_
libmagma.so:magmaf_get_zbulge_vblksiz_
libmagma.so:magmaf_get_zgebrd_nb_
libmagma.so:magmaf_get_zgehrd_nb_
libmagma.so:magmaf_get_zgelqf_nb_
libmagma.so:magmaf_get_zgeqlf_nb_
libmagma.so:magmaf_get_zgeqp3_nb_
libmagma.so:magmaf_get_zgeqrf_nb_
libmagma.so:magmaf_get_zgesvd_nb_
libmagma.so:magmaf_get_zgetrf_nb_
libmagma.so:magmaf_get_zgetri_nb_
libmagma.so:magmaf_get_zhegst_m_nb_
libmagma.so:magmaf_get_zhegst_nb_
libmagma.so:magmaf_get_zhetrd_nb_
libmagma.so:magmaf_get_zhetrf_aasen_nb_
libmagma.so:magmaf_get_zhetrf_nb_
libmagma.so:magmaf_get_zhetrf_nopiv_nb_
libmagma.so:magmaf_get_zpotrf_nb_
libmagma.so:magmaf_getdevice_
libmagma.so:magmaf_getdevice_arch_
libmagma.so:magmaf_icamax_
libmagma.so:magmaf_icamin_
libmagma.so:magmaf_idamax_
libmagma.so:magmaf_idamin_
libmagma.so:magmaf_init_
libmagma.so:magmaf_isamax_
libmagma.so:magmaf_isamin_
libmagma.so:magmaf_izamax_
libmagma.so:magmaf_izamin_
libmagma.so:magmaf_malloc_
libmagma.so:magmaf_malloc_cpu_
libmagma.so:magmaf_malloc_pinned_
libmagma.so:magmaf_mem_size_
libmagma.so:magmaf_num_gpus_
libmagma.so:magmaf_print_environment_
libmagma.so:magmaf_queue_create_
libmagma.so:magmaf_queue_destroy_
libmagma.so:magmaf_queue_get_device_
libmagma.so:magmaf_queue_sync_
libmagma.so:magmaf_s_isinf_
libmagma.so:magmaf_s_isnan_
libmagma.so:magmaf_s_isnan_inf_
libmagma.so:magmaf_sasum_
libmagma.so:magmaf_saxpy_
libmagma.so:magmaf_scasum_
libmagma.so:magmaf_scnrm2_
libmagma.so:magmaf_scopy_
libmagma.so:magmaf_scopymatrix_
libmagma.so:magmaf_scopymatrix_async_
libmagma.so:magmaf_scopyvector_
libmagma.so:magmaf_scopyvector_async_
libmagma.so:magmaf_sdot_
libmagma.so:magmaf_setdevice_
libmagma.so:magmaf_sgebrd_
libmagma.so:magmaf_sgeev_
libmagma.so:magmaf_sgeev_m_
libmagma.so:magmaf_sgegqr_gpu_
libmagma.so:magmaf_sgehrd2_
libmagma.so:magmaf_sgehrd_
libmagma.so:magmaf_sgehrd_m_
libmagma.so:magmaf_sgelqf_
libmagma.so:magmaf_sgelqf_gpu_
libmagma.so:magmaf_sgels3_gpu_
libmagma.so:magmaf_sgels_
libmagma.so:magmaf_sgels_gpu_
libmagma.so:magmaf_sgemm_
libmagma.so:magmaf_sgemv_
libmagma.so:magmaf_sgeqlf_
libmagma.so:magmaf_sgeqp3_
libmagma.so:magmaf_sgeqp3_gpu_
libmagma.so:magmaf_sgeqr2x2_gpu_
libmagma.so:magmaf_sgeqr2x3_gpu_
libmagma.so:magmaf_sgeqr2x4_gpu_
libmagma.so:magmaf_sgeqr2x_gpu_
libmagma.so:magmaf_sgeqrf2_gpu_
libmagma.so:magmaf_sgeqrf3_gpu_
libmagma.so:magmaf_sgeqrf_
libmagma.so:magmaf_sgeqrf_gpu_
libmagma.so:magmaf_sgeqrf_m_
libmagma.so:magmaf_sgeqrf_ooc_
libmagma.so:magmaf_sgeqrs3_gpu_
libmagma.so:magmaf_sgeqrs_gpu_
libmagma.so:magmaf_sger_
libmagma.so:magmaf_sgerbt_gpu_
libmagma.so:magmaf_sgerfs_nopiv_gpu_
libmagma.so:magmaf_sgesdd_
libmagma.so:magmaf_sgesv_
libmagma.so:magmaf_sgesv_gpu_
libmagma.so:magmaf_sgesv_nopiv_gpu_
libmagma.so:magmaf_sgesv_rbt_
libmagma.so:magmaf_sgesvd_
libmagma.so:magmaf_sgetf2_gpu_
libmagma.so:magmaf_sgetf2_nopiv_
libmagma.so:magmaf_sgetmatrix_
libmagma.so:magmaf_sgetmatrix_async_
libmagma.so:magmaf_sgetrf_
libmagma.so:magmaf_sgetrf_gpu_
libmagma.so:magmaf_sgetrf_m_
libmagma.so:magmaf_sgetrf_nopiv_
libmagma.so:magmaf_sgetrf_nopiv_gpu_
libmagma.so:magmaf_sgetri_gpu_
libmagma.so:magmaf_sgetrs_gpu_
libmagma.so:magmaf_sgetrs_nopiv_gpu_
libmagma.so:magmaf_sgetvector_
libmagma.so:magmaf_sgetvector_async_
libmagma.so:magmaf_sgglse_
libmagma.so:magmaf_sggrqf_
libmagma.so:magmaf_sirange_
libmagma.so:magmaf_slaln2_
libmagma.so:magmaf_slaqtrsd_
libmagma.so:magmaf_slarf_gpu_
libmagma.so:magmaf_slarfb2_gpu_
libmagma.so:magmaf_slarfb_gpu_
libmagma.so:magmaf_slarfb_gpu_gemm_
libmagma.so:magmaf_slarfbx_gpu_
libmagma.so:magmaf_slarfgtx_gpu_
libmagma.so:magmaf_slarfgx_gpu_
libmagma.so:magmaf_slarfx_gpu_
libmagma.so:magmaf_slauum_
libmagma.so:magmaf_slauum_gpu_
libmagma.so:magmaf_smake_lwork_
libmagma.so:magmaf_smalloc_
libmagma.so:magmaf_smalloc_cpu_
libmagma.so:magmaf_smalloc_pinned_
libmagma.so:magmaf_smove_eig_
libmagma.so:magmaf_snan_inf_
libmagma.so:magmaf_snan_inf_gpu_
libmagma.so:magmaf_snrm2_
libmagma.so:magmaf_sorgbr_
libmagma.so:magmaf_sorghr_
libmagma.so:magmaf_sorghr_m_
libmagma.so:magmaf_sorglq_
libmagma.so:magmaf_sorgqr2_
libmagma.so:magmaf_sorgqr_
libmagma.so:magmaf_sorgqr_gpu_
libmagma.so:magmaf_sorgqr_m_
libmagma.so:magmaf_sormbr_
libmagma.so:magmaf_sormlq_
libmagma.so:magmaf_sormql2_gpu_
libmagma.so:magmaf_sormql_
libmagma.so:magmaf_sormqr2_gpu_
libmagma.so:magmaf_sormqr_
libmagma.so:magmaf_sormqr_gpu_
libmagma.so:magmaf_sormqr_m_
libmagma.so:magmaf_sormrq_
libmagma.so:magmaf_sormtr_
libmagma.so:magmaf_sormtr_gpu_
libmagma.so:magmaf_sormtr_m_
libmagma.so:magmaf_spanel_to_q_
libmagma.so:magmaf_sposv_
libmagma.so:magmaf_sposv_gpu_
libmagma.so:magmaf_spotf2_gpu_
libmagma.so:magmaf_spotf2_lpin_
libmagma.so:magmaf_spotf2_lpout_
libmagma.so:magmaf_spotrf_
libmagma.so:magmaf_spotrf_gpu_
libmagma.so:magmaf_spotrf_m_
libmagma.so:magmaf_spotri_
libmagma.so:magmaf_spotri_gpu_
libmagma.so:magmaf_spotrs_gpu_
libmagma.so:magmaf_sprint_
libmagma.so:magmaf_sprint_gpu_
libmagma.so:magmaf_sq_to_panel_
libmagma.so:magmaf_srot_
libmagma.so:magmaf_srotg_
libmagma.so:magmaf_srotm_
libmagma.so:magmaf_srotmg_
libmagma.so:magmaf_sscal_
libmagma.so:magmaf_ssetmatrix_
libmagma.so:magmaf_ssetmatrix_async_
libmagma.so:magmaf_ssetvector_
libmagma.so:magmaf_ssetvector_async_
libmagma.so:magmaf_sstedx_
libmagma.so:magmaf_sstedx_m_
libmagma.so:magmaf_sswap_
libmagma.so:magmaf_ssyevd_
libmagma.so:magmaf_ssyevd_gpu_
libmagma.so:magmaf_ssyevd_m_
libmagma.so:magmaf_ssyevdx_
libmagma.so:magmaf_ssyevdx_2stage_
libmagma.so:magmaf_ssyevdx_2stage_m_
libmagma.so:magmaf_ssyevdx_gpu_
libmagma.so:magmaf_ssyevdx_m_
libmagma.so:magmaf_ssygst_
libmagma.so:magmaf_ssygst_gpu_
libmagma.so:magmaf_ssygst_m_
libmagma.so:magmaf_ssygvd_
libmagma.so:magmaf_ssygvd_m_
libmagma.so:magmaf_ssygvdx_
libmagma.so:magmaf_ssygvdx_2stage_
libmagma.so:magmaf_ssygvdx_2stage_m_
libmagma.so:magmaf_ssygvdx_m_
libmagma.so:magmaf_ssymm_
libmagma.so:magmaf_ssymv_
libmagma.so:magmaf_ssyr2_
libmagma.so:magmaf_ssyr2k_
libmagma.so:magmaf_ssyr_
libmagma.so:magmaf_ssyrk_
libmagma.so:magmaf_ssysv_
libmagma.so:magmaf_ssysv_nopiv_gpu_
libmagma.so:magmaf_ssytrd2_gpu_
libmagma.so:magmaf_ssytrd_
libmagma.so:magmaf_ssytrd_gpu_
libmagma.so:magmaf_ssytrd_sb2st_
libmagma.so:magmaf_ssytrd_sy2sb_
libmagma.so:magmaf_ssytrf_
libmagma.so:magmaf_ssytrf_aasen_
libmagma.so:magmaf_ssytrf_nopiv_
libmagma.so:magmaf_ssytrf_nopiv_cpu_
libmagma.so:magmaf_ssytrf_nopiv_gpu_
libmagma.so:magmaf_ssytrs_nopiv_gpu_
libmagma.so:magmaf_strevc3_
libmagma.so:magmaf_strevc3_mt_
libmagma.so:magmaf_strmm_
libmagma.so:magmaf_strmv_
libmagma.so:magmaf_strsm_
libmagma.so:magmaf_strsm_m_
libmagma.so:magmaf_strsv_
libmagma.so:magmaf_strtri_
libmagma.so:magmaf_strtri_gpu_
libmagma.so:magmaf_svrange_
libmagma.so:magmaf_version_
libmagma.so:magmaf_wtime_
libmagma.so:magmaf_z_isinf_
libmagma.so:magmaf_z_isnan_
libmagma.so:magmaf_z_isnan_inf_
libmagma.so:magmaf_zaxpy_
libmagma.so:magmaf_zcopy_
libmagma.so:magmaf_zcopymatrix_
libmagma.so:magmaf_zcopymatrix_async_
libmagma.so:magmaf_zcopyvector_
libmagma.so:magmaf_zcopyvector_async_
libmagma.so:magmaf_zdrot_
libmagma.so:magmaf_zdscal_
libmagma.so:magmaf_zgebrd_
libmagma.so:magmaf_zgeev_
libmagma.so:magmaf_zgeev_m_
libmagma.so:magmaf_zgegqr_gpu_
libmagma.so:magmaf_zgehrd2_
libmagma.so:magmaf_zgehrd_
libmagma.so:magmaf_zgehrd_m_
libmagma.so:magmaf_zgelqf_
libmagma.so:magmaf_zgelqf_gpu_
libmagma.so:magmaf_zgels3_gpu_
libmagma.so:magmaf_zgels_
libmagma.so:magmaf_zgels_gpu_
libmagma.so:magmaf_zgemm_
libmagma.so:magmaf_zgemv_
libmagma.so:magmaf_zgeqlf_
libmagma.so:magmaf_zgeqp3_
libmagma.so:magmaf_zgeqp3_gpu_
libmagma.so:magmaf_zgeqr2x2_gpu_
libmagma.so:magmaf_zgeqr2x3_gpu_
libmagma.so:magmaf_zgeqr2x4_gpu_
libmagma.so:magmaf_zgeqr2x_gpu_
libmagma.so:magmaf_zgeqrf2_gpu_
libmagma.so:magmaf_zgeqrf3_gpu_
libmagma.so:magmaf_zgeqrf_
libmagma.so:magmaf_zgeqrf_gpu_
libmagma.so:magmaf_zgeqrf_m_
libmagma.so:magmaf_zgeqrf_ooc_
libmagma.so:magmaf_zgeqrs3_gpu_
libmagma.so:magmaf_zgeqrs_gpu_
libmagma.so:magmaf_zgerbt_gpu_
libmagma.so:magmaf_zgerc_
libmagma.so:magmaf_zgerfs_nopiv_gpu_
libmagma.so:magmaf_zgeru_
libmagma.so:magmaf_zgesdd_
libmagma.so:magmaf_zgesv_
libmagma.so:magmaf_zgesv_gpu_
libmagma.so:magmaf_zgesv_nopiv_gpu_
libmagma.so:magmaf_zgesv_rbt_
libmagma.so:magmaf_zgesvd_
libmagma.so:magmaf_zgetf2_gpu_
libmagma.so:magmaf_zgetf2_nopiv_
libmagma.so:magmaf_zgetmatrix_
libmagma.so:magmaf_zgetmatrix_async_
libmagma.so:magmaf_zgetrf_
libmagma.so:magmaf_zgetrf_gpu_
libmagma.so:magmaf_zgetrf_m_
libmagma.so:magmaf_zgetrf_nopiv_
libmagma.so:magmaf_zgetrf_nopiv_gpu_
libmagma.so:magmaf_zgetri_gpu_
libmagma.so:magmaf_zgetrs_gpu_
libmagma.so:magmaf_zgetrs_nopiv_gpu_
libmagma.so:magmaf_zgetvector_
libmagma.so:magmaf_zgetvector_async_
libmagma.so:magmaf_zgglse_
libmagma.so:magmaf_zggrqf_
libmagma.so:magmaf_zheevd_
libmagma.so:magmaf_zheevd_gpu_
libmagma.so:magmaf_zheevd_m_
libmagma.so:magmaf_zheevdx_
libmagma.so:magmaf_zheevdx_2stage_
libmagma.so:magmaf_zheevdx_2stage_m_
libmagma.so:magmaf_zheevdx_gpu_
libmagma.so:magmaf_zheevdx_m_
libmagma.so:magmaf_zheevr_
libmagma.so:magmaf_zheevr_gpu_
libmagma.so:magmaf_zheevx_
libmagma.so:magmaf_zheevx_gpu_
libmagma.so:magmaf_zhegst_
libmagma.so:magmaf_zhegst_gpu_
libmagma.so:magmaf_zhegst_m_
libmagma.so:magmaf_zhegvd_
libmagma.so:magmaf_zhegvd_m_
libmagma.so:magmaf_zhegvdx_
libmagma.so:magmaf_zhegvdx_2stage_
libmagma.so:magmaf_zhegvdx_2stage_m_
libmagma.so:magmaf_zhegvdx_m_
libmagma.so:magmaf_zhegvr_
libmagma.so:magmaf_zhegvx_
libmagma.so:magmaf_zhemm_
libmagma.so:magmaf_zhemv_
libmagma.so:magmaf_zher2_
libmagma.so:magmaf_zher2k_
libmagma.so:magmaf_zher_
libmagma.so:magmaf_zherk_
libmagma.so:magmaf_zhesv_
libmagma.so:magmaf_zhesv_nopiv_gpu_
libmagma.so:magmaf_zhetrd2_gpu_
libmagma.so:magmaf_zhetrd_
libmagma.so:magmaf_zhetrd_gpu_
libmagma.so:magmaf_zhetrd_hb2st_
libmagma.so:magmaf_zhetrd_he2hb_
libmagma.so:magmaf_zhetrf_
libmagma.so:magmaf_zhetrf_aasen_
libmagma.so:magmaf_zhetrf_nopiv_
libmagma.so:magmaf_zhetrf_nopiv_cpu_
libmagma.so:magmaf_zhetrf_nopiv_gpu_
libmagma.so:magmaf_zhetrs_nopiv_gpu_
libmagma.so:magmaf_zlarf_gpu_
libmagma.so:magmaf_zlarfb2_gpu_
libmagma.so:magmaf_zlarfb_gpu_
libmagma.so:magmaf_zlarfb_gpu_gemm_
libmagma.so:magmaf_zlarfbx_gpu_
libmagma.so:magmaf_zlarfgtx_gpu_
libmagma.so:magmaf_zlarfgx_gpu_
libmagma.so:magmaf_zlarfx_gpu_
libmagma.so:magmaf_zlatrsd_
libmagma.so:magmaf_zlauum_
libmagma.so:magmaf_zlauum_gpu_
libmagma.so:magmaf_zmalloc_
libmagma.so:magmaf_zmalloc_cpu_
libmagma.so:magmaf_zmalloc_pinned_
libmagma.so:magmaf_znan_inf_
libmagma.so:magmaf_znan_inf_gpu_
libmagma.so:magmaf_zpanel_to_q_
libmagma.so:magmaf_zposv_
libmagma.so:magmaf_zposv_gpu_
libmagma.so:magmaf_zpotf2_gpu_
libmagma.so:magmaf_zpotf2_lpin_
libmagma.so:magmaf_zpotf2_lpout_
libmagma.so:magmaf_zpotrf_
libmagma.so:magmaf_zpotrf_gpu_
libmagma.so:magmaf_zpotrf_m_
libmagma.so:magmaf_zpotri_
libmagma.so:magmaf_zpotri_gpu_
libmagma.so:magmaf_zpotrs_gpu_
libmagma.so:magmaf_zprint_
libmagma.so:magmaf_zprint_gpu_
libmagma.so:magmaf_zq_to_panel_
libmagma.so:magmaf_zrot_
libmagma.so:magmaf_zrotg_
libmagma.so:magmaf_zscal_
libmagma.so:magmaf_zsetmatrix_
libmagma.so:magmaf_zsetmatrix_async_
libmagma.so:magmaf_zsetvector_
libmagma.so:magmaf_zsetvector_async_
libmagma.so:magmaf_zstedx_
libmagma.so:magmaf_zstedx_m_
libmagma.so:magmaf_zswap_
libmagma.so:magmaf_zsymm_
libmagma.so:magmaf_zsymv_
libmagma.so:magmaf_zsyr2_
libmagma.so:magmaf_zsyr2k_
libmagma.so:magmaf_zsyr_
libmagma.so:magmaf_zsyrk_
libmagma.so:magmaf_zsysv_nopiv_gpu_
libmagma.so:magmaf_zsytrf_nopiv_cpu_
libmagma.so:magmaf_zsytrf_nopiv_gpu_
libmagma.so:magmaf_zsytrs_nopiv_gpu_
libmagma.so:magmaf_ztrevc3_
libmagma.so:magmaf_ztrevc3_mt_
libmagma.so:magmaf_ztrmm_
libmagma.so:magmaf_ztrmv_
libmagma.so:magmaf_ztrsm_
libmagma.so:magmaf_ztrsm_m_
libmagma.so:magmaf_ztrsv_
libmagma.so:magmaf_ztrtri_
libmagma.so:magmaf_ztrtri_gpu_
libmagma.so:magmaf_zungbr_
libmagma.so:magmaf_zunghr_
libmagma.so:magmaf_zunghr_m_
libmagma.so:magmaf_zunglq_
libmagma.so:magmaf_zungqr2_
libmagma.so:magmaf_zungqr_
libmagma.so:magmaf_zungqr_gpu_
libmagma.so:magmaf_zungqr_m_
libmagma.so:magmaf_zunmbr_
libmagma.so:magmaf_zunmlq_
libmagma.so:magmaf_zunmql2_gpu_
libmagma.so:magmaf_zunmql_
libmagma.so:magmaf_zunmqr2_gpu_
libmagma.so:magmaf_zunmqr_
libmagma.so:magmaf_zunmqr_gpu_
libmagma.so:magmaf_zunmqr_m_
libmagma.so:magmaf_zunmrq_
libmagma.so:magmaf_zunmtr_
libmagma.so:magmaf_zunmtr_gpu_
libmagma.so:magmaf_zunmtr_m_
libmagma.so:setup_pivinfo
libmagma.so:setup_pivinfo_batched
libmagma.so:sgesdd_path
libmagma.so:sgesvd_path
libmagma.so:slange_fro_kernel
libmagma.so:slange_inf_kernel
libmagma.so:slange_max_kernel
libmagma.so:slange_one_kernel
libmagma.so:slansy_inf
libmagma.so:slansy_max
libmagma.so:slaswp_sym
libmagma.so:ssymv_kernel_U
libmagma.so:ssymv_kernel_U_mgpu
libmagma.so:ssymv_kernel_U_mgpu_sum
libmagma.so:ssymv_kernel_U_sum
libmagma.so:stepinit_ipiv
libmagma.so:zgesdd_path
libmagma.so:zgesvd_path
libmagma.so:zhemv_kernel_U
libmagma.so:zhemv_kernel_U_mgpu
libmagma.so:zhemv_kernel_U_mgpu_sum
libmagma.so:zhemv_kernel_U_sum
libmagma.so:zlange_fro_kernel
libmagma.so:zlange_inf_kernel
libmagma.so:zlange_max_kernel
libmagma.so:zlange_one_kernel
libmagma.so:zlanhe_inf
libmagma.so:zlanhe_max
libmagma.so:zlaswp_sym
libmagma.so:zsymv_kernel_U
libmagma.so:zsymv_kernel_U_sum
libmagma_sparse.so:.gomp_critical_user_.reduction.var
libmagma_sparse.so:_Z11mm_is_validPc
libmagma_sparse.so:_Z13cge3pt_kernelii17magmaFloatComplexS_PS_S0_
libmagma_sparse.so:_Z13dge3pt_kerneliiddPdS_
libmagma_sparse.so:_Z13sge3pt_kerneliiffPfS_
libmagma_sparse.so:_Z13zge3pt_kernelii18magmaDoubleComplexS_PS_S0_
libmagma_sparse.so:_Z14cgeaxpy_kernelii17magmaFloatComplexPS_S_S0_
libmagma_sparse.so:_Z14dgeaxpy_kerneliidPddS_
libmagma_sparse.so:_Z14mm_read_bannerP8_IO_FILEPA4_c
libmagma_sparse.so:_Z14sgeaxpy_kerneliifPffS_
libmagma_sparse.so:_Z14zgeaxpy_kernelii18magmaDoubleComplexPS_S_S0_
libmagma_sparse.so:_Z15ccompact_kerneliiP17magmaFloatComplexiPffPiS2_
libmagma_sparse.so:_Z15cgecsrmv_kernelii17magmaFloatComplexPS_PiS1_S0_S_S0_
libmagma_sparse.so:_Z15cgeellmv_kerneliii17magmaFloatComplexPS_PiS0_S_S0_
libmagma_sparse.so:_Z15dcompact_kerneliiPdiS_dPiS0_
libmagma_sparse.so:_Z15dgecsrmv_kerneliidPdPiS0_S_dS_
libmagma_sparse.so:_Z15dgeellmv_kerneliiidPdPiS_dS_
libmagma_sparse.so:_Z15mm_read_mtx_crdPcPiS0_S0_PS0_S1_PPdPA4_c
libmagma_sparse.so:_Z15mm_write_bannerP8_IO_FILEPc
libmagma_sparse.so:_Z15scompact_kerneliiPfiS_fPiS0_
libmagma_sparse.so:_Z15sgecsrmv_kerneliifPfPiS0_S_fS_
libmagma_sparse.so:_Z15sgeellmv_kerneliiifPfPiS_fS_
libmagma_sparse.so:_Z15zcompact_kerneliiP18magmaDoubleComplexiPddPiS2_
libmagma_sparse.so:_Z15zgecsrmv_kernelii18magmaDoubleComplexPS_PiS1_S0_S_S0_
libmagma_sparse.so:_Z15zgeellmv_kerneliii18magmaDoubleComplexPS_PiS0_S_S0_
libmagma_sparse.so:_Z16cmgecsrmv_kerneliii17magmaFloatComplexPS_PiS1_S0_S_S0_
libmagma_sparse.so:_Z16cmgeellmv_kerneliiii17magmaFloatComplexPS_PiS0_S_S0_
libmagma_sparse.so:_Z16dmgecsrmv_kerneliiidPdPiS0_S_dS_
libmagma_sparse.so:_Z16dmgeellmv_kerneliiiidPdPiS_dS_
libmagma_sparse.so:_Z16mm_write_mtx_crdPciiiPiS0_PdS_
libmagma_sparse.so:_Z16smgecsrmv_kerneliiifPfPiS0_S_fS_
libmagma_sparse.so:_Z16smgeellmv_kerneliiiifPfPiS_fS_
libmagma_sparse.so:_Z16zmgecsrmv_kerneliii18magmaDoubleComplexPS_PiS1_S0_S_S0_
libmagma_sparse.so:_Z16zmgeellmv_kerneliiii18magmaDoubleComplexPS_PiS0_S_S0_
libmagma_sparse.so:_Z17cgesellcmv_kerneliii17magmaFloatComplexPS_PiS1_S0_S_S0_
libmagma_sparse.so:_Z17cvjacobisetup_gpuiiP17magmaFloatComplexS0_S0_S0_
libmagma_sparse.so:_Z17dgesellcmv_kerneliiidPdPiS0_S_dS_
libmagma_sparse.so:_Z17dvjacobisetup_gpuiiPdS_S_S_
libmagma_sparse.so:_Z17magma_cdot_kerneliiP17magmaFloatComplexS0_S0_
libmagma_sparse.so:_Z17magma_cgpumemzeroP17magmaFloatComplexii
libmagma_sparse.so:_Z17magma_cshell_sortiPi
libmagma_sparse.so:_Z17magma_ddot_kerneliiPdS_S_
libmagma_sparse.so:_Z17magma_dgpumemzeroPdii
libmagma_sparse.so:_Z17magma_dshell_sortiPi
libmagma_sparse.so:_Z17magma_sdot_kerneliiPfS_S_
libmagma_sparse.so:_Z17magma_sgpumemzeroPfii
libmagma_sparse.so:_Z17magma_sshell_sortiPi
libmagma_sparse.so:_Z17magma_zdot_kerneliiP18magmaDoubleComplexS0_S0_
libmagma_sparse.so:_Z17magma_zgpumemzeroP18magmaDoubleComplexii
libmagma_sparse.so:_Z17magma_zshell_sortiPi
libmagma_sparse.so:_Z17sgesellcmv_kerneliiifPfPiS0_S_fS_
libmagma_sparse.so:_Z17svjacobisetup_gpuiiPfS_S_S_
libmagma_sparse.so:_Z17zdiagcheck_kerneliiP17magmaFloatComplexPiS1_S1_
libmagma_sparse.so:_Z17zdiagcheck_kerneliiP18magmaDoubleComplexPiS1_S1_
libmagma_sparse.so:_Z17zdiagcheck_kerneliiPdPiS0_S0_
libmagma_sparse.so:_Z17zdiagcheck_kerneliiPfPiS0_S0_
libmagma_sparse.so:_Z17zgesellcmv_kerneliii18magmaDoubleComplexPS_PiS1_S0_S_S0_
libmagma_sparse.so:_Z17zvjacobisetup_gpuiiP18magmaDoubleComplexS0_S0_S0_
libmagma_sparse.so:_Z18magma_ccg_d_kerneliP17magmaFloatComplexS0_S0_
libmagma_sparse.so:_Z18magma_cmexFunctionii17magmaFloatComplexiiPiS0_PS_S0_S0_S1_iS0_S0_S1_
libmagma_sparse.so:_Z18magma_dcg_d_kerneliPdS_S_
libmagma_sparse.so:_Z18magma_dmexFunctioniidiiPiS_PdS_S_S0_iS_S_S0_
libmagma_sparse.so:_Z18magma_scg_d_kerneliPfS_S_
libmagma_sparse.so:_Z18magma_smexFunctioniifiiPiS_PfS_S_S0_iS_S_S0_
libmagma_sparse.so:_Z18magma_zcg_d_kerneliP18magmaDoubleComplexS0_S0_
libmagma_sparse.so:_Z18magma_zmexFunctionii18magmaDoubleComplexiiPiS0_PS_S0_S0_S1_iS0_S0_S1_
libmagma_sparse.so:_Z19cgeellrtmv_kernel_8ii17magmaFloatComplexPS_PiS1_S0_S_S0_ii
libmagma_sparse.so:_Z19dgeellrtmv_kernel_8iidPdPiS0_S_dS_ii
libmagma_sparse.so:_Z19magma_ccg_rhokernelP17magmaFloatComplex
libmagma_sparse.so:_Z19magma_ccgs_1_kernelii17magmaFloatComplexPS_S0_S0_S0_
libmagma_sparse.so:_Z19magma_ccgs_2_kerneliiP17magmaFloatComplexS0_S0_
libmagma_sparse.so:_Z19magma_ccgs_3_kernelii17magmaFloatComplexPS_S0_S0_S0_
libmagma_sparse.so:_Z19magma_ccgs_4_kernelii17magmaFloatComplexPS_S0_S0_S0_
libmagma_sparse.so:_Z19magma_cqmr_1_kernelii17magmaFloatComplexS_PS_S0_S0_S0_
libmagma_sparse.so:_Z19magma_cqmr_2_kernelii17magmaFloatComplexS_PS_S0_S0_S0_
libmagma_sparse.so:_Z19magma_cqmr_3_kernelii17magmaFloatComplexPS_S0_S0_
libmagma_sparse.so:_Z19magma_cqmr_4_kernelii17magmaFloatComplexPS_S0_S0_S0_S0_S0_
libmagma_sparse.so:_Z19magma_cqmr_5_kernelii17magmaFloatComplexS_PS_S0_S0_S0_S0_S0_
libmagma_sparse.so:_Z19magma_cqmr_6_kernelii17magmaFloatComplexS_S_PS_S0_S0_S0_S0_
libmagma_sparse.so:_Z19magma_cqmr_7_kernelii17magmaFloatComplexPS_S0_S0_
libmagma_sparse.so:_Z19magma_cqmr_8_kernelii17magmaFloatComplexS_PS_S0_S0_S0_S0_S0_
libmagma_sparse.so:_Z19magma_dcg_rhokernelPd
libmagma_sparse.so:_Z19magma_dcgs_1_kerneliidPdS_S_S_
libmagma_sparse.so:_Z19magma_dcgs_2_kerneliiPdS_S_
libmagma_sparse.so:_Z19magma_dcgs_3_kerneliidPdS_S_S_
libmagma_sparse.so:_Z19magma_dcgs_4_kerneliidPdS_S_S_
libmagma_sparse.so:_Z19magma_dqmr_1_kerneliiddPdS_S_S_
libmagma_sparse.so:_Z19magma_dqmr_2_kerneliiddPdS_S_S_
libmagma_sparse.so:_Z19magma_dqmr_3_kerneliidPdS_S_
libmagma_sparse.so:_Z19magma_dqmr_4_kerneliidPdS_S_S_S_S_
libmagma_sparse.so:_Z19magma_dqmr_5_kerneliiddPdS_S_S_S_S_
libmagma_sparse.so:_Z19magma_dqmr_6_kerneliidddPdS_S_S_S_
libmagma_sparse.so:_Z19magma_dqmr_7_kerneliidPdS_S_
libmagma_sparse.so:_Z19magma_dqmr_8_kerneliiddPdS_S_S_S_S_
libmagma_sparse.so:_Z19magma_scg_rhokernelPf
libmagma_sparse.so:_Z19magma_scgs_1_kerneliifPfS_S_S_
libmagma_sparse.so:_Z19magma_scgs_2_kerneliiPfS_S_
libmagma_sparse.so:_Z19magma_scgs_3_kerneliifPfS_S_S_
libmagma_sparse.so:_Z19magma_scgs_4_kerneliifPfS_S_S_
libmagma_sparse.so:_Z19magma_sqmr_1_kerneliiffPfS_S_S_
libmagma_sparse.so:_Z19magma_sqmr_2_kerneliiffPfS_S_S_
libmagma_sparse.so:_Z19magma_sqmr_3_kerneliifPfS_S_
libmagma_sparse.so:_Z19magma_sqmr_4_kerneliifPfS_S_S_S_S_
libmagma_sparse.so:_Z19magma_sqmr_5_kerneliiffPfS_S_S_S_S_
libmagma_sparse.so:_Z19magma_sqmr_6_kerneliifffPfS_S_S_S_
libmagma_sparse.so:_Z19magma_sqmr_7_kerneliifPfS_S_
libmagma_sparse.so:_Z19magma_sqmr_8_kerneliiffPfS_S_S_S_S_
libmagma_sparse.so:_Z19magma_zcg_rhokernelP18magmaDoubleComplex
libmagma_sparse.so:_Z19magma_zcgs_1_kernelii18magmaDoubleComplexPS_S0_S0_S0_
libmagma_sparse.so:_Z19magma_zcgs_2_kerneliiP18magmaDoubleComplexS0_S0_
libmagma_sparse.so:_Z19magma_zcgs_3_kernelii18magmaDoubleComplexPS_S0_S0_S0_
libmagma_sparse.so:_Z19magma_zcgs_4_kernelii18magmaDoubleComplexPS_S0_S0_S0_
libmagma_sparse.so:_Z19magma_zqmr_1_kernelii18magmaDoubleComplexS_PS_S0_S0_S0_
libmagma_sparse.so:_Z19magma_zqmr_2_kernelii18magmaDoubleComplexS_PS_S0_S0_S0_
libmagma_sparse.so:_Z19magma_zqmr_3_kernelii18magmaDoubleComplexPS_S0_S0_
libmagma_sparse.so:_Z19magma_zqmr_4_kernelii18magmaDoubleComplexPS_S0_S0_S0_S0_S0_
libmagma_sparse.so:_Z19magma_zqmr_5_kernelii18magmaDoubleComplexS_PS_S0_S0_S0_S0_S0_
libmagma_sparse.so:_Z19magma_zqmr_6_kernelii18magmaDoubleComplexS_S_PS_S0_S0_S0_S0_
libmagma_sparse.so:_Z19magma_zqmr_7_kernelii18magmaDoubleComplexPS_S0_S0_
libmagma_sparse.so:_Z19magma_zqmr_8_kernelii18magmaDoubleComplexS_PS_S0_S0_S0_S0_S0_
libmagma_sparse.so:_Z19sgeellrtmv_kernel_8iifPfPiS0_S_fS_ii
libmagma_sparse.so:_Z19zcompute_nnz_kerneliPiS_S_P17magmaFloatComplexf
libmagma_sparse.so:_Z19zcompute_nnz_kerneliPiS_S_P18magmaDoubleComplexd
libmagma_sparse.so:_Z19zcompute_nnz_kerneliPiS_S_Pdd
libmagma_sparse.so:_Z19zcompute_nnz_kerneliPiS_S_Pff
libmagma_sparse.so:_Z19zgeellrtmv_kernel_8ii18magmaDoubleComplexPS_PiS1_S0_S_S0_ii
libmagma_sparse.so:_Z20cgeellrtmv_kernel_16ii17magmaFloatComplexPS_PiS1_S0_S_S0_ii
libmagma_sparse.so:_Z20cgeellrtmv_kernel_32ii17magmaFloatComplexPS_PiS1_S0_S_S0_ii
libmagma_sparse.so:_Z20cjacobiupdate_kerneliiP17magmaFloatComplexS0_S0_S0_
libmagma_sparse.so:_Z20dgeellrtmv_kernel_16iidPdPiS0_S_dS_ii
libmagma_sparse.so:_Z20dgeellrtmv_kernel_32iidPdPiS0_S_dS_ii
libmagma_sparse.so:_Z20djacobiupdate_kerneliiPdS_S_S_
libmagma_sparse.so:_Z20magma_ck_testLockingPji
libmagma_sparse.so:_Z20magma_dk_testLockingPji
libmagma_sparse.so:_Z20magma_sk_testLockingPji
libmagma_sparse.so:_Z20magma_zk_testLockingPji
libmagma_sparse.so:_Z20mm_read_mtx_crd_dataP8_IO_FILEiiiPiS1_PdPc
libmagma_sparse.so:_Z20mm_read_mtx_crd_sizeP8_IO_FILEPiS1_S1_
libmagma_sparse.so:_Z20mm_snprintf_typecodePcmS_
libmagma_sparse.so:_Z20sgeellrtmv_kernel_16iifPfPiS0_S_fS_ii
libmagma_sparse.so:_Z20sgeellrtmv_kernel_32iifPfPiS0_S_fS_ii
libmagma_sparse.so:_Z20sjacobiupdate_kerneliiPfS_S_S_
libmagma_sparse.so:_Z20zgeellrtmv_kernel_16ii18magmaDoubleComplexPS_PiS1_S0_S_S0_ii
libmagma_sparse.so:_Z20zgeellrtmv_kernel_32ii18magmaDoubleComplexPS_PiS1_S0_S_S0_ii
libmagma_sparse.so:_Z20zjacobiupdate_kerneliiP18magmaDoubleComplexS0_S0_S0_
libmagma_sparse.so:_Z21ccompactactive_kerneliiP17magmaFloatComplexiPi
libmagma_sparse.so:_Z21cgecsrmv_kernel_shiftii17magmaFloatComplexS_PS_PiS1_S0_S_iiS1_S0_
libmagma_sparse.so:_Z21cgeellmv_kernel_shiftiii17magmaFloatComplexS_PS_PiS0_S_iiS1_S0_
libmagma_sparse.so:_Z21dcompactactive_kerneliiPdiPi
libmagma_sparse.so:_Z21dgecsrmv_kernel_shiftiiddPdPiS0_S_diiS0_S_
libmagma_sparse.so:_Z21dgeellmv_kernel_shiftiiiddPdPiS_diiS0_S_
libmagma_sparse.so:_Z21magma_cmatrixcup_filliPKiS0_PK17magmaFloatComplexS0_S0_S3_PiS4_S4_PS1_
libmagma_sparse.so:_Z21magma_cpipelinesscaleiP17magmaFloatComplexS0_
libmagma_sparse.so:_Z21magma_cpreselect_gpu0iPiP17magmaFloatComplexS1_
libmagma_sparse.so:_Z21magma_cpreselect_gpu1iPiP17magmaFloatComplexS1_
libmagma_sparse.so:_Z21magma_ctfqmr_1_kernelii17magmaFloatComplexS_PS_S0_S0_S0_S0_S0_S0_S0_
libmagma_sparse.so:_Z21magma_ctfqmr_2_kernelii17magmaFloatComplexPS_S0_S0_S0_
libmagma_sparse.so:_Z21magma_ctfqmr_3_kernelii17magmaFloatComplexPS_S0_S0_
libmagma_sparse.so:_Z21magma_ctfqmr_4_kernelii17magmaFloatComplexPS_S0_S0_
libmagma_sparse.so:_Z21magma_ctfqmr_5_kernelii17magmaFloatComplexS_PS_S0_S0_S0_S0_S0_
libmagma_sparse.so:_Z21magma_cvalinit_kerneliP17magmaFloatComplex
libmagma_sparse.so:_Z21magma_dmatrixcup_filliPKiS0_PKdS0_S0_S2_PiS3_S3_Pd
libmagma_sparse.so:_Z21magma_dpipelinedscaleiPdS_
libmagma_sparse.so:_Z21magma_dpreselect_gpu0iPiPdS0_
libmagma_sparse.so:_Z21magma_dpreselect_gpu1iPiPdS0_
libmagma_sparse.so:_Z21magma_dtfqmr_1_kerneliiddPdS_S_S_S_S_S_S_
libmagma_sparse.so:_Z21magma_dtfqmr_2_kerneliidPdS_S_S_
libmagma_sparse.so:_Z21magma_dtfqmr_3_kerneliidPdS_S_
libmagma_sparse.so:_Z21magma_dtfqmr_4_kerneliidPdS_S_
libmagma_sparse.so:_Z21magma_dtfqmr_5_kerneliiddPdS_S_S_S_S_
libmagma_sparse.so:_Z21magma_dvalinit_kerneliPd
libmagma_sparse.so:_Z21magma_smatrixcup_filliPKiS0_PKfS0_S0_S2_PiS3_S3_Pf
libmagma_sparse.so:_Z21magma_spipelinesscaleiPfS_
libmagma_sparse.so:_Z21magma_spreselect_gpu0iPiPfS0_
libmagma_sparse.so:_Z21magma_spreselect_gpu1iPiPfS0_
libmagma_sparse.so:_Z21magma_stfqmr_1_kerneliiffPfS_S_S_S_S_S_S_
libmagma_sparse.so:_Z21magma_stfqmr_2_kerneliifPfS_S_S_
libmagma_sparse.so:_Z21magma_stfqmr_3_kerneliifPfS_S_
libmagma_sparse.so:_Z21magma_stfqmr_4_kerneliifPfS_S_
libmagma_sparse.so:_Z21magma_stfqmr_5_kerneliiffPfS_S_S_S_S_
libmagma_sparse.so:_Z21magma_svalinit_kerneliPf
libmagma_sparse.so:_Z21magma_zmatrixcup_filliPKiS0_PK18magmaDoubleComplexS0_S0_S3_PiS4_S4_PS1_
libmagma_sparse.so:_Z21magma_zpipelinedscaleiP18magmaDoubleComplexS0_
libmagma_sparse.so:_Z21magma_zpreselect_gpu0iPiP18magmaDoubleComplexS1_
libmagma_sparse.so:_Z21magma_zpreselect_gpu1iPiP18magmaDoubleComplexS1_
libmagma_sparse.so:_Z21magma_ztfqmr_1_kernelii18magmaDoubleComplexS_PS_S0_S0_S0_S0_S0_S0_S0_
libmagma_sparse.so:_Z21magma_ztfqmr_2_kernelii18magmaDoubleComplexPS_S0_S0_S0_
libmagma_sparse.so:_Z21magma_ztfqmr_3_kernelii18magmaDoubleComplexPS_S0_S0_
libmagma_sparse.so:_Z21magma_ztfqmr_4_kernelii18magmaDoubleComplexPS_S0_S0_
libmagma_sparse.so:_Z21magma_ztfqmr_5_kernelii18magmaDoubleComplexS_PS_S0_S0_S0_S0_S0_
libmagma_sparse.so:_Z21magma_zvalinit_kerneliP18magmaDoubleComplex
libmagma_sparse.so:_Z21mm_read_mtx_crd_entryP8_IO_FILEPiS1_PdS2_Pc
libmagma_sparse.so:_Z21mm_write_mtx_crd_sizeP8_IO_FILEiii
libmagma_sparse.so:_Z21scompactactive_kerneliiPfiPi
libmagma_sparse.so:_Z21sgecsrmv_kernel_shiftiiffPfPiS0_S_fiiS0_S_
libmagma_sparse.so:_Z21sgeellmv_kernel_shiftiiiffPfPiS_fiiS0_S_
libmagma_sparse.so:_Z21zcompactactive_kerneliiP18magmaDoubleComplexiPi
libmagma_sparse.so:_Z21zgecsrmv_kernel_shiftii18magmaDoubleComplexS_PS_PiS1_S0_S_iiS1_S0_
libmagma_sparse.so:_Z21zgeellmv_kernel_shiftiii18magmaDoubleComplexS_PS_PiS0_S_iiS1_S0_
libmagma_sparse.so:_Z22cgecsrreimsplit_kerneliiPiP17magmaFloatComplexS1_S1_
libmagma_sparse.so:_Z22cgeelltmv_kernel_shiftiii17magmaFloatComplexS_PS_PiS0_S_iiS1_S0_
libmagma_sparse.so:_Z22cjacobidiagscal_kerneliiP17magmaFloatComplexS0_S0_
libmagma_sparse.so:_Z22dgecsrreimsplit_kerneliiPiPdS0_S0_
libmagma_sparse.so:_Z22dgeelltmv_kernel_shiftiiiddPdPiS_diiS0_S_
libmagma_sparse.so:_Z22djacobidiagscal_kerneliiPdS_S_
libmagma_sparse.so:_Z22magma_cblockdot_kerneliiiP17magmaFloatComplexS0_S0_
libmagma_sparse.so:_Z22magma_cmatrixcup_countiPKiS0_S0_S0_Pi
libmagma_sparse.so:_Z22magma_cmcsrgpu_kernel1iP17magmaFloatComplexPiS1_S0_S1_S1_
libmagma_sparse.so:_Z22magma_cmcsrgpu_kernel2iPiS_
libmagma_sparse.so:_Z22magma_cmcsrgpu_kernel3iP17magmaFloatComplexPiS1_S1_S0_S1_S1_
libmagma_sparse.so:_Z22magma_cmdotc1_kernel_1iiP17magmaFloatComplexS0_S0_
libmagma_sparse.so:_Z22magma_cmdotc1_kernel_2iiP17magmaFloatComplexS0_
libmagma_sparse.so:_Z22magma_cmdotc2_kernel_1iiP17magmaFloatComplexS0_S0_S0_S0_
libmagma_sparse.so:_Z22magma_cmdotc2_kernel_2iiP17magmaFloatComplexS0_
libmagma_sparse.so:_Z22magma_cmdotc3_kernel_1iiP17magmaFloatComplexS0_S0_S0_S0_S0_S0_
libmagma_sparse.so:_Z22magma_cmdotc3_kernel_2iiP17magmaFloatComplexS0_
libmagma_sparse.so:_Z22magma_cmdotc4_kernel_1iiP17magmaFloatComplexS0_S0_S0_S0_S0_S0_S0_S0_
libmagma_sparse.so:_Z22magma_cmdotc4_kernel_2iiP17magmaFloatComplexS0_
libmagma_sparse.so:_Z22magma_dblockdot_kerneliiiPdS_S_
libmagma_sparse.so:_Z22magma_dmatrixcup_countiPKiS0_S0_S0_Pi
libmagma_sparse.so:_Z22magma_dmcsrgpu_kernel1iPdPiS0_S_S0_S0_
libmagma_sparse.so:_Z22magma_dmcsrgpu_kernel2iPiS_
libmagma_sparse.so:_Z22magma_dmcsrgpu_kernel3iPdPiS0_S0_S_S0_S0_
libmagma_sparse.so:_Z22magma_dmdotc1_kernel_1iiPdS_S_
libmagma_sparse.so:_Z22magma_dmdotc1_kernel_2iiPdS_
libmagma_sparse.so:_Z22magma_dmdotc2_kernel_1iiPdS_S_S_S_
libmagma_sparse.so:_Z22magma_dmdotc2_kernel_2iiPdS_
libmagma_sparse.so:_Z22magma_dmdotc3_kernel_1iiPdS_S_S_S_S_S_
libmagma_sparse.so:_Z22magma_dmdotc3_kernel_2iiPdS_
libmagma_sparse.so:_Z22magma_dmdotc4_kernel_1iiPdS_S_S_S_S_S_S_S_
libmagma_sparse.so:_Z22magma_dmdotc4_kernel_2iiPdS_
libmagma_sparse.so:_Z22magma_sblockdot_kerneliiiPfS_S_
libmagma_sparse.so:_Z22magma_smatrixcup_countiPKiS0_S0_S0_Pi
libmagma_sparse.so:_Z22magma_smcsrgpu_kernel1iPfPiS0_S_S0_S0_
libmagma_sparse.so:_Z22magma_smcsrgpu_kernel2iPiS_
libmagma_sparse.so:_Z22magma_smcsrgpu_kernel3iPfPiS0_S0_S_S0_S0_
libmagma_sparse.so:_Z22magma_smdotc1_kernel_1iiPfS_S_
libmagma_sparse.so:_Z22magma_smdotc1_kernel_2iiPfS_
libmagma_sparse.so:_Z22magma_smdotc2_kernel_1iiPfS_S_S_S_
libmagma_sparse.so:_Z22magma_smdotc2_kernel_2iiPfS_
libmagma_sparse.so:_Z22magma_smdotc3_kernel_1iiPfS_S_S_S_S_S_
libmagma_sparse.so:_Z22magma_smdotc3_kernel_2iiPfS_
libmagma_sparse.so:_Z22magma_smdotc4_kernel_1iiPfS_S_S_S_S_S_S_S_
libmagma_sparse.so:_Z22magma_smdotc4_kernel_2iiPfS_
libmagma_sparse.so:_Z22magma_zblockdot_kerneliiiP18magmaDoubleComplexS0_S0_
libmagma_sparse.so:_Z22magma_zmatrixcup_countiPKiS0_S0_S0_Pi
libmagma_sparse.so:_Z22magma_zmcsrgpu_kernel1iP18magmaDoubleComplexPiS1_S0_S1_S1_
libmagma_sparse.so:_Z22magma_zmcsrgpu_kernel2iPiS_
libmagma_sparse.so:_Z22magma_zmcsrgpu_kernel3iP18magmaDoubleComplexPiS1_S1_S0_S1_S1_
libmagma_sparse.so:_Z22magma_zmdotc1_kernel_1iiP18magmaDoubleComplexS0_S0_
libmagma_sparse.so:_Z22magma_zmdotc1_kernel_2iiP18magmaDoubleComplexS0_
libmagma_sparse.so:_Z22magma_zmdotc2_kernel_1iiP18magmaDoubleComplexS0_S0_S0_S0_
libmagma_sparse.so:_Z22magma_zmdotc2_kernel_2iiP18magmaDoubleComplexS0_
libmagma_sparse.so:_Z22magma_zmdotc3_kernel_1iiP18magmaDoubleComplexS0_S0_S0_S0_S0_S0_
libmagma_sparse.so:_Z22magma_zmdotc3_kernel_2iiP18magmaDoubleComplexS0_
libmagma_sparse.so:_Z22magma_zmdotc4_kernel_1iiP18magmaDoubleComplexS0_S0_S0_S0_S0_S0_S0_S0_
libmagma_sparse.so:_Z22magma_zmdotc4_kernel_2iiP18magmaDoubleComplexS0_
libmagma_sparse.so:_Z22mm_read_mtx_array_sizeP8_IO_FILEPiS1_
libmagma_sparse.so:_Z22sgecsrreimsplit_kerneliiPiPfS0_S0_
libmagma_sparse.so:_Z22sgeelltmv_kernel_shiftiiiffPfPiS_fiiS0_S_
libmagma_sparse.so:_Z22sjacobidiagscal_kerneliiPfS_S_
libmagma_sparse.so:_Z22zcompute_newval_kerneliPiS_S_S_S_P17magmaFloatComplexS1_
libmagma_sparse.so:_Z22zcompute_newval_kerneliPiS_S_S_S_P18magmaDoubleComplexS1_
libmagma_sparse.so:_Z22zcompute_newval_kerneliPiS_S_S_S_PdS0_
libmagma_sparse.so:_Z22zcompute_newval_kerneliPiS_S_S_S_PfS0_
libmagma_sparse.so:_Z22zgecsrreimsplit_kerneliiPiP18magmaDoubleComplexS1_S1_
libmagma_sparse.so:_Z22zgeelltmv_kernel_shiftiii18magmaDoubleComplexS_PS_PiS0_S_iiS1_S0_
libmagma_sparse.so:_Z22zjacobidiagscal_kerneliiP18magmaDoubleComplexS0_S0_
libmagma_sparse.so:_Z23magma_cbajac_csr_kerneliP17magmaFloatComplexPiS1_S0_S1_S1_S0_S0_
libmagma_sparse.so:_Z23magma_cindexinit_kerneliPi
libmagma_sparse.so:_Z23magma_cparic_csr_kerneliiPiS_PK17magmaFloatComplexS_S_PS0_
libmagma_sparse.so:_Z23magma_cparilut_L_kerneliPKiS0_PK17magmaFloatComplexiS0_S0_S0_PS1_iS0_S0_S0_S4_
libmagma_sparse.so:_Z23magma_cparilut_U_kerneliPKiS0_PK17magmaFloatComplexiS0_S0_S0_PS1_iS0_S0_S0_S4_
libmagma_sparse.so:_Z23magma_dbajac_csr_kerneliPdPiS0_S_S0_S0_S_S_
libmagma_sparse.so:_Z23magma_dindexinit_kerneliPi
libmagma_sparse.so:_Z23magma_dparic_csr_kerneliiPiS_PKdS_S_Pd
libmagma_sparse.so:_Z23magma_dparilut_L_kerneliPKiS0_PKdiS0_S0_S0_PdiS0_S0_S0_S3_
libmagma_sparse.so:_Z23magma_dparilut_U_kerneliPKiS0_PKdiS0_S0_S0_PdiS0_S0_S0_S3_
libmagma_sparse.so:_Z23magma_sbajac_csr_kerneliPfPiS0_S_S0_S0_S_S_
libmagma_sparse.so:_Z23magma_sindexinit_kerneliPi
libmagma_sparse.so:_Z23magma_sparic_csr_kerneliiPiS_PKfS_S_Pf
libmagma_sparse.so:_Z23magma_sparilut_L_kerneliPKiS0_PKfiS0_S0_S0_PfiS0_S0_S0_S3_
libmagma_sparse.so:_Z23magma_sparilut_U_kerneliPKiS0_PKfiS0_S0_S0_PfiS0_S0_S0_S3_
libmagma_sparse.so:_Z23magma_zbajac_csr_kerneliP18magmaDoubleComplexPiS1_S0_S1_S1_S0_S0_
libmagma_sparse.so:_Z23magma_zindexinit_kerneliPi
libmagma_sparse.so:_Z23magma_zparic_csr_kerneliiPiS_PK18magmaDoubleComplexS_S_PS0_
libmagma_sparse.so:_Z23magma_zparilut_L_kerneliPKiS0_PK18magmaDoubleComplexiS0_S0_S0_PS1_iS0_S0_S0_S4_
libmagma_sparse.so:_Z23magma_zparilut_U_kerneliPKiS0_PK18magmaDoubleComplexiS0_S0_S0_PS1_iS0_S0_S0_S4_
libmagma_sparse.so:_Z23mm_write_mtx_array_sizeP8_IO_FILEii
libmagma_sparse.so:_Z24cgedensereimsplit_kerneliiPiP17magmaFloatComplexS1_S1_
libmagma_sparse.so:_Z24cjacobispmvupdate_kerneliiP17magmaFloatComplexPiS1_S0_S0_S0_S0_
libmagma_sparse.so:_Z24dgedensereimsplit_kerneliiPiPdS0_S0_
libmagma_sparse.so:_Z24djacobispmvupdate_kerneliiPdPiS0_S_S_S_S_
libmagma_sparse.so:_Z24magma_cbicgmerge1_kerneliP17magmaFloatComplexS0_S0_S0_
libmagma_sparse.so:_Z24magma_cbicgmerge2_kerneliP17magmaFloatComplexS0_S0_S0_
libmagma_sparse.so:_Z24magma_cbicgmerge3_kerneliP17magmaFloatComplexS0_S0_S0_S0_S0_
libmagma_sparse.so:_Z24magma_cbicgstab_1_kernelii17magmaFloatComplexS_PS_S0_S0_
libmagma_sparse.so:_Z24magma_cbicgstab_2_kernelii17magmaFloatComplexPS_S0_S0_
libmagma_sparse.so:_Z24magma_cbicgstab_3_kernelii17magmaFloatComplexS_PS_S0_S0_S0_S0_
libmagma_sparse.so:_Z24magma_cbicgstab_4_kernelii17magmaFloatComplexS_PS_S0_S0_S0_S0_S0_
libmagma_sparse.so:_Z24magma_clobpcg_res_kerneliiPfP17magmaFloatComplexS1_S_
libmagma_sparse.so:_Z24magma_cmconjugate_kerneliPiP17magmaFloatComplex
libmagma_sparse.so:_Z24magma_cmdotc2_gpumemzeroP17magmaFloatComplexi
libmagma_sparse.so:_Z24magma_cmdotc3_gpumemzeroP17magmaFloatComplexi
libmagma_sparse.so:_Z24magma_cmdotc4_gpumemzeroP17magmaFloatComplexi
libmagma_sparse.so:_Z24magma_cparilu_csr_kerneliiPKiS0_PK17magmaFloatComplexS0_S0_PS1_S0_S0_S4_
libmagma_sparse.so:_Z24magma_dbicgmerge1_kerneliPdS_S_S_
libmagma_sparse.so:_Z24magma_dbicgmerge2_kerneliPdS_S_S_
libmagma_sparse.so:_Z24magma_dbicgmerge3_kerneliPdS_S_S_S_S_
libmagma_sparse.so:_Z24magma_dbicgstab_1_kerneliiddPdS_S_
libmagma_sparse.so:_Z24magma_dbicgstab_2_kerneliidPdS_S_
libmagma_sparse.so:_Z24magma_dbicgstab_3_kerneliiddPdS_S_S_S_
libmagma_sparse.so:_Z24magma_dbicgstab_4_kerneliiddPdS_S_S_S_S_
libmagma_sparse.so:_Z24magma_dlobpcg_res_kerneliiPdS_S_S_
libmagma_sparse.so:_Z24magma_dmconjugate_kerneliPiPd
libmagma_sparse.so:_Z24magma_dmdotc2_gpumemzeroPdi
libmagma_sparse.so:_Z24magma_dmdotc3_gpumemzeroPdi
libmagma_sparse.so:_Z24magma_dmdotc4_gpumemzeroPdi
libmagma_sparse.so:_Z24magma_dparilu_csr_kerneliiPKiS0_PKdS0_S0_PdS0_S0_S3_
libmagma_sparse.so:_Z24magma_sbicgmerge1_kerneliPfS_S_S_
libmagma_sparse.so:_Z24magma_sbicgmerge2_kerneliPfS_S_S_
libmagma_sparse.so:_Z24magma_sbicgmerge3_kerneliPfS_S_S_S_S_
libmagma_sparse.so:_Z24magma_sbicgstab_1_kerneliiffPfS_S_
libmagma_sparse.so:_Z24magma_sbicgstab_2_kerneliifPfS_S_
libmagma_sparse.so:_Z24magma_sbicgstab_3_kerneliiffPfS_S_S_S_
libmagma_sparse.so:_Z24magma_sbicgstab_4_kerneliiffPfS_S_S_S_S_
libmagma_sparse.so:_Z24magma_slobpcg_res_kerneliiPfS_S_S_
libmagma_sparse.so:_Z24magma_smconjugate_kerneliPiPf
libmagma_sparse.so:_Z24magma_smdotc2_gpumemzeroPfi
libmagma_sparse.so:_Z24magma_smdotc3_gpumemzeroPfi
libmagma_sparse.so:_Z24magma_smdotc4_gpumemzeroPfi
libmagma_sparse.so:_Z24magma_sparilu_csr_kerneliiPKiS0_PKfS0_S0_PfS0_S0_S3_
libmagma_sparse.so:_Z24magma_zbicgmerge1_kerneliP18magmaDoubleComplexS0_S0_S0_
libmagma_sparse.so:_Z24magma_zbicgmerge2_kerneliP18magmaDoubleComplexS0_S0_S0_
libmagma_sparse.so:_Z24magma_zbicgmerge3_kerneliP18magmaDoubleComplexS0_S0_S0_S0_S0_
libmagma_sparse.so:_Z24magma_zbicgstab_1_kernelii18magmaDoubleComplexS_PS_S0_S0_
libmagma_sparse.so:_Z24magma_zbicgstab_2_kernelii18magmaDoubleComplexPS_S0_S0_
libmagma_sparse.so:_Z24magma_zbicgstab_3_kernelii18magmaDoubleComplexS_PS_S0_S0_S0_S0_
libmagma_sparse.so:_Z24magma_zbicgstab_4_kernelii18magmaDoubleComplexS_PS_S0_S0_S0_S0_S0_
libmagma_sparse.so:_Z24magma_zlobpcg_res_kerneliiPdP18magmaDoubleComplexS1_S_
libmagma_sparse.so:_Z24magma_zmconjugate_kerneliPiP18magmaDoubleComplex
libmagma_sparse.so:_Z24magma_zmdotc2_gpumemzeroP18magmaDoubleComplexi
libmagma_sparse.so:_Z24magma_zmdotc3_gpumemzeroP18magmaDoubleComplexi
libmagma_sparse.so:_Z24magma_zmdotc4_gpumemzeroP18magmaDoubleComplexi
libmagma_sparse.so:_Z24magma_zparilu_csr_kerneliiPKiS0_PK18magmaDoubleComplexS0_S0_PS1_S0_S0_S4_
libmagma_sparse.so:_Z24sgedensereimsplit_kerneliiPiPfS0_S0_
libmagma_sparse.so:_Z24sjacobispmvupdate_kerneliiPfPiS0_S_S_S_S_
libmagma_sparse.so:_Z24sptrsm_syncfree_executorPiS_P17magmaFloatComplexS_iiiiS1_S1_
libmagma_sparse.so:_Z24sptrsm_syncfree_executorPiS_P18magmaDoubleComplexS_iiiiS1_S1_
libmagma_sparse.so:_Z24sptrsm_syncfree_executorPiS_PdS_iiiiS0_S0_
libmagma_sparse.so:_Z24sptrsm_syncfree_executorPiS_PfS_iiiiS0_S0_
libmagma_sparse.so:_Z24sptrsv_syncfree_analyserPiP17magmaFloatComplexiiS_
libmagma_sparse.so:_Z24sptrsv_syncfree_analyserPiP18magmaDoubleComplexiiS_
libmagma_sparse.so:_Z24sptrsv_syncfree_analyserPiPdiiS_
libmagma_sparse.so:_Z24sptrsv_syncfree_analyserPiPfiiS_
libmagma_sparse.so:_Z24zgedensereimsplit_kerneliiPiP18magmaDoubleComplexS1_S1_
libmagma_sparse.so:_Z24zjacobispmvupdate_kerneliiP18magmaDoubleComplexPiS1_S0_S0_S0_S0_
libmagma_sparse.so:_Z25magma_cblockreduce_kerneliiiP17magmaFloatComplexS0_
libmagma_sparse.so:_Z25magma_ccg_alphabetakernelP17magmaFloatComplex
libmagma_sparse.so:_Z25magma_cget_row_ptr_kerneliPiPKiS_
libmagma_sparse.so:_Z25magma_creduce_kernel_fastiiP17magmaFloatComplexS0_
libmagma_sparse.so:_Z25magma_dblockreduce_kerneliiiPdS_
libmagma_sparse.so:_Z25magma_dcg_alphabetakernelPd
libmagma_sparse.so:_Z25magma_dget_row_ptr_kerneliPiPKiS_
libmagma_sparse.so:_Z25magma_dmddot_one_kernel_1iPdS_S_
libmagma_sparse.so:_Z25magma_dreduce_kernel_fastiiPdS_
libmagma_sparse.so:_Z25magma_sblockreduce_kerneliiiPfS_
libmagma_sparse.so:_Z25magma_scg_alphabetakernelPf
libmagma_sparse.so:_Z25magma_sget_row_ptr_kerneliPiPKiS_
libmagma_sparse.so:_Z25magma_smsdot_one_kernel_1iPfS_S_
libmagma_sparse.so:_Z25magma_sreduce_kernel_fastiiPfS_
libmagma_sparse.so:_Z25magma_zblockreduce_kerneliiiP18magmaDoubleComplexS0_
libmagma_sparse.so:_Z25magma_zcg_alphabetakernelP18magmaDoubleComplex
libmagma_sparse.so:_Z25magma_zget_row_ptr_kerneliPiPKiS_
libmagma_sparse.so:_Z25magma_zreduce_kernel_fastiiP18magmaDoubleComplexS0_
libmagma_sparse.so:_Z26magma_cbajac_csr_ls_kerneliiP17magmaFloatComplexPiS1_S0_S1_S1_PKS_S0_
libmagma_sparse.so:_Z26magma_cbicgmerge4_kernel_1P17magmaFloatComplex
libmagma_sparse.so:_Z26magma_cbicgmerge4_kernel_2P17magmaFloatComplex
libmagma_sparse.so:_Z26magma_cbicgmerge4_kernel_3P17magmaFloatComplex
libmagma_sparse.so:_Z26magma_cbicgstab_betakernelP17magmaFloatComplex
libmagma_sparse.so:_Z26magma_clobpcg_maxpy_kerneliiP17magmaFloatComplexS0_
libmagma_sparse.so:_Z26magma_clobpcg_shift_kerneliiiP17magmaFloatComplex
libmagma_sparse.so:_Z26magma_cmcdotc_one_kernel_1iP17magmaFloatComplexS0_S0_
libmagma_sparse.so:_Z26magma_cpipelined_copyscaleiiP17magmaFloatComplexS0_S0_
libmagma_sparse.so:_Z26magma_creduce_kernel_spmv1iiP17magmaFloatComplexS0_
libmagma_sparse.so:_Z26magma_creduce_kernel_spmv2iiP17magmaFloatComplexS0_
libmagma_sparse.so:_Z26magma_dbajac_csr_ls_kerneliiPdPiS0_S_S0_S0_PKdS_
libmagma_sparse.so:_Z26magma_dbicgmerge4_kernel_1Pd
libmagma_sparse.so:_Z26magma_dbicgmerge4_kernel_2Pd
libmagma_sparse.so:_Z26magma_dbicgmerge4_kernel_3Pd
libmagma_sparse.so:_Z26magma_dbicgstab_betakernelPd
libmagma_sparse.so:_Z26magma_dlobpcg_maxpy_kerneliiPdS_
libmagma_sparse.so:_Z26magma_dlobpcg_shift_kerneliiiPd
libmagma_sparse.so:_Z26magma_dpipelined_copyscaleiiPdS_S_
libmagma_sparse.so:_Z26magma_dreduce_kernel_spmv1iiPdS_
libmagma_sparse.so:_Z26magma_dreduce_kernel_spmv2iiPdS_
libmagma_sparse.so:_Z26magma_sbajac_csr_ls_kerneliiPfPiS0_S_S0_S0_PKfS_
libmagma_sparse.so:_Z26magma_sbicgmerge4_kernel_1Pf
libmagma_sparse.so:_Z26magma_sbicgmerge4_kernel_2Pf
libmagma_sparse.so:_Z26magma_sbicgmerge4_kernel_3Pf
libmagma_sparse.so:_Z26magma_sbicgstab_betakernelPf
libmagma_sparse.so:_Z26magma_slobpcg_maxpy_kerneliiPfS_
libmagma_sparse.so:_Z26magma_slobpcg_shift_kerneliiiPf
libmagma_sparse.so:_Z26magma_spipelined_copyscaleiiPfS_S_
libmagma_sparse.so:_Z26magma_sreduce_kernel_spmv1iiPfS_
libmagma_sparse.so:_Z26magma_sreduce_kernel_spmv2iiPfS_
libmagma_sparse.so:_Z26magma_zbajac_csr_ls_kerneliiP18magmaDoubleComplexPiS1_S0_S1_S1_PKS_S0_
libmagma_sparse.so:_Z26magma_zbicgmerge4_kernel_1P18magmaDoubleComplex
libmagma_sparse.so:_Z26magma_zbicgmerge4_kernel_2P18magmaDoubleComplex
libmagma_sparse.so:_Z26magma_zbicgmerge4_kernel_3P18magmaDoubleComplex
libmagma_sparse.so:_Z26magma_zbicgstab_betakernelP18magmaDoubleComplex
libmagma_sparse.so:_Z26magma_zlobpcg_maxpy_kerneliiP18magmaDoubleComplexS0_
libmagma_sparse.so:_Z26magma_zlobpcg_shift_kerneliiiP18magmaDoubleComplex
libmagma_sparse.so:_Z26magma_zmzdotc_one_kernel_1iP18magmaDoubleComplexS0_S0_
libmagma_sparse.so:_Z26magma_zpipelined_copyscaleiiP18magmaDoubleComplexS0_S0_
libmagma_sparse.so:_Z26magma_zreduce_kernel_spmv1iiP18magmaDoubleComplexS0_
libmagma_sparse.so:_Z26magma_zreduce_kernel_spmv2iiP18magmaDoubleComplexS0_
libmagma_sparse.so:_Z26mm_read_unsymmetric_sparsePKcPiS1_S1_PPdPS1_S4_
libmagma_sparse.so:_Z27cftjacobiupdatecheck_kernelifP17magmaFloatComplexS0_S0_S0_PiS1_
libmagma_sparse.so:_Z27cjacobispmvupdate_bw_kerneliiP17magmaFloatComplexPiS1_S0_S0_S0_S0_
libmagma_sparse.so:_Z27cparilut_candidates_count_1iPKiS0_S0_S0_S0_S0_S0_S0_PiS1_
libmagma_sparse.so:_Z27cparilut_candidates_count_2iPKiS0_S0_S0_S0_S0_S0_S0_PiS1_
libmagma_sparse.so:_Z27dftjacobiupdatecheck_kernelidPdS_S_S_PiS0_
libmagma_sparse.so:_Z27djacobispmvupdate_bw_kerneliiPdPiS0_S_S_S_S_
libmagma_sparse.so:_Z27dparilut_candidates_count_1iPKiS0_S0_S0_S0_S0_S0_S0_PiS1_
libmagma_sparse.so:_Z27dparilut_candidates_count_2iPKiS0_S0_S0_S0_S0_S0_S0_PiS1_
libmagma_sparse.so:_Z27dsgecsrmv_mixed_prec_kerneliidPdPfPiS1_S_dS_
libmagma_sparse.so:_Z27magma_cbicgstab_alphakernelP17magmaFloatComplex
libmagma_sparse.so:_Z27magma_cbicgstab_omegakernelP17magmaFloatComplex
libmagma_sparse.so:_Z27magma_cpipelined_correctioniiP17magmaFloatComplexS0_S0_
libmagma_sparse.so:_Z27magma_cselect_insert_kerneliiPiS_P17magmaFloatComplexS_S_S1_S_S_
libmagma_sparse.so:_Z27magma_cselect_rowptr_kerneliPiS_
libmagma_sparse.so:_Z27magma_dbicgstab_alphakernelPd
libmagma_sparse.so:_Z27magma_dbicgstab_omegakernelPd
libmagma_sparse.so:_Z27magma_dpipelined_correctioniiPdS_S_
libmagma_sparse.so:_Z27magma_dselect_insert_kerneliiPiS_PdS_S_S0_S_S_
libmagma_sparse.so:_Z27magma_dselect_rowptr_kerneliPiS_
libmagma_sparse.so:_Z27magma_sbicgstab_alphakernelPf
libmagma_sparse.so:_Z27magma_sbicgstab_omegakernelPf
libmagma_sparse.so:_Z27magma_spipelined_correctioniiPfS_S_
libmagma_sparse.so:_Z27magma_sselect_insert_kerneliiPiS_PfS_S_S0_S_S_
libmagma_sparse.so:_Z27magma_sselect_rowptr_kerneliPiS_
libmagma_sparse.so:_Z27magma_zbicgstab_alphakernelP18magmaDoubleComplex
libmagma_sparse.so:_Z27magma_zbicgstab_omegakernelP18magmaDoubleComplex
libmagma_sparse.so:_Z27magma_zpipelined_correctioniiP18magmaDoubleComplexS0_S0_
libmagma_sparse.so:_Z27magma_zselect_insert_kerneliiPiS_P18magmaDoubleComplexS_S_S1_S_S_
libmagma_sparse.so:_Z27magma_zselect_rowptr_kerneliPiS_
libmagma_sparse.so:_Z27sftjacobiupdatecheck_kernelifPfS_S_S_PiS0_
libmagma_sparse.so:_Z27sjacobispmvupdate_bw_kerneliiPfPiS0_S_S_S_S_
libmagma_sparse.so:_Z27sparilut_candidates_count_1iPKiS0_S0_S0_S0_S0_S0_S0_PiS1_
libmagma_sparse.so:_Z27sparilut_candidates_count_2iPKiS0_S0_S0_S0_S0_S0_S0_PiS1_
libmagma_sparse.so:_Z27zcgecsrmv_mixed_prec_kernelii18magmaDoubleComplexPS_P17magmaFloatComplexPiS3_S0_S_S0_
libmagma_sparse.so:_Z27zftjacobiupdatecheck_kernelidP18magmaDoubleComplexS0_S0_S0_PiS1_
libmagma_sparse.so:_Z27zjacobispmvupdate_bw_kerneliiP18magmaDoubleComplexPiS1_S0_S0_S0_S0_
libmagma_sparse.so:_Z27zparilut_candidates_count_1iPKiS0_S0_S0_S0_S0_S0_S0_PiS1_
libmagma_sparse.so:_Z27zparilut_candidates_count_2iPKiS0_S0_S0_S0_S0_S0_S0_PiS1_
libmagma_sparse.so:_Z28__device_stub__cge3pt_kernelii17magmaFloatComplexS_PS_S0_
libmagma_sparse.so:_Z28__device_stub__dge3pt_kerneliiddPdS_
libmagma_sparse.so:_Z28__device_stub__sge3pt_kerneliiffPfS_
libmagma_sparse.so:_Z28__device_stub__zge3pt_kernelii18magmaDoubleComplexS_PS_S0_
libmagma_sparse.so:_Z28cftjacobicontractions_kerneliP17magmaFloatComplexS0_S0_S0_S0_
libmagma_sparse.so:_Z28cparilut_candidates_insert_1iPKiS0_S0_S0_S0_S0_S0_S0_PiS1_S1_P17magmaFloatComplexS1_S1_S1_S1_S3_S1_
libmagma_sparse.so:_Z28cparilut_candidates_insert_2iPKiS0_S0_S0_S0_S0_S0_S0_PiS1_S1_P17magmaFloatComplexS1_S1_S1_S1_S3_S1_
libmagma_sparse.so:_Z28dftjacobicontractions_kerneliPdS_S_S_S_
libmagma_sparse.so:_Z28dparilut_candidates_insert_1iPKiS0_S0_S0_S0_S0_S0_S0_PiS1_S1_PdS1_S1_S1_S1_S2_S1_
libmagma_sparse.so:_Z28dparilut_candidates_insert_2iPKiS0_S0_S0_S0_S0_S0_S0_PiS1_S1_PdS1_S1_S1_S1_S2_S1_
libmagma_sparse.so:_Z28magma_ccgmerge_xrbeta_kerneliP17magmaFloatComplexS0_S0_S0_S0_S0_
libmagma_sparse.so:_Z28magma_ccgreduce_kernel_spmv1iiP17magmaFloatComplexS0_
libmagma_sparse.so:_Z28magma_ccgreduce_kernel_spmv2iiP17magmaFloatComplexS0_
libmagma_sparse.so:_Z28magma_cjaccardweights_kerneliiiPiS_P17magmaFloatComplexS_S_S1_
libmagma_sparse.so:_Z28magma_cselect_pattern_kerneliiPiS_S_
libmagma_sparse.so:_Z28magma_dcgmerge_xrbeta_kerneliPdS_S_S_S_S_
libmagma_sparse.so:_Z28magma_dcgreduce_kernel_spmv1iiPdS_
libmagma_sparse.so:_Z28magma_dcgreduce_kernel_spmv2iiPdS_
libmagma_sparse.so:_Z28magma_djaccardweights_kerneliiiPiS_PdS_S_S0_
libmagma_sparse.so:_Z28magma_dpipelineddnrm2_kerneliPdiS_
libmagma_sparse.so:_Z28magma_dselect_pattern_kerneliiPiS_S_
libmagma_sparse.so:_Z28magma_scgmerge_xrbeta_kerneliPfS_S_S_S_S_
libmagma_sparse.so:_Z28magma_scgreduce_kernel_spmv1iiPfS_
libmagma_sparse.so:_Z28magma_scgreduce_kernel_spmv2iiPfS_
libmagma_sparse.so:_Z28magma_sjaccardweights_kerneliiiPiS_PfS_S_S0_
libmagma_sparse.so:_Z28magma_spipelinedsnrm2_kerneliPfiS_
libmagma_sparse.so:_Z28magma_sselect_pattern_kerneliiPiS_S_
libmagma_sparse.so:_Z28magma_zcgmerge_xrbeta_kerneliP18magmaDoubleComplexS0_S0_S0_S0_S0_
libmagma_sparse.so:_Z28magma_zcgreduce_kernel_spmv1iiP18magmaDoubleComplexS0_
libmagma_sparse.so:_Z28magma_zcgreduce_kernel_spmv2iiP18magmaDoubleComplexS0_
libmagma_sparse.so:_Z28magma_zjaccardweights_kerneliiiPiS_P18magmaDoubleComplexS_S_S1_
libmagma_sparse.so:_Z28magma_zselect_pattern_kerneliiPiS_S_
libmagma_sparse.so:_Z28sftjacobicontractions_kerneliPfS_S_S_S_
libmagma_sparse.so:_Z28sparilut_candidates_insert_1iPKiS0_S0_S0_S0_S0_S0_S0_PiS1_S1_PfS1_S1_S1_S1_S2_S1_
libmagma_sparse.so:_Z28sparilut_candidates_insert_2iPKiS0_S0_S0_S0_S0_S0_S0_PiS1_S1_PfS1_S1_S1_S1_S2_S1_
libmagma_sparse.so:_Z28zftjacobicontractions_kerneliP18magmaDoubleComplexS0_S0_S0_S0_
libmagma_sparse.so:_Z28zparilut_candidates_insert_1iPKiS0_S0_S0_S0_S0_S0_S0_PiS1_S1_P18magmaDoubleComplexS1_S1_S1_S1_S3_S1_
libmagma_sparse.so:_Z28zparilut_candidates_insert_2iPKiS0_S0_S0_S0_S0_S0_S0_PiS1_S1_P18magmaDoubleComplexS1_S1_S1_S1_S3_S1_
libmagma_sparse.so:_Z29__device_stub__cgeaxpy_kernelii17magmaFloatComplexPS_S_S0_
libmagma_sparse.so:_Z29__device_stub__dgeaxpy_kerneliidPddS_
libmagma_sparse.so:_Z29__device_stub__sgeaxpy_kerneliifPffS_
libmagma_sparse.so:_Z29__device_stub__zgeaxpy_kernelii18magmaDoubleComplexPS_S_S0_
libmagma_sparse.so:_Z29magma_cbajac_csr_o_ls_kernel1iiiiP17magmaFloatComplexPiS1_S0_S1_S1_PKS_S0_
libmagma_sparse.so:_Z29magma_cbajac_csr_o_ls_kernel2iiiiP17magmaFloatComplexPiS1_S0_S1_S1_S0_S1_S1_S0_S1_S1_PKS_S0_
libmagma_sparse.so:_Z29magma_cbajac_csr_o_ls_kernel4iiiiP17magmaFloatComplexPiS1_S0_S1_S1_S0_S1_S1_S0_S1_S1_S0_S1_S1_S0_S1_S1_S0_S1_S1_S0_S1_S1_PKS_S0_
libmagma_sparse.so:_Z29magma_cbajac_csr_o_ls_kernel8iiiiP17magmaFloatComplexPiS1_S0_S1_S1_S0_S1_S1_S0_S1_S1_S0_S1_S1_S0_S1_S1_S0_S1_S1_S0_S1_S1_S0_S1_S1_S0_S1_S1_S0_S1_S1_S0_S1_S1_S0_S1_S1_S0_S1_S1_S0_S1_S1_S0_S1_S1_PKS_S0_
libmagma_sparse.so:_Z29magma_cbicgmerge_spmv1_kerneliP17magmaFloatComplexPiS1_S0_S0_S0_S0_
libmagma_sparse.so:_Z29magma_cbicgmerge_spmv2_kerneliP17magmaFloatComplexPiS1_S0_S0_S0_
libmagma_sparse.so:_Z29magma_ccgmerge_spmvcsr_kerneliP17magmaFloatComplexPiS1_S0_S0_S0_
libmagma_sparse.so:_Z29magma_ccgmerge_spmvell_kerneliiP17magmaFloatComplexPiS0_S0_S0_
libmagma_sparse.so:_Z29magma_cidr_smoothing_1_kerneliiP17magmaFloatComplexS0_S0_
libmagma_sparse.so:_Z29magma_cidr_smoothing_2_kernelii17magmaFloatComplexPS_S0_
libmagma_sparse.so:_Z29magma_cjcgmerge_xrbeta_kerneliP17magmaFloatComplexS0_S0_S0_S0_S0_S0_S0_
libmagma_sparse.so:_Z29magma_cpcgmerge_xrbeta_kerneliP17magmaFloatComplexS0_S0_S0_S0_
libmagma_sparse.so:_Z29magma_cpipelinedscnrm2_kerneliP17magmaFloatComplexiS0_
libmagma_sparse.so:_Z29magma_dbajac_csr_o_ls_kernel1iiiiPdPiS0_S_S0_S0_PKdS_
libmagma_sparse.so:_Z29magma_dbajac_csr_o_ls_kernel2iiiiPdPiS0_S_S0_S0_S_S0_S0_S_S0_S0_PKdS_
libmagma_sparse.so:_Z29magma_dbajac_csr_o_ls_kernel4iiiiPdPiS0_S_S0_S0_S_S0_S0_S_S0_S0_S_S0_S0_S_S0_S0_S_S0_S0_S_S0_S0_PKdS_
libmagma_sparse.so:_Z29magma_dbajac_csr_o_ls_kernel8iiiiPdPiS0_S_S0_S0_S_S0_S0_S_S0_S0_S_S0_S0_S_S0_S0_S_S0_S0_S_S0_S0_S_S0_S0_S_S0_S0_S_S0_S0_S_S0_S0_S_S0_S0_S_S0_S0_S_S0_S0_S_S0_S0_PKdS_
libmagma_sparse.so:_Z29magma_dbicgmerge_spmv1_kerneliPdPiS0_S_S_S_S_
libmagma_sparse.so:_Z29magma_dbicgmerge_spmv2_kerneliPdPiS0_S_S_S_
libmagma_sparse.so:_Z29magma_dcgmerge_spmvcsr_kerneliPdPiS0_S_S_S_
libmagma_sparse.so:_Z29magma_dcgmerge_spmvell_kerneliiPdPiS_S_S_
libmagma_sparse.so:_Z29magma_didr_smoothing_1_kerneliiPdS_S_
libmagma_sparse.so:_Z29magma_didr_smoothing_2_kerneliidPdS_
libmagma_sparse.so:_Z29magma_djcgmerge_xrbeta_kerneliPdS_S_S_S_S_S_S_
libmagma_sparse.so:_Z29magma_dpcgmerge_xrbeta_kerneliPdS_S_S_S_
libmagma_sparse.so:_Z29magma_sbajac_csr_o_ls_kernel1iiiiPfPiS0_S_S0_S0_PKfS_
libmagma_sparse.so:_Z29magma_sbajac_csr_o_ls_kernel2iiiiPfPiS0_S_S0_S0_S_S0_S0_S_S0_S0_PKfS_
libmagma_sparse.so:_Z29magma_sbajac_csr_o_ls_kernel4iiiiPfPiS0_S_S0_S0_S_S0_S0_S_S0_S0_S_S0_S0_S_S0_S0_S_S0_S0_S_S0_S0_PKfS_
libmagma_sparse.so:_Z29magma_sbajac_csr_o_ls_kernel8iiiiPfPiS0_S_S0_S0_S_S0_S0_S_S0_S0_S_S0_S0_S_S0_S0_S_S0_S0_S_S0_S0_S_S0_S0_S_S0_S0_S_S0_S0_S_S0_S0_S_S0_S0_S_S0_S0_S_S0_S0_S_S0_S0_PKfS_
libmagma_sparse.so:_Z29magma_sbicgmerge_spmv1_kerneliPfPiS0_S_S_S_S_
libmagma_sparse.so:_Z29magma_sbicgmerge_spmv2_kerneliPfPiS0_S_S_S_
libmagma_sparse.so:_Z29magma_scgmerge_spmvcsr_kerneliPfPiS0_S_S_S_
libmagma_sparse.so:_Z29magma_scgmerge_spmvell_kerneliiPfPiS_S_S_
libmagma_sparse.so:_Z29magma_sidr_smoothing_1_kerneliiPfS_S_
libmagma_sparse.so:_Z29magma_sidr_smoothing_2_kerneliifPfS_
libmagma_sparse.so:_Z29magma_sjcgmerge_xrbeta_kerneliPfS_S_S_S_S_S_S_
libmagma_sparse.so:_Z29magma_spcgmerge_xrbeta_kerneliPfS_S_S_S_
libmagma_sparse.so:_Z29magma_zbajac_csr_o_ls_kernel1iiiiP18magmaDoubleComplexPiS1_S0_S1_S1_PKS_S0_
libmagma_sparse.so:_Z29magma_zbajac_csr_o_ls_kernel2iiiiP18magmaDoubleComplexPiS1_S0_S1_S1_S0_S1_S1_S0_S1_S1_PKS_S0_
libmagma_sparse.so:_Z29magma_zbajac_csr_o_ls_kernel4iiiiP18magmaDoubleComplexPiS1_S0_S1_S1_S0_S1_S1_S0_S1_S1_S0_S1_S1_S0_S1_S1_S0_S1_S1_S0_S1_S1_PKS_S0_
libmagma_sparse.so:_Z29magma_zbajac_csr_o_ls_kernel8iiiiP18magmaDoubleComplexPiS1_S0_S1_S1_S0_S1_S1_S0_S1_S1_S0_S1_S1_S0_S1_S1_S0_S1_S1_S0_S1_S1_S0_S1_S1_S0_S1_S1_S0_S1_S1_S0_S1_S1_S0_S1_S1_S0_S1_S1_S0_S1_S1_S0_S1_S1_PKS_S0_
libmagma_sparse.so:_Z29magma_zbicgmerge_spmv1_kerneliP18magmaDoubleComplexPiS1_S0_S0_S0_S0_
libmagma_sparse.so:_Z29magma_zbicgmerge_spmv2_kerneliP18magmaDoubleComplexPiS1_S0_S0_S0_
libmagma_sparse.so:_Z29magma_zcgmerge_spmvcsr_kerneliP18magmaDoubleComplexPiS1_S0_S0_S0_
libmagma_sparse.so:_Z29magma_zcgmerge_spmvell_kerneliiP18magmaDoubleComplexPiS0_S0_S0_
libmagma_sparse.so:_Z29magma_zidr_smoothing_1_kerneliiP18magmaDoubleComplexS0_S0_
libmagma_sparse.so:_Z29magma_zidr_smoothing_2_kernelii18magmaDoubleComplexPS_S0_
libmagma_sparse.so:_Z29magma_zjcgmerge_xrbeta_kerneliP18magmaDoubleComplexS0_S0_S0_S0_S0_S0_S0_
libmagma_sparse.so:_Z29magma_zpcgmerge_xrbeta_kerneliP18magmaDoubleComplexS0_S0_S0_S0_
libmagma_sparse.so:_Z29magma_zpipelineddznrm2_kerneliP18magmaDoubleComplexiS0_
libmagma_sparse.so:_Z30__device_stub__ccompact_kerneliiP17magmaFloatComplexiPffPiS2_
libmagma_sparse.so:_Z30__device_stub__cgecsrmv_kernelii17magmaFloatComplexPS_PiS1_S0_S_S0_
libmagma_sparse.so:_Z30__device_stub__cgeellmv_kerneliii17magmaFloatComplexPS_PiS0_S_S0_
libmagma_sparse.so:_Z30__device_stub__dcompact_kerneliiPdiS_dPiS0_
libmagma_sparse.so:_Z30__device_stub__dgecsrmv_kerneliidPdPiS0_S_dS_
libmagma_sparse.so:_Z30__device_stub__dgeellmv_kerneliiidPdPiS_dS_
libmagma_sparse.so:_Z30__device_stub__scompact_kerneliiPfiS_fPiS0_
libmagma_sparse.so:_Z30__device_stub__sgecsrmv_kerneliifPfPiS0_S_fS_
libmagma_sparse.so:_Z30__device_stub__sgeellmv_kerneliiifPfPiS_fS_
libmagma_sparse.so:_Z30__device_stub__zcompact_kerneliiP18magmaDoubleComplexiPddPiS2_
libmagma_sparse.so:_Z30__device_stub__zgecsrmv_kernelii18magmaDoubleComplexPS_PiS1_S0_S_S0_
libmagma_sparse.so:_Z30__device_stub__zgeellmv_kerneliii18magmaDoubleComplexPS_PiS0_S_S0_
libmagma_sparse.so:_Z30cjacobispmvupdateselect_kerneliiiPiP17magmaFloatComplexS_S_S1_S1_S1_S1_S1_
libmagma_sparse.so:_Z30djacobispmvupdateselect_kerneliiiPiPdS_S_S0_S0_S0_S0_S0_
libmagma_sparse.so:_Z30magma_cbajac_csr_o_ls_kernel16iiiiP17magmaFloatComplexPiS1_S0_S1_S1_S0_S1_S1_S0_S1_S1_S0_S1_S1_S0_S1_S1_S0_S1_S1_S0_S1_S1_S0_S1_S1_S0_S1_S1_S0_S1_S1_S0_S1_S1_S0_S1_S1_S0_S1_S1_S0_S1_S1_S0_S1_S1_S0_S1_S1_S0_S1_S1_S0_S1_S1_S0_S1_S1_S0_S1_S1_S0_S1_S1_S0_S1_S1_S0_S1_S1_S0_S1_S1_S0_S1_S1_S0_S1_S1_S0_S1_S1_S0_S1_S1_S0_S1_S1_S0_S1_S1_S0_S1_S1_PKS_S0_
libmagma_sparse.so:_Z30magma_cbajac_csr_o_ls_kernel32iiiiP17magmaFloatComplexPiS1_S0_S1_S1_S0_S1_S1_S0_S1_S1_S0_S1_S1_S0_S1_S1_S0_S1_S1_S0_S1_S1_S0_S1_S1_S0_S1_S1_S0_S1_S1_S0_S1_S1_S0_S1_S1_S0_S1_S1_S0_S1_S1_S0_S1_S1_S0_S1_S1_S0_S1_S1_S0_S1_S1_S0_S1_S1_S0_S1_S1_S0_S1_S1_S0_S1_S1_S0_S1_S1_S0_S1_S1_S0_S1_S1_S0_S1_S1_S0_S1_S1_S0_S1_S1_S0_S1_S1_S0_S1_S1_S0_S1_S1_S0_S1_S1_S0_S1_S1_S0_S1_S1_S0_S1_S1_S0_S1_S1_S0_S1_S1_S0_S1_S1_S0_S1_S1_S0_S1_S1_S0_S1_S1_S0_S1_S1_S0_S1_S1_S0_S1_S1_S0_S1_S1_S0_S1_S1_S0_S1_S1_S0_S1_S1_S0_S1_S1_S0_S1_S1_S0_S1_S1_S0_S1_S1_S0_S1_S1_S0_S1_S1_S0_S1_S1_S0_S1_S1_S0_S1_S1_S0_S1_S1_S0_S1_S1_S0_S1_S1_S0_S1_S1_S0_S1_S1_S0_S1_S1_PKS_S0_
libmagma_sparse.so:_Z30magma_cbajac_csr_o_ls_kernel64iiiiP17magmaFloatComplexPiS1_S0_S1_S1_S0_S1_S1_S0_S1_S1_S0_S1_S1_S0_S1_S1_S0_S1_S1_S0_S1_S1_S0_S1_S1_S0_S1_S1_S0_S1_S1_S0_S1_S1_S0_S1_S1_S0_S1_S1_S0_S1_S1_S0_S1_S1_S0_S1_S1_S0_S1_S1_S0_S1_S1_S0_S1_S1_S0_S1_S1_S0_S1_S1_S0_S1_S1_S0_S1_S1_S0_S1_S1_S0_S1_S1_S0_S1_S1_S0_S1_S1_S0_S1_S1_S0_S1_S1_S0_S1_S1_S0_S1_S1_S0_S1_S1_S0_S1_S1_S0_S1_S1_S0_S1_S1_S0_S1_S1_S0_S1_S1_S0_S1_S1_S0_S1_S1_S0_S1_S1_S0_S1_S1_S0_S1_S1_S0_S1_S1_S0_S1_S1_S0_S1_S1_S0_S1_S1_S0_S1_S1_S0_S1_S1_S0_S1_S1_S0_S1_S1_S0_S1_S1_S0_S1_S1_S0_S1_S1_S0_S1_S1_S0_S1_S1_S0_S1_S1_S0_S1_S1_S0_S1_S1_S0_S1_S1_S0_S1_S1_S0_S1_S1_S0_S1_S1_S0_S1_S1_S0_S1_S1_S0_S1_S1_S0_S1_S1_S0_S1_S1_S0_S1_S1_S0_S1_S1_S0_S1_S1_S0_S1_S1_S0_S1_S1_S0_S1_S1_S0_S1_S1_S0_S1_S1_S0_S1_S1_S0_S1_S1_S0_S1_S1_S0_S1_S1_S0_S1_S1_S0_S1_S1_S0_S1_S1_S0_S1_S1_S0_S1_S1_S0_S1_S1_S0_S1_S1_S0_S1_S1_S0_S1_S1_S0_S1_S1_S0_S1_S1_S0_S1_S1_S0_S1_S1_S0_S1_S1_S0_S1_S1_S0_S1_S1_S0_S1_S1_S0_S1_S1_S0_S1_S1_S0_S1_S1_S0_S1_S1_S0_S1_S1_S0_S1_S1_S0_S1_S1_S0_S1_S1_S0_S1_S1_S0_S1_S1_S0_S1_S1_S0_S1_S1_S0_S1_S1_S0_S1_S1_S0_S1_S1_S0_S1_S1_S0_S1_S1_S0_S1_S1_S0_S1_S1_S0_S1_S1_S0_S1_S1_S0_S1_S1_S0_S1_S1_S0_S1_S1_S0_S1_S1_S0_S1_S1_S0_S1_S1_S0_S1_S1_S0_S1_S1_S0_S1_S1_S0_S1_S1_PKS_S0_
libmagma_sparse.so:_Z30magma_cbicgmerge_xrbeta_kerneliP17magmaFloatComplexS0_S0_S0_S0_S0_S0_S0_
libmagma_sparse.so:_Z30magma_cblockdot_kernel_shuffleiiPK17magmaFloatComplexS1_PS_
libmagma_sparse.so:_Z30magma_cblockreduce_kernel_fastiiiP17magmaFloatComplexS0_
libmagma_sparse.so:_Z30magma_cmergeblockkrylov_kerneliiP17magmaFloatComplexS0_S0_
libmagma_sparse.so:_Z30magma_dbajac_csr_o_ls_kernel16iiiiPdPiS0_S_S0_S0_S_S0_S0_S_S0_S0_S_S0_S0_S_S0_S0_S_S0_S0_S_S0_S0_S_S0_S0_S_S0_S0_S_S0_S0_S_S0_S0_S_S0_S0_S_S0_S0_S_S0_S0_S_S0_S0_S_S0_S0_S_S0_S0_S_S0_S0_S_S0_S0_S_S0_S0_S_S0_S0_S_S0_S0_S_S0_S0_S_S0_S0_S_S0_S0_S_S0_S0_S_S0_S0_S_S0_S0_S_S0_S0_S_S0_S0_S_S0_S0_PKdS_
libmagma_sparse.so:_Z30magma_dbajac_csr_o_ls_kernel32iiiiPdPiS0_S_S0_S0_S_S0_S0_S_S0_S0_S_S0_S0_S_S0_S0_S_S0_S0_S_S0_S0_S_S0_S0_S_S0_S0_S_S0_S0_S_S0_S0_S_S0_S0_S_S0_S0_S_S0_S0_S_S0_S0_S_S0_S0_S_S0_S0_S_S0_S0_S_S0_S0_S_S0_S0_S_S0_S0_S_S0_S0_S_S0_S0_S_S0_S0_S_S0_S0_S_S0_S0_S_S0_S0_S_S0_S0_S_S0_S0_S_S0_S0_S_S0_S0_S_S0_S0_S_S0_S0_S_S0_S0_S_S0_S0_S_S0_S0_S_S0_S0_S_S0_S0_S_S0_S0_S_S0_S0_S_S0_S0_S_S0_S0_S_S0_S0_S_S0_S0_S_S0_S0_S_S0_S0_S_S0_S0_S_S0_S0_S_S0_S0_S_S0_S0_S_S0_S0_S_S0_S0_S_S0_S0_S_S0_S0_S_S0_S0_S_S0_S0_S_S0_S0_S_S0_S0_S_S0_S0_S_S0_S0_S_S0_S0_S_S0_S0_S_S0_S0_PKdS_
libmagma_sparse.so:_Z30magma_dbajac_csr_o_ls_kernel64iiiiPdPiS0_S_S0_S0_S_S0_S0_S_S0_S0_S_S0_S0_S_S0_S0_S_S0_S0_S_S0_S0_S_S0_S0_S_S0_S0_S_S0_S0_S_S0_S0_S_S0_S0_S_S0_S0_S_S0_S0_S_S0_S0_S_S0_S0_S_S0_S0_S_S0_S0_S_S0_S0_S_S0_S0_S_S0_S0_S_S0_S0_S_S0_S0_S_S0_S0_S_S0_S0_S_S0_S0_S_S0_S0_S_S0_S0_S_S0_S0_S_S0_S0_S_S0_S0_S_S0_S0_S_S0_S0_S_S0_S0_S_S0_S0_S_S0_S0_S_S0_S0_S_S0_S0_S_S0_S0_S_S0_S0_S_S0_S0_S_S0_S0_S_S0_S0_S_S0_S0_S_S0_S0_S_S0_S0_S_S0_S0_S_S0_S0_S_S0_S0_S_S0_S0_S_S0_S0_S_S0_S0_S_S0_S0_S_S0_S0_S_S0_S0_S_S0_S0_S_S0_S0_S_S0_S0_S_S0_S0_S_S0_S0_S_S0_S0_S_S0_S0_S_S0_S0_S_S0_S0_S_S0_S0_S_S0_S0_S_S0_S0_S_S0_S0_S_S0_S0_S_S0_S0_S_S0_S0_S_S0_S0_S_S0_S0_S_S0_S0_S_S0_S0_S_S0_S0_S_S0_S0_S_S0_S0_S_S0_S0_S_S0_S0_S_S0_S0_S_S0_S0_S_S0_S0_S_S0_S0_S_S0_S0_S_S0_S0_S_S0_S0_S_S0_S0_S_S0_S0_S_S0_S0_S_S0_S0_S_S0_S0_S_S0_S0_S_S0_S0_S_S0_S0_S_S0_S0_S_S0_S0_S_S0_S0_S_S0_S0_S_S0_S0_S_S0_S0_S_S0_S0_S_S0_S0_S_S0_S0_S_S0_S0_S_S0_S0_S_S0_S0_S_S0_S0_S_S0_S0_S_S0_S0_S_S0_S0_S_S0_S0_S_S0_S0_S_S0_S0_S_S0_S0_S_S0_S0_S_S0_S0_S_S0_S0_S_S0_S0_S_S0_S0_S_S0_S0_S_S0_S0_S_S0_S0_S_S0_S0_S_S0_S0_S_S0_S0_S_S0_S0_PKdS_
libmagma_sparse.so:_Z30magma_dbicgmerge_xrbeta_kerneliPdS_S_S_S_S_S_S_
libmagma_sparse.so:_Z30magma_dblockdot_kernel_shuffleiiPKdS0_Pd
libmagma_sparse.so:_Z30magma_dblockreduce_kernel_fastiiiPdS_
libmagma_sparse.so:_Z30magma_dmergeblockkrylov_kerneliiPdS_S_
libmagma_sparse.so:_Z30magma_sbajac_csr_o_ls_kernel16iiiiPfPiS0_S_S0_S0_S_S0_S0_S_S0_S0_S_S0_S0_S_S0_S0_S_S0_S0_S_S0_S0_S_S0_S0_S_S0_S0_S_S0_S0_S_S0_S0_S_S0_S0_S_S0_S0_S_S0_S0_S_S0_S0_S_S0_S0_S_S0_S0_S_S0_S0_S_S0_S0_S_S0_S0_S_S0_S0_S_S0_S0_S_S0_S0_S_S0_S0_S_S0_S0_S_S0_S0_S_S0_S0_S_S0_S0_S_S0_S0_S_S0_S0_S_S0_S0_PKfS_
libmagma_sparse.so:_Z30magma_sbajac_csr_o_ls_kernel32iiiiPfPiS0_S_S0_S0_S_S0_S0_S_S0_S0_S_S0_S0_S_S0_S0_S_S0_S0_S_S0_S0_S_S0_S0_S_S0_S0_S_S0_S0_S_S0_S0_S_S0_S0_S_S0_S0_S_S0_S0_S_S0_S0_S_S0_S0_S_S0_S0_S_S0_S0_S_S0_S0_S_S0_S0_S_S0_S0_S_S0_S0_S_S0_S0_S_S0_S0_S_S0_S0_S_S0_S0_S_S0_S0_S_S0_S0_S_S0_S0_S_S0_S0_S_S0_S0_S_S0_S0_S_S0_S0_S_S0_S0_S_S0_S0_S_S0_S0_S_S0_S0_S_S0_S0_S_S0_S0_S_S0_S0_S_S0_S0_S_S0_S0_S_S0_S0_S_S0_S0_S_S0_S0_S_S0_S0_S_S0_S0_S_S0_S0_S_S0_S0_S_S0_S0_S_S0_S0_S_S0_S0_S_S0_S0_S_S0_S0_S_S0_S0_S_S0_S0_S_S0_S0_S_S0_S0_S_S0_S0_S_S0_S0_S_S0_S0_S_S0_S0_S_S0_S0_PKfS_
libmagma_sparse.so:_Z30magma_sbajac_csr_o_ls_kernel64iiiiPfPiS0_S_S0_S0_S_S0_S0_S_S0_S0_S_S0_S0_S_S0_S0_S_S0_S0_S_S0_S0_S_S0_S0_S_S0_S0_S_S0_S0_S_S0_S0_S_S0_S0_S_S0_S0_S_S0_S0_S_S0_S0_S_S0_S0_S_S0_S0_S_S0_S0_S_S0_S0_S_S0_S0_S_S0_S0_S_S0_S0_S_S0_S0_S_S0_S0_S_S0_S0_S_S0_S0_S_S0_S0_S_S0_S0_S_S0_S0_S_S0_S0_S_S0_S0_S_S0_S0_S_S0_S0_S_S0_S0_S_S0_S0_S_S0_S0_S_S0_S0_S_S0_S0_S_S0_S0_S_S0_S0_S_S0_S0_S_S0_S0_S_S0_S0_S_S0_S0_S_S0_S0_S_S0_S0_S_S0_S0_S_S0_S0_S_S0_S0_S_S0_S0_S_S0_S0_S_S0_S0_S_S0_S0_S_S0_S0_S_S0_S0_S_S0_S0_S_S0_S0_S_S0_S0_S_S0_S0_S_S0_S0_S_S0_S0_S_S0_S0_S_S0_S0_S_S0_S0_S_S0_S0_S_S0_S0_S_S0_S0_S_S0_S0_S_S0_S0_S_S0_S0_S_S0_S0_S_S0_S0_S_S0_S0_S_S0_S0_S_S0_S0_S_S0_S0_S_S0_S0_S_S0_S0_S_S0_S0_S_S0_S0_S_S0_S0_S_S0_S0_S_S0_S0_S_S0_S0_S_S0_S0_S_S0_S0_S_S0_S0_S_S0_S0_S_S0_S0_S_S0_S0_S_S0_S0_S_S0_S0_S_S0_S0_S_S0_S0_S_S0_S0_S_S0_S0_S_S0_S0_S_S0_S0_S_S0_S0_S_S0_S0_S_S0_S0_S_S0_S0_S_S0_S0_S_S0_S0_S_S0_S0_S_S0_S0_S_S0_S0_S_S0_S0_S_S0_S0_S_S0_S0_S_S0_S0_S_S0_S0_S_S0_S0_S_S0_S0_S_S0_S0_S_S0_S0_S_S0_S0_S_S0_S0_S_S0_S0_S_S0_S0_S_S0_S0_S_S0_S0_S_S0_S0_S_S0_S0_S_S0_S0_S_S0_S0_S_S0_S0_PKfS_
libmagma_sparse.so:_Z30magma_sbicgmerge_xrbeta_kerneliPfS_S_S_S_S_S_S_
libmagma_sparse.so:_Z30magma_sblockdot_kernel_shuffleiiPKfS0_Pf
libmagma_sparse.so:_Z30magma_sblockreduce_kernel_fastiiiPfS_
libmagma_sparse.so:_Z30magma_smergeblockkrylov_kerneliiPfS_S_
libmagma_sparse.so:_Z30magma_zbajac_csr_o_ls_kernel16iiiiP18magmaDoubleComplexPiS1_S0_S1_S1_S0_S1_S1_S0_S1_S1_S0_S1_S1_S0_S1_S1_S0_S1_S1_S0_S1_S1_S0_S1_S1_S0_S1_S1_S0_S1_S1_S0_S1_S1_S0_S1_S1_S0_S1_S1_S0_S1_S1_S0_S1_S1_S0_S1_S1_S0_S1_S1_S0_S1_S1_S0_S1_S1_S0_S1_S1_S0_S1_S1_S0_S1_S1_S0_S1_S1_S0_S1_S1_S0_S1_S1_S0_S1_S1_S0_S1_S1_S0_S1_S1_S0_S1_S1_S0_S1_S1_S0_S1_S1_PKS_S0_
libmagma_sparse.so:_Z30magma_zbajac_csr_o_ls_kernel32iiiiP18magmaDoubleComplexPiS1_S0_S1_S1_S0_S1_S1_S0_S1_S1_S0_S1_S1_S0_S1_S1_S0_S1_S1_S0_S1_S1_S0_S1_S1_S0_S1_S1_S0_S1_S1_S0_S1_S1_S0_S1_S1_S0_S1_S1_S0_S1_S1_S0_S1_S1_S0_S1_S1_S0_S1_S1_S0_S1_S1_S0_S1_S1_S0_S1_S1_S0_S1_S1_S0_S1_S1_S0_S1_S1_S0_S1_S1_S0_S1_S1_S0_S1_S1_S0_S1_S1_S0_S1_S1_S0_S1_S1_S0_S1_S1_S0_S1_S1_S0_S1_S1_S0_S1_S1_S0_S1_S1_S0_S1_S1_S0_S1_S1_S0_S1_S1_S0_S1_S1_S0_S1_S1_S0_S1_S1_S0_S1_S1_S0_S1_S1_S0_S1_S1_S0_S1_S1_S0_S1_S1_S0_S1_S1_S0_S1_S1_S0_S1_S1_S0_S1_S1_S0_S1_S1_S0_S1_S1_S0_S1_S1_S0_S1_S1_S0_S1_S1_S0_S1_S1_S0_S1_S1_S0_S1_S1_S0_S1_S1_S0_S1_S1_S0_S1_S1_S0_S1_S1_S0_S1_S1_S0_S1_S1_PKS_S0_
libmagma_sparse.so:_Z30magma_zbajac_csr_o_ls_kernel64iiiiP18magmaDoubleComplexPiS1_S0_S1_S1_S0_S1_S1_S0_S1_S1_S0_S1_S1_S0_S1_S1_S0_S1_S1_S0_S1_S1_S0_S1_S1_S0_S1_S1_S0_S1_S1_S0_S1_S1_S0_S1_S1_S0_S1_S1_S0_S1_S1_S0_S1_S1_S0_S1_S1_S0_S1_S1_S0_S1_S1_S0_S1_S1_S0_S1_S1_S0_S1_S1_S0_S1_S1_S0_S1_S1_S0_S1_S1_S0_S1_S1_S0_S1_S1_S0_S1_S1_S0_S1_S1_S0_S1_S1_S0_S1_S1_S0_S1_S1_S0_S1_S1_S0_S1_S1_S0_S1_S1_S0_S1_S1_S0_S1_S1_S0_S1_S1_S0_S1_S1_S0_S1_S1_S0_S1_S1_S0_S1_S1_S0_S1_S1_S0_S1_S1_S0_S1_S1_S0_S1_S1_S0_S1_S1_S0_S1_S1_S0_S1_S1_S0_S1_S1_S0_S1_S1_S0_S1_S1_S0_S1_S1_S0_S1_S1_S0_S1_S1_S0_S1_S1_S0_S1_S1_S0_S1_S1_S0_S1_S1_S0_S1_S1_S0_S1_S1_S0_S1_S1_S0_S1_S1_S0_S1_S1_S0_S1_S1_S0_S1_S1_S0_S1_S1_S0_S1_S1_S0_S1_S1_S0_S1_S1_S0_S1_S1_S0_S1_S1_S0_S1_S1_S0_S1_S1_S0_S1_S1_S0_S1_S1_S0_S1_S1_S0_S1_S1_S0_S1_S1_S0_S1_S1_S0_S1_S1_S0_S1_S1_S0_S1_S1_S0_S1_S1_S0_S1_S1_S0_S1_S1_S0_S1_S1_S0_S1_S1_S0_S1_S1_S0_S1_S1_S0_S1_S1_S0_S1_S1_S0_S1_S1_S0_S1_S1_S0_S1_S1_S0_S1_S1_S0_S1_S1_S0_S1_S1_S0_S1_S1_S0_S1_S1_S0_S1_S1_S0_S1_S1_S0_S1_S1_S0_S1_S1_S0_S1_S1_S0_S1_S1_S0_S1_S1_S0_S1_S1_S0_S1_S1_S0_S1_S1_S0_S1_S1_S0_S1_S1_S0_S1_S1_S0_S1_S1_S0_S1_S1_S0_S1_S1_S0_S1_S1_S0_S1_S1_S0_S1_S1_S0_S1_S1_S0_S1_S1_S0_S1_S1_S0_S1_S1_S0_S1_S1_S0_S1_S1_S0_S1_S1_S0_S1_S1_S0_S1_S1_PKS_S0_
libmagma_sparse.so:_Z30magma_zbicgmerge_xrbeta_kerneliP18magmaDoubleComplexS0_S0_S0_S0_S0_S0_S0_
libmagma_sparse.so:_Z30magma_zblockdot_kernel_shuffleiiPK18magmaDoubleComplexS1_PS_
libmagma_sparse.so:_Z30magma_zblockreduce_kernel_fastiiiP18magmaDoubleComplexS0_
libmagma_sparse.so:_Z30magma_zmergeblockkrylov_kerneliiP18magmaDoubleComplexS0_S0_
libmagma_sparse.so:_Z30sjacobispmvupdateselect_kerneliiiPiPfS_S_S0_S0_S0_S0_S0_
libmagma_sparse.so:_Z30zjacobispmvupdateselect_kerneliiiPiP18magmaDoubleComplexS_S_S1_S1_S1_S1_S1_
libmagma_sparse.so:_Z31__device_stub__cmgecsrmv_kerneliii17magmaFloatComplexPS_PiS1_S0_S_S0_
libmagma_sparse.so:_Z31__device_stub__cmgeellmv_kerneliiii17magmaFloatComplexPS_PiS0_S_S0_
libmagma_sparse.so:_Z31__device_stub__dmgecsrmv_kerneliiidPdPiS0_S_dS_
libmagma_sparse.so:_Z31__device_stub__dmgeellmv_kerneliiiidPdPiS_dS_
libmagma_sparse.so:_Z31__device_stub__smgecsrmv_kerneliiifPfPiS0_S_fS_
libmagma_sparse.so:_Z31__device_stub__smgeellmv_kerneliiiifPfPiS_fS_
libmagma_sparse.so:_Z31__device_stub__zmgecsrmv_kerneliii18magmaDoubleComplexPS_PiS1_S0_S_S0_
libmagma_sparse.so:_Z31__device_stub__zmgeellmv_kerneliiii18magmaDoubleComplexPS_PiS0_S_S0_
libmagma_sparse.so:_Z31magma_ccgmerge_spmvell_kernelb1iiP17magmaFloatComplexPiS1_S0_S0_S0_
libmagma_sparse.so:_Z31magma_ccgmerge_spmvsellc_kerneliiP17magmaFloatComplexPiS1_S0_S0_S0_
libmagma_sparse.so:_Z31magma_cparilut_residuals_kerneliPKiS0_PK17magmaFloatComplexS0_S0_S3_S0_S0_S3_iS0_S0_PS1_
libmagma_sparse.so:_Z31magma_dcgmerge_spmvell_kernelb1iiPdPiS0_S_S_S_
libmagma_sparse.so:_Z31magma_dcgmerge_spmvsellc_kerneliiPdPiS0_S_S_S_
libmagma_sparse.so:_Z31magma_dparilut_residuals_kerneliPKiS0_PKdS0_S0_S2_S0_S0_S2_iS0_S0_Pd
libmagma_sparse.so:_Z31magma_scgmerge_spmvell_kernelb1iiPfPiS0_S_S_S_
libmagma_sparse.so:_Z31magma_scgmerge_spmvsellc_kerneliiPfPiS0_S_S_S_
libmagma_sparse.so:_Z31magma_sparilut_residuals_kerneliPKiS0_PKfS0_S0_S2_S0_S0_S2_iS0_S0_Pf
libmagma_sparse.so:_Z31magma_zcgmerge_spmvell_kernelb1iiP18magmaDoubleComplexPiS1_S0_S0_S0_
libmagma_sparse.so:_Z31magma_zcgmerge_spmvsellc_kerneliiP18magmaDoubleComplexPiS1_S0_S0_S0_
libmagma_sparse.so:_Z31magma_zparilut_residuals_kerneliPKiS0_PK18magmaDoubleComplexS0_S0_S3_S0_S0_S3_iS0_S0_PS1_
libmagma_sparse.so:_Z32__device_stub__cgesellcmv_kerneliii17magmaFloatComplexPS_PiS1_S0_S_S0_
libmagma_sparse.so:_Z32__device_stub__cvjacobisetup_gpuiiP17magmaFloatComplexS0_S0_S0_
libmagma_sparse.so:_Z32__device_stub__dgesellcmv_kerneliiidPdPiS0_S_dS_
libmagma_sparse.so:_Z32__device_stub__dvjacobisetup_gpuiiPdS_S_S_
libmagma_sparse.so:_Z32__device_stub__magma_cdot_kerneliiP17magmaFloatComplexS0_S0_
libmagma_sparse.so:_Z32__device_stub__magma_cgpumemzeroP17magmaFloatComplexii
libmagma_sparse.so:_Z32__device_stub__magma_ddot_kerneliiPdS_S_
libmagma_sparse.so:_Z32__device_stub__magma_dgpumemzeroPdii
libmagma_sparse.so:_Z32__device_stub__magma_sdot_kerneliiPfS_S_
libmagma_sparse.so:_Z32__device_stub__magma_sgpumemzeroPfii
libmagma_sparse.so:_Z32__device_stub__magma_zdot_kerneliiP18magmaDoubleComplexS0_S0_
libmagma_sparse.so:_Z32__device_stub__magma_zgpumemzeroP18magmaDoubleComplexii
libmagma_sparse.so:_Z32__device_stub__sgesellcmv_kerneliiifPfPiS0_S_fS_
libmagma_sparse.so:_Z32__device_stub__svjacobisetup_gpuiiPfS_S_S_
libmagma_sparse.so:_Z32__device_stub__zdiagcheck_kerneliiP17magmaFloatComplexPiS1_S1_
libmagma_sparse.so:_Z32__device_stub__zdiagcheck_kerneliiP18magmaDoubleComplexPiS1_S1_
libmagma_sparse.so:_Z32__device_stub__zdiagcheck_kerneliiPdPiS0_S0_
libmagma_sparse.so:_Z32__device_stub__zdiagcheck_kerneliiPfPiS0_S0_
libmagma_sparse.so:_Z32__device_stub__zgesellcmv_kerneliii18magmaDoubleComplexPS_PiS1_S0_S_S0_
libmagma_sparse.so:_Z32__device_stub__zvjacobisetup_gpuiiP18magmaDoubleComplexS0_S0_S0_
libmagma_sparse.so:_Z33__device_stub__magma_ccg_d_kerneliP17magmaFloatComplexS0_S0_
libmagma_sparse.so:_Z33__device_stub__magma_dcg_d_kerneliPdS_S_
libmagma_sparse.so:_Z33__device_stub__magma_scg_d_kerneliPfS_S_
libmagma_sparse.so:_Z33__device_stub__magma_zcg_d_kerneliP18magmaDoubleComplexS0_S0_
libmagma_sparse.so:_Z33magma_ccgmerge_spmvellpack_kerneliiP17magmaFloatComplexPiS0_S0_S0_
libmagma_sparse.so:_Z33magma_dcgmerge_spmvellpack_kerneliiPdPiS_S_S_
libmagma_sparse.so:_Z33magma_scgmerge_spmvellpack_kerneliiPfPiS_S_S_
libmagma_sparse.so:_Z33magma_zcgmerge_spmvellpack_kerneliiP18magmaDoubleComplexPiS0_S0_S0_
libmagma_sparse.so:_Z34__device_stub__cgeellrtmv_kernel_8ii17magmaFloatComplexPS_PiS1_S0_S_S0_ii
libmagma_sparse.so:_Z34__device_stub__dgeellrtmv_kernel_8iidPdPiS0_S_dS_ii
libmagma_sparse.so:_Z34__device_stub__magma_ccg_rhokernelP17magmaFloatComplex
libmagma_sparse.so:_Z34__device_stub__magma_ccgs_1_kernelii17magmaFloatComplexPS_S0_S0_S0_
libmagma_sparse.so:_Z34__device_stub__magma_ccgs_2_kerneliiP17magmaFloatComplexS0_S0_
libmagma_sparse.so:_Z34__device_stub__magma_ccgs_3_kernelii17magmaFloatComplexPS_S0_S0_S0_
libmagma_sparse.so:_Z34__device_stub__magma_ccgs_4_kernelii17magmaFloatComplexPS_S0_S0_S0_
libmagma_sparse.so:_Z34__device_stub__magma_cqmr_1_kernelii17magmaFloatComplexS_PS_S0_S0_S0_
libmagma_sparse.so:_Z34__device_stub__magma_cqmr_2_kernelii17magmaFloatComplexS_PS_S0_S0_S0_
libmagma_sparse.so:_Z34__device_stub__magma_cqmr_3_kernelii17magmaFloatComplexPS_S0_S0_
libmagma_sparse.so:_Z34__device_stub__magma_cqmr_4_kernelii17magmaFloatComplexPS_S0_S0_S0_S0_S0_
libmagma_sparse.so:_Z34__device_stub__magma_cqmr_5_kernelii17magmaFloatComplexS_PS_S0_S0_S0_S0_S0_
libmagma_sparse.so:_Z34__device_stub__magma_cqmr_6_kernelii17magmaFloatComplexS_S_PS_S0_S0_S0_S0_
libmagma_sparse.so:_Z34__device_stub__magma_cqmr_7_kernelii17magmaFloatComplexPS_S0_S0_
libmagma_sparse.so:_Z34__device_stub__magma_cqmr_8_kernelii17magmaFloatComplexS_PS_S0_S0_S0_S0_S0_
libmagma_sparse.so:_Z34__device_stub__magma_dcg_rhokernelPd
libmagma_sparse.so:_Z34__device_stub__magma_dcgs_1_kerneliidPdS_S_S_
libmagma_sparse.so:_Z34__device_stub__magma_dcgs_2_kerneliiPdS_S_
libmagma_sparse.so:_Z34__device_stub__magma_dcgs_3_kerneliidPdS_S_S_
libmagma_sparse.so:_Z34__device_stub__magma_dcgs_4_kerneliidPdS_S_S_
libmagma_sparse.so:_Z34__device_stub__magma_dqmr_1_kerneliiddPdS_S_S_
libmagma_sparse.so:_Z34__device_stub__magma_dqmr_2_kerneliiddPdS_S_S_
libmagma_sparse.so:_Z34__device_stub__magma_dqmr_3_kerneliidPdS_S_
libmagma_sparse.so:_Z34__device_stub__magma_dqmr_4_kerneliidPdS_S_S_S_S_
libmagma_sparse.so:_Z34__device_stub__magma_dqmr_5_kerneliiddPdS_S_S_S_S_
libmagma_sparse.so:_Z34__device_stub__magma_dqmr_6_kerneliidddPdS_S_S_S_
libmagma_sparse.so:_Z34__device_stub__magma_dqmr_7_kerneliidPdS_S_
libmagma_sparse.so:_Z34__device_stub__magma_dqmr_8_kerneliiddPdS_S_S_S_S_
libmagma_sparse.so:_Z34__device_stub__magma_scg_rhokernelPf
libmagma_sparse.so:_Z34__device_stub__magma_scgs_1_kerneliifPfS_S_S_
libmagma_sparse.so:_Z34__device_stub__magma_scgs_2_kerneliiPfS_S_
libmagma_sparse.so:_Z34__device_stub__magma_scgs_3_kerneliifPfS_S_S_
libmagma_sparse.so:_Z34__device_stub__magma_scgs_4_kerneliifPfS_S_S_
libmagma_sparse.so:_Z34__device_stub__magma_sqmr_1_kerneliiffPfS_S_S_
libmagma_sparse.so:_Z34__device_stub__magma_sqmr_2_kerneliiffPfS_S_S_
libmagma_sparse.so:_Z34__device_stub__magma_sqmr_3_kerneliifPfS_S_
libmagma_sparse.so:_Z34__device_stub__magma_sqmr_4_kerneliifPfS_S_S_S_S_
libmagma_sparse.so:_Z34__device_stub__magma_sqmr_5_kerneliiffPfS_S_S_S_S_
libmagma_sparse.so:_Z34__device_stub__magma_sqmr_6_kerneliifffPfS_S_S_S_
libmagma_sparse.so:_Z34__device_stub__magma_sqmr_7_kerneliifPfS_S_
libmagma_sparse.so:_Z34__device_stub__magma_sqmr_8_kerneliiffPfS_S_S_S_S_
libmagma_sparse.so:_Z34__device_stub__magma_zcg_rhokernelP18magmaDoubleComplex
libmagma_sparse.so:_Z34__device_stub__magma_zcgs_1_kernelii18magmaDoubleComplexPS_S0_S0_S0_
libmagma_sparse.so:_Z34__device_stub__magma_zcgs_2_kerneliiP18magmaDoubleComplexS0_S0_
libmagma_sparse.so:_Z34__device_stub__magma_zcgs_3_kernelii18magmaDoubleComplexPS_S0_S0_S0_
libmagma_sparse.so:_Z34__device_stub__magma_zcgs_4_kernelii18magmaDoubleComplexPS_S0_S0_S0_
libmagma_sparse.so:_Z34__device_stub__magma_zqmr_1_kernelii18magmaDoubleComplexS_PS_S0_S0_S0_
libmagma_sparse.so:_Z34__device_stub__magma_zqmr_2_kernelii18magmaDoubleComplexS_PS_S0_S0_S0_
libmagma_sparse.so:_Z34__device_stub__magma_zqmr_3_kernelii18magmaDoubleComplexPS_S0_S0_
libmagma_sparse.so:_Z34__device_stub__magma_zqmr_4_kernelii18magmaDoubleComplexPS_S0_S0_S0_S0_S0_
libmagma_sparse.so:_Z34__device_stub__magma_zqmr_5_kernelii18magmaDoubleComplexS_PS_S0_S0_S0_S0_S0_
libmagma_sparse.so:_Z34__device_stub__magma_zqmr_6_kernelii18magmaDoubleComplexS_S_PS_S0_S0_S0_S0_
libmagma_sparse.so:_Z34__device_stub__magma_zqmr_7_kernelii18magmaDoubleComplexPS_S0_S0_
libmagma_sparse.so:_Z34__device_stub__magma_zqmr_8_kernelii18magmaDoubleComplexS_PS_S0_S0_S0_S0_S0_
libmagma_sparse.so:_Z34__device_stub__sgeellrtmv_kernel_8iifPfPiS0_S_fS_ii
libmagma_sparse.so:_Z34__device_stub__zcompute_nnz_kerneliPiS_S_P17magmaFloatComplexf
libmagma_sparse.so:_Z34__device_stub__zcompute_nnz_kerneliPiS_S_P18magmaDoubleComplexd
libmagma_sparse.so:_Z34__device_stub__zcompute_nnz_kerneliPiS_S_Pdd
libmagma_sparse.so:_Z34__device_stub__zcompute_nnz_kerneliPiS_S_Pff
libmagma_sparse.so:_Z34__device_stub__zgeellrtmv_kernel_8ii18magmaDoubleComplexPS_PiS1_S0_S_S0_ii
libmagma_sparse.so:_Z34magma_ccgmerge_spmvsellpt_kernel_8iiiP17magmaFloatComplexPiS1_S0_S0_
libmagma_sparse.so:_Z34magma_dcgmerge_spmvsellpt_kernel_8iiiPdPiS0_S_S_
libmagma_sparse.so:_Z34magma_scgmerge_spmvsellpt_kernel_8iiiPfPiS0_S_S_
libmagma_sparse.so:_Z34magma_zcgmerge_spmvsellpt_kernel_8iiiP18magmaDoubleComplexPiS1_S0_S0_
libmagma_sparse.so:_Z35__device_stub__cgeellrtmv_kernel_16ii17magmaFloatComplexPS_PiS1_S0_S_S0_ii
libmagma_sparse.so:_Z35__device_stub__cgeellrtmv_kernel_32ii17magmaFloatComplexPS_PiS1_S0_S_S0_ii
libmagma_sparse.so:_Z35__device_stub__cjacobiupdate_kerneliiP17magmaFloatComplexS0_S0_S0_
libmagma_sparse.so:_Z35__device_stub__dgeellrtmv_kernel_16iidPdPiS0_S_dS_ii
libmagma_sparse.so:_Z35__device_stub__dgeellrtmv_kernel_32iidPdPiS0_S_dS_ii
libmagma_sparse.so:_Z35__device_stub__djacobiupdate_kerneliiPdS_S_S_
libmagma_sparse.so:_Z35__device_stub__magma_ck_testLockingPji
libmagma_sparse.so:_Z35__device_stub__magma_dk_testLockingPji
libmagma_sparse.so:_Z35__device_stub__magma_sk_testLockingPji
libmagma_sparse.so:_Z35__device_stub__magma_zk_testLockingPji
libmagma_sparse.so:_Z35__device_stub__sgeellrtmv_kernel_16iifPfPiS0_S_fS_ii
libmagma_sparse.so:_Z35__device_stub__sgeellrtmv_kernel_32iifPfPiS0_S_fS_ii
libmagma_sparse.so:_Z35__device_stub__sjacobiupdate_kerneliiPfS_S_S_
libmagma_sparse.so:_Z35__device_stub__zgeellrtmv_kernel_16ii18magmaDoubleComplexPS_PiS1_S0_S_S0_ii
libmagma_sparse.so:_Z35__device_stub__zgeellrtmv_kernel_32ii18magmaDoubleComplexPS_PiS1_S0_S_S0_ii
libmagma_sparse.so:_Z35__device_stub__zjacobiupdate_kerneliiP18magmaDoubleComplexS0_S0_S0_
libmagma_sparse.so:_Z35magma_ccgmerge_spmvsellpt_kernel_16iiiP17magmaFloatComplexPiS1_S0_S0_
libmagma_sparse.so:_Z35magma_ccgmerge_spmvsellpt_kernel_32iiiP17magmaFloatComplexPiS1_S0_S0_
libmagma_sparse.so:_Z35magma_dcgmerge_spmvsellpt_kernel_16iiiPdPiS0_S_S_
libmagma_sparse.so:_Z35magma_dcgmerge_spmvsellpt_kernel_32iiiPdPiS0_S_S_
libmagma_sparse.so:_Z35magma_scgmerge_spmvsellpt_kernel_16iiiPfPiS0_S_S_
libmagma_sparse.so:_Z35magma_scgmerge_spmvsellpt_kernel_32iiiPfPiS0_S_S_
libmagma_sparse.so:_Z35magma_zcgmerge_spmvsellpt_kernel_16iiiP18magmaDoubleComplexPiS1_S0_S0_
libmagma_sparse.so:_Z35magma_zcgmerge_spmvsellpt_kernel_32iiiP18magmaDoubleComplexPiS1_S0_S0_
libmagma_sparse.so:_Z36__device_stub__ccompactactive_kerneliiP17magmaFloatComplexiPi
libmagma_sparse.so:_Z36__device_stub__cgecsrmv_kernel_shiftii17magmaFloatComplexS_PS_PiS1_S0_S_iiS1_S0_
libmagma_sparse.so:_Z36__device_stub__cgeellmv_kernel_shiftiii17magmaFloatComplexS_PS_PiS0_S_iiS1_S0_
libmagma_sparse.so:_Z36__device_stub__dcompactactive_kerneliiPdiPi
libmagma_sparse.so:_Z36__device_stub__dgecsrmv_kernel_shiftiiddPdPiS0_S_diiS0_S_
libmagma_sparse.so:_Z36__device_stub__dgeellmv_kernel_shiftiiiddPdPiS_diiS0_S_
libmagma_sparse.so:_Z36__device_stub__magma_cmatrixcup_filliPKiS0_PK17magmaFloatComplexS0_S0_S3_PiS4_S4_PS1_
libmagma_sparse.so:_Z36__device_stub__magma_cpipelinesscaleiP17magmaFloatComplexS0_
libmagma_sparse.so:_Z36__device_stub__magma_cpreselect_gpu0iPiP17magmaFloatComplexS1_
libmagma_sparse.so:_Z36__device_stub__magma_cpreselect_gpu1iPiP17magmaFloatComplexS1_
libmagma_sparse.so:_Z36__device_stub__magma_ctfqmr_1_kernelii17magmaFloatComplexS_PS_S0_S0_S0_S0_S0_S0_S0_
libmagma_sparse.so:_Z36__device_stub__magma_ctfqmr_2_kernelii17magmaFloatComplexPS_S0_S0_S0_
libmagma_sparse.so:_Z36__device_stub__magma_ctfqmr_3_kernelii17magmaFloatComplexPS_S0_S0_
libmagma_sparse.so:_Z36__device_stub__magma_ctfqmr_4_kernelii17magmaFloatComplexPS_S0_S0_
libmagma_sparse.so:_Z36__device_stub__magma_ctfqmr_5_kernelii17magmaFloatComplexS_PS_S0_S0_S0_S0_S0_
libmagma_sparse.so:_Z36__device_stub__magma_cvalinit_kerneliP17magmaFloatComplex
libmagma_sparse.so:_Z36__device_stub__magma_dmatrixcup_filliPKiS0_PKdS0_S0_S2_PiS3_S3_Pd
libmagma_sparse.so:_Z36__device_stub__magma_dpipelinedscaleiPdS_
libmagma_sparse.so:_Z36__device_stub__magma_dpreselect_gpu0iPiPdS0_
libmagma_sparse.so:_Z36__device_stub__magma_dpreselect_gpu1iPiPdS0_
libmagma_sparse.so:_Z36__device_stub__magma_dtfqmr_1_kerneliiddPdS_S_S_S_S_S_S_
libmagma_sparse.so:_Z36__device_stub__magma_dtfqmr_2_kerneliidPdS_S_S_
libmagma_sparse.so:_Z36__device_stub__magma_dtfqmr_3_kerneliidPdS_S_
libmagma_sparse.so:_Z36__device_stub__magma_dtfqmr_4_kerneliidPdS_S_
libmagma_sparse.so:_Z36__device_stub__magma_dtfqmr_5_kerneliiddPdS_S_S_S_S_
libmagma_sparse.so:_Z36__device_stub__magma_dvalinit_kerneliPd
libmagma_sparse.so:_Z36__device_stub__magma_smatrixcup_filliPKiS0_PKfS0_S0_S2_PiS3_S3_Pf
libmagma_sparse.so:_Z36__device_stub__magma_spipelinesscaleiPfS_
libmagma_sparse.so:_Z36__device_stub__magma_spreselect_gpu0iPiPfS0_
libmagma_sparse.so:_Z36__device_stub__magma_spreselect_gpu1iPiPfS0_
libmagma_sparse.so:_Z36__device_stub__magma_stfqmr_1_kerneliiffPfS_S_S_S_S_S_S_
libmagma_sparse.so:_Z36__device_stub__magma_stfqmr_2_kerneliifPfS_S_S_
libmagma_sparse.so:_Z36__device_stub__magma_stfqmr_3_kerneliifPfS_S_
libmagma_sparse.so:_Z36__device_stub__magma_stfqmr_4_kerneliifPfS_S_
libmagma_sparse.so:_Z36__device_stub__magma_stfqmr_5_kerneliiffPfS_S_S_S_S_
libmagma_sparse.so:_Z36__device_stub__magma_svalinit_kerneliPf
libmagma_sparse.so:_Z36__device_stub__magma_zmatrixcup_filliPKiS0_PK18magmaDoubleComplexS0_S0_S3_PiS4_S4_PS1_
libmagma_sparse.so:_Z36__device_stub__magma_zpipelinedscaleiP18magmaDoubleComplexS0_
libmagma_sparse.so:_Z36__device_stub__magma_zpreselect_gpu0iPiP18magmaDoubleComplexS1_
libmagma_sparse.so:_Z36__device_stub__magma_zpreselect_gpu1iPiP18magmaDoubleComplexS1_
libmagma_sparse.so:_Z36__device_stub__magma_ztfqmr_1_kernelii18magmaDoubleComplexS_PS_S0_S0_S0_S0_S0_S0_S0_
libmagma_sparse.so:_Z36__device_stub__magma_ztfqmr_2_kernelii18magmaDoubleComplexPS_S0_S0_S0_
libmagma_sparse.so:_Z36__device_stub__magma_ztfqmr_3_kernelii18magmaDoubleComplexPS_S0_S0_
libmagma_sparse.so:_Z36__device_stub__magma_ztfqmr_4_kernelii18magmaDoubleComplexPS_S0_S0_
libmagma_sparse.so:_Z36__device_stub__magma_ztfqmr_5_kernelii18magmaDoubleComplexS_PS_S0_S0_S0_S0_S0_
libmagma_sparse.so:_Z36__device_stub__magma_zvalinit_kerneliP18magmaDoubleComplex
libmagma_sparse.so:_Z36__device_stub__scompactactive_kerneliiPfiPi
libmagma_sparse.so:_Z36__device_stub__sgecsrmv_kernel_shiftiiffPfPiS0_S_fiiS0_S_
libmagma_sparse.so:_Z36__device_stub__sgeellmv_kernel_shiftiiiffPfPiS_fiiS0_S_
libmagma_sparse.so:_Z36__device_stub__zcompactactive_kerneliiP18magmaDoubleComplexiPi
libmagma_sparse.so:_Z36__device_stub__zgecsrmv_kernel_shiftii18magmaDoubleComplexS_PS_PiS1_S0_S_iiS1_S0_
libmagma_sparse.so:_Z36__device_stub__zgeellmv_kernel_shiftiii18magmaDoubleComplexS_PS_PiS0_S_iiS1_S0_
libmagma_sparse.so:_Z36magma_ccgmerge_spmvellpackrt_kernel2iP17magmaFloatComplexS0_S0_
libmagma_sparse.so:_Z36magma_dcgmerge_spmvellpackrt_kernel2iPdS_S_
libmagma_sparse.so:_Z36magma_scgmerge_spmvellpackrt_kernel2iPfS_S_
libmagma_sparse.so:_Z36magma_zcgmerge_spmvellpackrt_kernel2iP18magmaDoubleComplexS0_S0_
libmagma_sparse.so:_Z37__device_stub__cgecsrreimsplit_kerneliiPiP17magmaFloatComplexS1_S1_
libmagma_sparse.so:_Z37__device_stub__cgeelltmv_kernel_shiftiii17magmaFloatComplexS_PS_PiS0_S_iiS1_S0_
libmagma_sparse.so:_Z37__device_stub__cjacobidiagscal_kerneliiP17magmaFloatComplexS0_S0_
libmagma_sparse.so:_Z37__device_stub__dgecsrreimsplit_kerneliiPiPdS0_S0_
libmagma_sparse.so:_Z37__device_stub__dgeelltmv_kernel_shiftiiiddPdPiS_diiS0_S_
libmagma_sparse.so:_Z37__device_stub__djacobidiagscal_kerneliiPdS_S_
libmagma_sparse.so:_Z37__device_stub__magma_cblockdot_kerneliiiP17magmaFloatComplexS0_S0_
libmagma_sparse.so:_Z37__device_stub__magma_cmatrixcup_countiPKiS0_S0_S0_Pi
libmagma_sparse.so:_Z37__device_stub__magma_cmcsrgpu_kernel1iP17magmaFloatComplexPiS1_S0_S1_S1_
libmagma_sparse.so:_Z37__device_stub__magma_cmcsrgpu_kernel2iPiS_
libmagma_sparse.so:_Z37__device_stub__magma_cmcsrgpu_kernel3iP17magmaFloatComplexPiS1_S1_S0_S1_S1_
libmagma_sparse.so:_Z37__device_stub__magma_cmdotc1_kernel_1iiP17magmaFloatComplexS0_S0_
libmagma_sparse.so:_Z37__device_stub__magma_cmdotc1_kernel_2iiP17magmaFloatComplexS0_
libmagma_sparse.so:_Z37__device_stub__magma_cmdotc2_kernel_1iiP17magmaFloatComplexS0_S0_S0_S0_
libmagma_sparse.so:_Z37__device_stub__magma_cmdotc2_kernel_2iiP17magmaFloatComplexS0_
libmagma_sparse.so:_Z37__device_stub__magma_cmdotc3_kernel_1iiP17magmaFloatComplexS0_S0_S0_S0_S0_S0_
libmagma_sparse.so:_Z37__device_stub__magma_cmdotc3_kernel_2iiP17magmaFloatComplexS0_
libmagma_sparse.so:_Z37__device_stub__magma_cmdotc4_kernel_1iiP17magmaFloatComplexS0_S0_S0_S0_S0_S0_S0_S0_
libmagma_sparse.so:_Z37__device_stub__magma_cmdotc4_kernel_2iiP17magmaFloatComplexS0_
libmagma_sparse.so:_Z37__device_stub__magma_dblockdot_kerneliiiPdS_S_
libmagma_sparse.so:_Z37__device_stub__magma_dmatrixcup_countiPKiS0_S0_S0_Pi
libmagma_sparse.so:_Z37__device_stub__magma_dmcsrgpu_kernel1iPdPiS0_S_S0_S0_
libmagma_sparse.so:_Z37__device_stub__magma_dmcsrgpu_kernel2iPiS_
libmagma_sparse.so:_Z37__device_stub__magma_dmcsrgpu_kernel3iPdPiS0_S0_S_S0_S0_
libmagma_sparse.so:_Z37__device_stub__magma_dmdotc1_kernel_1iiPdS_S_
libmagma_sparse.so:_Z37__device_stub__magma_dmdotc1_kernel_2iiPdS_
libmagma_sparse.so:_Z37__device_stub__magma_dmdotc2_kernel_1iiPdS_S_S_S_
libmagma_sparse.so:_Z37__device_stub__magma_dmdotc2_kernel_2iiPdS_
libmagma_sparse.so:_Z37__device_stub__magma_dmdotc3_kernel_1iiPdS_S_S_S_S_S_
libmagma_sparse.so:_Z37__device_stub__magma_dmdotc3_kernel_2iiPdS_
libmagma_sparse.so:_Z37__device_stub__magma_dmdotc4_kernel_1iiPdS_S_S_S_S_S_S_S_
libmagma_sparse.so:_Z37__device_stub__magma_dmdotc4_kernel_2iiPdS_
libmagma_sparse.so:_Z37__device_stub__magma_sblockdot_kerneliiiPfS_S_
libmagma_sparse.so:_Z37__device_stub__magma_smatrixcup_countiPKiS0_S0_S0_Pi
libmagma_sparse.so:_Z37__device_stub__magma_smcsrgpu_kernel1iPfPiS0_S_S0_S0_
libmagma_sparse.so:_Z37__device_stub__magma_smcsrgpu_kernel2iPiS_
libmagma_sparse.so:_Z37__device_stub__magma_smcsrgpu_kernel3iPfPiS0_S0_S_S0_S0_
libmagma_sparse.so:_Z37__device_stub__magma_smdotc1_kernel_1iiPfS_S_
libmagma_sparse.so:_Z37__device_stub__magma_smdotc1_kernel_2iiPfS_
libmagma_sparse.so:_Z37__device_stub__magma_smdotc2_kernel_1iiPfS_S_S_S_
libmagma_sparse.so:_Z37__device_stub__magma_smdotc2_kernel_2iiPfS_
libmagma_sparse.so:_Z37__device_stub__magma_smdotc3_kernel_1iiPfS_S_S_S_S_S_
libmagma_sparse.so:_Z37__device_stub__magma_smdotc3_kernel_2iiPfS_
libmagma_sparse.so:_Z37__device_stub__magma_smdotc4_kernel_1iiPfS_S_S_S_S_S_S_S_
libmagma_sparse.so:_Z37__device_stub__magma_smdotc4_kernel_2iiPfS_
libmagma_sparse.so:_Z37__device_stub__magma_zblockdot_kerneliiiP18magmaDoubleComplexS0_S0_
libmagma_sparse.so:_Z37__device_stub__magma_zmatrixcup_countiPKiS0_S0_S0_Pi
libmagma_sparse.so:_Z37__device_stub__magma_zmcsrgpu_kernel1iP18magmaDoubleComplexPiS1_S0_S1_S1_
libmagma_sparse.so:_Z37__device_stub__magma_zmcsrgpu_kernel2iPiS_
libmagma_sparse.so:_Z37__device_stub__magma_zmcsrgpu_kernel3iP18magmaDoubleComplexPiS1_S1_S0_S1_S1_
libmagma_sparse.so:_Z37__device_stub__magma_zmdotc1_kernel_1iiP18magmaDoubleComplexS0_S0_
libmagma_sparse.so:_Z37__device_stub__magma_zmdotc1_kernel_2iiP18magmaDoubleComplexS0_
libmagma_sparse.so:_Z37__device_stub__magma_zmdotc2_kernel_1iiP18magmaDoubleComplexS0_S0_S0_S0_
libmagma_sparse.so:_Z37__device_stub__magma_zmdotc2_kernel_2iiP18magmaDoubleComplexS0_
libmagma_sparse.so:_Z37__device_stub__magma_zmdotc3_kernel_1iiP18magmaDoubleComplexS0_S0_S0_S0_S0_S0_
libmagma_sparse.so:_Z37__device_stub__magma_zmdotc3_kernel_2iiP18magmaDoubleComplexS0_
libmagma_sparse.so:_Z37__device_stub__magma_zmdotc4_kernel_1iiP18magmaDoubleComplexS0_S0_S0_S0_S0_S0_S0_S0_
libmagma_sparse.so:_Z37__device_stub__magma_zmdotc4_kernel_2iiP18magmaDoubleComplexS0_
libmagma_sparse.so:_Z37__device_stub__sgecsrreimsplit_kerneliiPiPfS0_S0_
libmagma_sparse.so:_Z37__device_stub__sgeelltmv_kernel_shiftiiiffPfPiS_fiiS0_S_
libmagma_sparse.so:_Z37__device_stub__sjacobidiagscal_kerneliiPfS_S_
libmagma_sparse.so:_Z37__device_stub__zcompute_newval_kerneliPiS_S_S_S_P17magmaFloatComplexS1_
libmagma_sparse.so:_Z37__device_stub__zcompute_newval_kerneliPiS_S_S_S_P18magmaDoubleComplexS1_
libmagma_sparse.so:_Z37__device_stub__zcompute_newval_kerneliPiS_S_S_S_PdS0_
libmagma_sparse.so:_Z37__device_stub__zcompute_newval_kerneliPiS_S_S_S_PfS0_
libmagma_sparse.so:_Z37__device_stub__zgecsrreimsplit_kerneliiPiP18magmaDoubleComplexS1_S1_
libmagma_sparse.so:_Z37__device_stub__zgeelltmv_kernel_shiftiii18magmaDoubleComplexS_PS_PiS0_S_iiS1_S0_
libmagma_sparse.so:_Z37__device_stub__zjacobidiagscal_kerneliiP18magmaDoubleComplexS0_S0_
libmagma_sparse.so:_Z37magma_ccgmerge_spmvellpackrt_kernel_8iP17magmaFloatComplexPiS1_S0_S0_S0_ii
libmagma_sparse.so:_Z37magma_dcgmerge_spmvellpackrt_kernel_8iPdPiS0_S_S_S_ii
libmagma_sparse.so:_Z37magma_scgmerge_spmvellpackrt_kernel_8iPfPiS0_S_S_S_ii
libmagma_sparse.so:_Z37magma_zcgmerge_spmvellpackrt_kernel_8iP18magmaDoubleComplexPiS1_S0_S0_S0_ii
libmagma_sparse.so:_Z38__device_stub__magma_cbajac_csr_kerneliP17magmaFloatComplexPiS1_S0_S1_S1_S0_S0_
libmagma_sparse.so:_Z38__device_stub__magma_cindexinit_kerneliPi
libmagma_sparse.so:_Z38__device_stub__magma_cparic_csr_kerneliiPiS_PK17magmaFloatComplexS_S_PS0_
libmagma_sparse.so:_Z38__device_stub__magma_cparilut_L_kerneliPKiS0_PK17magmaFloatComplexiS0_S0_S0_PS1_iS0_S0_S0_S4_
libmagma_sparse.so:_Z38__device_stub__magma_cparilut_U_kerneliPKiS0_PK17magmaFloatComplexiS0_S0_S0_PS1_iS0_S0_S0_S4_
libmagma_sparse.so:_Z38__device_stub__magma_dbajac_csr_kerneliPdPiS0_S_S0_S0_S_S_
libmagma_sparse.so:_Z38__device_stub__magma_dindexinit_kerneliPi
libmagma_sparse.so:_Z38__device_stub__magma_dparic_csr_kerneliiPiS_PKdS_S_Pd
libmagma_sparse.so:_Z38__device_stub__magma_dparilut_L_kerneliPKiS0_PKdiS0_S0_S0_PdiS0_S0_S0_S3_
libmagma_sparse.so:_Z38__device_stub__magma_dparilut_U_kerneliPKiS0_PKdiS0_S0_S0_PdiS0_S0_S0_S3_
libmagma_sparse.so:_Z38__device_stub__magma_sbajac_csr_kerneliPfPiS0_S_S0_S0_S_S_
libmagma_sparse.so:_Z38__device_stub__magma_sindexinit_kerneliPi
libmagma_sparse.so:_Z38__device_stub__magma_sparic_csr_kerneliiPiS_PKfS_S_Pf
libmagma_sparse.so:_Z38__device_stub__magma_sparilut_L_kerneliPKiS0_PKfiS0_S0_S0_PfiS0_S0_S0_S3_
libmagma_sparse.so:_Z38__device_stub__magma_sparilut_U_kerneliPKiS0_PKfiS0_S0_S0_PfiS0_S0_S0_S3_
libmagma_sparse.so:_Z38__device_stub__magma_zbajac_csr_kerneliP18magmaDoubleComplexPiS1_S0_S1_S1_S0_S0_
libmagma_sparse.so:_Z38__device_stub__magma_zindexinit_kerneliPi
libmagma_sparse.so:_Z38__device_stub__magma_zparic_csr_kerneliiPiS_PK18magmaDoubleComplexS_S_PS0_
libmagma_sparse.so:_Z38__device_stub__magma_zparilut_L_kerneliPKiS0_PK18magmaDoubleComplexiS0_S0_S0_PS1_iS0_S0_S0_S4_
libmagma_sparse.so:_Z38__device_stub__magma_zparilut_U_kerneliPKiS0_PK18magmaDoubleComplexiS0_S0_S0_PS1_iS0_S0_S0_S4_
libmagma_sparse.so:_Z38magma_cblockdot_kernel_shuffle_1dblockiiPK17magmaFloatComplexS1_PS_
libmagma_sparse.so:_Z38magma_ccgmerge_spmvellpackrt_kernel_16iP17magmaFloatComplexPiS1_S0_S0_S0_ii
libmagma_sparse.so:_Z38magma_ccgmerge_spmvellpackrt_kernel_32iP17magmaFloatComplexPiS1_S0_S0_S0_ii
libmagma_sparse.so:_Z38magma_dblockdot_kernel_shuffle_1dblockiiPKdS0_Pd
libmagma_sparse.so:_Z38magma_dcgmerge_spmvellpackrt_kernel_16iPdPiS0_S_S_S_ii
libmagma_sparse.so:_Z38magma_dcgmerge_spmvellpackrt_kernel_32iPdPiS0_S_S_S_ii
libmagma_sparse.so:_Z38magma_sblockdot_kernel_shuffle_1dblockiiPKfS0_Pf
libmagma_sparse.so:_Z38magma_scgmerge_spmvellpackrt_kernel_16iPfPiS0_S_S_S_ii
libmagma_sparse.so:_Z38magma_scgmerge_spmvellpackrt_kernel_32iPfPiS0_S_S_S_ii
libmagma_sparse.so:_Z38magma_zblockdot_kernel_shuffle_1dblockiiPK18magmaDoubleComplexS1_PS_
libmagma_sparse.so:_Z38magma_zcgmerge_spmvellpackrt_kernel_16iP18magmaDoubleComplexPiS1_S0_S0_S0_ii
libmagma_sparse.so:_Z38magma_zcgmerge_spmvellpackrt_kernel_32iP18magmaDoubleComplexPiS1_S0_S0_S0_ii
libmagma_sparse.so:_Z39__device_stub__cgedensereimsplit_kerneliiPiP17magmaFloatComplexS1_S1_
libmagma_sparse.so:_Z39__device_stub__cjacobispmvupdate_kerneliiP17magmaFloatComplexPiS1_S0_S0_S0_S0_
libmagma_sparse.so:_Z39__device_stub__dgedensereimsplit_kerneliiPiPdS0_S0_
libmagma_sparse.so:_Z39__device_stub__djacobispmvupdate_kerneliiPdPiS0_S_S_S_S_
libmagma_sparse.so:_Z39__device_stub__magma_cbicgmerge1_kerneliP17magmaFloatComplexS0_S0_S0_
libmagma_sparse.so:_Z39__device_stub__magma_cbicgmerge2_kerneliP17magmaFloatComplexS0_S0_S0_
libmagma_sparse.so:_Z39__device_stub__magma_cbicgmerge3_kerneliP17magmaFloatComplexS0_S0_S0_S0_S0_
libmagma_sparse.so:_Z39__device_stub__magma_cbicgstab_1_kernelii17magmaFloatComplexS_PS_S0_S0_
libmagma_sparse.so:_Z39__device_stub__magma_cbicgstab_2_kernelii17magmaFloatComplexPS_S0_S0_
libmagma_sparse.so:_Z39__device_stub__magma_cbicgstab_3_kernelii17magmaFloatComplexS_PS_S0_S0_S0_S0_
libmagma_sparse.so:_Z39__device_stub__magma_cbicgstab_4_kernelii17magmaFloatComplexS_PS_S0_S0_S0_S0_S0_
libmagma_sparse.so:_Z39__device_stub__magma_clobpcg_res_kerneliiPfP17magmaFloatComplexS1_S_
libmagma_sparse.so:_Z39__device_stub__magma_cmconjugate_kerneliPiP17magmaFloatComplex
libmagma_sparse.so:_Z39__device_stub__magma_cmdotc2_gpumemzeroP17magmaFloatComplexi
libmagma_sparse.so:_Z39__device_stub__magma_cmdotc3_gpumemzeroP17magmaFloatComplexi
libmagma_sparse.so:_Z39__device_stub__magma_cmdotc4_gpumemzeroP17magmaFloatComplexi
libmagma_sparse.so:_Z39__device_stub__magma_cparilu_csr_kerneliiPKiS0_PK17magmaFloatComplexS0_S0_PS1_S0_S0_S4_
libmagma_sparse.so:_Z39__device_stub__magma_dbicgmerge1_kerneliPdS_S_S_
libmagma_sparse.so:_Z39__device_stub__magma_dbicgmerge2_kerneliPdS_S_S_
libmagma_sparse.so:_Z39__device_stub__magma_dbicgmerge3_kerneliPdS_S_S_S_S_
libmagma_sparse.so:_Z39__device_stub__magma_dbicgstab_1_kerneliiddPdS_S_
libmagma_sparse.so:_Z39__device_stub__magma_dbicgstab_2_kerneliidPdS_S_
libmagma_sparse.so:_Z39__device_stub__magma_dbicgstab_3_kerneliiddPdS_S_S_S_
libmagma_sparse.so:_Z39__device_stub__magma_dbicgstab_4_kerneliiddPdS_S_S_S_S_
libmagma_sparse.so:_Z39__device_stub__magma_dlobpcg_res_kerneliiPdS_S_S_
libmagma_sparse.so:_Z39__device_stub__magma_dmconjugate_kerneliPiPd
libmagma_sparse.so:_Z39__device_stub__magma_dmdotc2_gpumemzeroPdi
libmagma_sparse.so:_Z39__device_stub__magma_dmdotc3_gpumemzeroPdi
libmagma_sparse.so:_Z39__device_stub__magma_dmdotc4_gpumemzeroPdi
libmagma_sparse.so:_Z39__device_stub__magma_dparilu_csr_kerneliiPKiS0_PKdS0_S0_PdS0_S0_S3_
libmagma_sparse.so:_Z39__device_stub__magma_sbicgmerge1_kerneliPfS_S_S_
libmagma_sparse.so:_Z39__device_stub__magma_sbicgmerge2_kerneliPfS_S_S_
libmagma_sparse.so:_Z39__device_stub__magma_sbicgmerge3_kerneliPfS_S_S_S_S_
libmagma_sparse.so:_Z39__device_stub__magma_sbicgstab_1_kerneliiffPfS_S_
libmagma_sparse.so:_Z39__device_stub__magma_sbicgstab_2_kerneliifPfS_S_
libmagma_sparse.so:_Z39__device_stub__magma_sbicgstab_3_kerneliiffPfS_S_S_S_
libmagma_sparse.so:_Z39__device_stub__magma_sbicgstab_4_kerneliiffPfS_S_S_S_S_
libmagma_sparse.so:_Z39__device_stub__magma_slobpcg_res_kerneliiPfS_S_S_
libmagma_sparse.so:_Z39__device_stub__magma_smconjugate_kerneliPiPf
libmagma_sparse.so:_Z39__device_stub__magma_smdotc2_gpumemzeroPfi
libmagma_sparse.so:_Z39__device_stub__magma_smdotc3_gpumemzeroPfi
libmagma_sparse.so:_Z39__device_stub__magma_smdotc4_gpumemzeroPfi
libmagma_sparse.so:_Z39__device_stub__magma_sparilu_csr_kerneliiPKiS0_PKfS0_S0_PfS0_S0_S3_
libmagma_sparse.so:_Z39__device_stub__magma_zbicgmerge1_kerneliP18magmaDoubleComplexS0_S0_S0_
libmagma_sparse.so:_Z39__device_stub__magma_zbicgmerge2_kerneliP18magmaDoubleComplexS0_S0_S0_
libmagma_sparse.so:_Z39__device_stub__magma_zbicgmerge3_kerneliP18magmaDoubleComplexS0_S0_S0_S0_S0_
libmagma_sparse.so:_Z39__device_stub__magma_zbicgstab_1_kernelii18magmaDoubleComplexS_PS_S0_S0_
libmagma_sparse.so:_Z39__device_stub__magma_zbicgstab_2_kernelii18magmaDoubleComplexPS_S0_S0_
libmagma_sparse.so:_Z39__device_stub__magma_zbicgstab_3_kernelii18magmaDoubleComplexS_PS_S0_S0_S0_S0_
libmagma_sparse.so:_Z39__device_stub__magma_zbicgstab_4_kernelii18magmaDoubleComplexS_PS_S0_S0_S0_S0_S0_
libmagma_sparse.so:_Z39__device_stub__magma_zlobpcg_res_kerneliiPdP18magmaDoubleComplexS1_S_
libmagma_sparse.so:_Z39__device_stub__magma_zmconjugate_kerneliPiP18magmaDoubleComplex
libmagma_sparse.so:_Z39__device_stub__magma_zmdotc2_gpumemzeroP18magmaDoubleComplexi
libmagma_sparse.so:_Z39__device_stub__magma_zmdotc3_gpumemzeroP18magmaDoubleComplexi
libmagma_sparse.so:_Z39__device_stub__magma_zmdotc4_gpumemzeroP18magmaDoubleComplexi
libmagma_sparse.so:_Z39__device_stub__magma_zparilu_csr_kerneliiPKiS0_PK18magmaDoubleComplexS0_S0_PS1_S0_S0_S4_
libmagma_sparse.so:_Z39__device_stub__sgedensereimsplit_kerneliiPiPfS0_S0_
libmagma_sparse.so:_Z39__device_stub__sjacobispmvupdate_kerneliiPfPiS0_S_S_S_S_
libmagma_sparse.so:_Z39__device_stub__sptrsm_syncfree_executorPiS_P17magmaFloatComplexS_iiiiS1_S1_
libmagma_sparse.so:_Z39__device_stub__sptrsm_syncfree_executorPiS_P18magmaDoubleComplexS_iiiiS1_S1_
libmagma_sparse.so:_Z39__device_stub__sptrsm_syncfree_executorPiS_PdS_iiiiS0_S0_
libmagma_sparse.so:_Z39__device_stub__sptrsm_syncfree_executorPiS_PfS_iiiiS0_S0_
libmagma_sparse.so:_Z39__device_stub__sptrsv_syncfree_analyserPiP17magmaFloatComplexiiS_
libmagma_sparse.so:_Z39__device_stub__sptrsv_syncfree_analyserPiP18magmaDoubleComplexiiS_
libmagma_sparse.so:_Z39__device_stub__sptrsv_syncfree_analyserPiPdiiS_
libmagma_sparse.so:_Z39__device_stub__sptrsv_syncfree_analyserPiPfiiS_
libmagma_sparse.so:_Z39__device_stub__zgedensereimsplit_kerneliiPiP18magmaDoubleComplexS1_S1_
libmagma_sparse.so:_Z39__device_stub__zjacobispmvupdate_kerneliiP18magmaDoubleComplexPiS1_S0_S0_S0_S0_
libmagma_sparse.so:_Z40__device_stub__magma_cblockreduce_kerneliiiP17magmaFloatComplexS0_
libmagma_sparse.so:_Z40__device_stub__magma_ccg_alphabetakernelP17magmaFloatComplex
libmagma_sparse.so:_Z40__device_stub__magma_cget_row_ptr_kerneliPiPKiS_
libmagma_sparse.so:_Z40__device_stub__magma_creduce_kernel_fastiiP17magmaFloatComplexS0_
libmagma_sparse.so:_Z40__device_stub__magma_dblockreduce_kerneliiiPdS_
libmagma_sparse.so:_Z40__device_stub__magma_dcg_alphabetakernelPd
libmagma_sparse.so:_Z40__device_stub__magma_dget_row_ptr_kerneliPiPKiS_
libmagma_sparse.so:_Z40__device_stub__magma_dmddot_one_kernel_1iPdS_S_
libmagma_sparse.so:_Z40__device_stub__magma_dreduce_kernel_fastiiPdS_
libmagma_sparse.so:_Z40__device_stub__magma_sblockreduce_kerneliiiPfS_
libmagma_sparse.so:_Z40__device_stub__magma_scg_alphabetakernelPf
libmagma_sparse.so:_Z40__device_stub__magma_sget_row_ptr_kerneliPiPKiS_
libmagma_sparse.so:_Z40__device_stub__magma_smsdot_one_kernel_1iPfS_S_
libmagma_sparse.so:_Z40__device_stub__magma_sreduce_kernel_fastiiPfS_
libmagma_sparse.so:_Z40__device_stub__magma_zblockreduce_kerneliiiP18magmaDoubleComplexS0_
libmagma_sparse.so:_Z40__device_stub__magma_zcg_alphabetakernelP18magmaDoubleComplex
libmagma_sparse.so:_Z40__device_stub__magma_zget_row_ptr_kerneliPiPKiS_
libmagma_sparse.so:_Z40__device_stub__magma_zreduce_kernel_fastiiP18magmaDoubleComplexS0_
libmagma_sparse.so:_Z41__device_stub__magma_cbajac_csr_ls_kerneliiP17magmaFloatComplexPiS1_S0_S1_S1_PKS_S0_
libmagma_sparse.so:_Z41__device_stub__magma_cbicgmerge4_kernel_1P17magmaFloatComplex
libmagma_sparse.so:_Z41__device_stub__magma_cbicgmerge4_kernel_2P17magmaFloatComplex
libmagma_sparse.so:_Z41__device_stub__magma_cbicgmerge4_kernel_3P17magmaFloatComplex
libmagma_sparse.so:_Z41__device_stub__magma_cbicgstab_betakernelP17magmaFloatComplex
libmagma_sparse.so:_Z41__device_stub__magma_clobpcg_maxpy_kerneliiP17magmaFloatComplexS0_
libmagma_sparse.so:_Z41__device_stub__magma_clobpcg_shift_kerneliiiP17magmaFloatComplex
libmagma_sparse.so:_Z41__device_stub__magma_cmcdotc_one_kernel_1iP17magmaFloatComplexS0_S0_
libmagma_sparse.so:_Z41__device_stub__magma_cpipelined_copyscaleiiP17magmaFloatComplexS0_S0_
libmagma_sparse.so:_Z41__device_stub__magma_creduce_kernel_spmv1iiP17magmaFloatComplexS0_
libmagma_sparse.so:_Z41__device_stub__magma_creduce_kernel_spmv2iiP17magmaFloatComplexS0_
libmagma_sparse.so:_Z41__device_stub__magma_dbajac_csr_ls_kerneliiPdPiS0_S_S0_S0_PKdS_
libmagma_sparse.so:_Z41__device_stub__magma_dbicgmerge4_kernel_1Pd
libmagma_sparse.so:_Z41__device_stub__magma_dbicgmerge4_kernel_2Pd
libmagma_sparse.so:_Z41__device_stub__magma_dbicgmerge4_kernel_3Pd
libmagma_sparse.so:_Z41__device_stub__magma_dbicgstab_betakernelPd
libmagma_sparse.so:_Z41__device_stub__magma_dlobpcg_maxpy_kerneliiPdS_
libmagma_sparse.so:_Z41__device_stub__magma_dlobpcg_shift_kerneliiiPd
libmagma_sparse.so:_Z41__device_stub__magma_dpipelined_copyscaleiiPdS_S_
libmagma_sparse.so:_Z41__device_stub__magma_dreduce_kernel_spmv1iiPdS_
libmagma_sparse.so:_Z41__device_stub__magma_dreduce_kernel_spmv2iiPdS_
libmagma_sparse.so:_Z41__device_stub__magma_sbajac_csr_ls_kerneliiPfPiS0_S_S0_S0_PKfS_
libmagma_sparse.so:_Z41__device_stub__magma_sbicgmerge4_kernel_1Pf
libmagma_sparse.so:_Z41__device_stub__magma_sbicgmerge4_kernel_2Pf
libmagma_sparse.so:_Z41__device_stub__magma_sbicgmerge4_kernel_3Pf
libmagma_sparse.so:_Z41__device_stub__magma_sbicgstab_betakernelPf
libmagma_sparse.so:_Z41__device_stub__magma_slobpcg_maxpy_kerneliiPfS_
libmagma_sparse.so:_Z41__device_stub__magma_slobpcg_shift_kerneliiiPf
libmagma_sparse.so:_Z41__device_stub__magma_spipelined_copyscaleiiPfS_S_
libmagma_sparse.so:_Z41__device_stub__magma_sreduce_kernel_spmv1iiPfS_
libmagma_sparse.so:_Z41__device_stub__magma_sreduce_kernel_spmv2iiPfS_
libmagma_sparse.so:_Z41__device_stub__magma_zbajac_csr_ls_kerneliiP18magmaDoubleComplexPiS1_S0_S1_S1_PKS_S0_
libmagma_sparse.so:_Z41__device_stub__magma_zbicgmerge4_kernel_1P18magmaDoubleComplex
libmagma_sparse.so:_Z41__device_stub__magma_zbicgmerge4_kernel_2P18magmaDoubleComplex
libmagma_sparse.so:_Z41__device_stub__magma_zbicgmerge4_kernel_3P18magmaDoubleComplex
libmagma_sparse.so:_Z41__device_stub__magma_zbicgstab_betakernelP18magmaDoubleComplex
libmagma_sparse.so:_Z41__device_stub__magma_zlobpcg_maxpy_kerneliiP18magmaDoubleComplexS0_
libmagma_sparse.so:_Z41__device_stub__magma_zlobpcg_shift_kerneliiiP18magmaDoubleComplex
libmagma_sparse.so:_Z41__device_stub__magma_zmzdotc_one_kernel_1iP18magmaDoubleComplexS0_S0_
libmagma_sparse.so:_Z41__device_stub__magma_zpipelined_copyscaleiiP18magmaDoubleComplexS0_S0_
libmagma_sparse.so:_Z41__device_stub__magma_zreduce_kernel_spmv1iiP18magmaDoubleComplexS0_
libmagma_sparse.so:_Z41__device_stub__magma_zreduce_kernel_spmv2iiP18magmaDoubleComplexS0_
libmagma_sparse.so:_Z42__device_stub__cftjacobiupdatecheck_kernelifP17magmaFloatComplexS0_S0_S0_PiS1_
libmagma_sparse.so:_Z42__device_stub__cjacobispmvupdate_bw_kerneliiP17magmaFloatComplexPiS1_S0_S0_S0_S0_
libmagma_sparse.so:_Z42__device_stub__cparilut_candidates_count_1iPKiS0_S0_S0_S0_S0_S0_S0_PiS1_
libmagma_sparse.so:_Z42__device_stub__cparilut_candidates_count_2iPKiS0_S0_S0_S0_S0_S0_S0_PiS1_
libmagma_sparse.so:_Z42__device_stub__dftjacobiupdatecheck_kernelidPdS_S_S_PiS0_
libmagma_sparse.so:_Z42__device_stub__djacobispmvupdate_bw_kerneliiPdPiS0_S_S_S_S_
libmagma_sparse.so:_Z42__device_stub__dparilut_candidates_count_1iPKiS0_S0_S0_S0_S0_S0_S0_PiS1_
libmagma_sparse.so:_Z42__device_stub__dparilut_candidates_count_2iPKiS0_S0_S0_S0_S0_S0_S0_PiS1_
libmagma_sparse.so:_Z42__device_stub__dsgecsrmv_mixed_prec_kerneliidPdPfPiS1_S_dS_
libmagma_sparse.so:_Z42__device_stub__magma_cbicgstab_alphakernelP17magmaFloatComplex
libmagma_sparse.so:_Z42__device_stub__magma_cbicgstab_omegakernelP17magmaFloatComplex
libmagma_sparse.so:_Z42__device_stub__magma_cpipelined_correctioniiP17magmaFloatComplexS0_S0_
libmagma_sparse.so:_Z42__device_stub__magma_cselect_insert_kerneliiPiS_P17magmaFloatComplexS_S_S1_S_S_
libmagma_sparse.so:_Z42__device_stub__magma_cselect_rowptr_kerneliPiS_
libmagma_sparse.so:_Z42__device_stub__magma_dbicgstab_alphakernelPd
libmagma_sparse.so:_Z42__device_stub__magma_dbicgstab_omegakernelPd
libmagma_sparse.so:_Z42__device_stub__magma_dpipelined_correctioniiPdS_S_
libmagma_sparse.so:_Z42__device_stub__magma_dselect_insert_kerneliiPiS_PdS_S_S0_S_S_
libmagma_sparse.so:_Z42__device_stub__magma_dselect_rowptr_kerneliPiS_
libmagma_sparse.so:_Z42__device_stub__magma_sbicgstab_alphakernelPf
libmagma_sparse.so:_Z42__device_stub__magma_sbicgstab_omegakernelPf
libmagma_sparse.so:_Z42__device_stub__magma_spipelined_correctioniiPfS_S_
libmagma_sparse.so:_Z42__device_stub__magma_sselect_insert_kerneliiPiS_PfS_S_S0_S_S_
libmagma_sparse.so:_Z42__device_stub__magma_sselect_rowptr_kerneliPiS_
libmagma_sparse.so:_Z42__device_stub__magma_zbicgstab_alphakernelP18magmaDoubleComplex
libmagma_sparse.so:_Z42__device_stub__magma_zbicgstab_omegakernelP18magmaDoubleComplex
libmagma_sparse.so:_Z42__device_stub__magma_zpipelined_correctioniiP18magmaDoubleComplexS0_S0_
libmagma_sparse.so:_Z42__device_stub__magma_zselect_insert_kerneliiPiS_P18magmaDoubleComplexS_S_S1_S_S_
libmagma_sparse.so:_Z42__device_stub__magma_zselect_rowptr_kerneliPiS_
libmagma_sparse.so:_Z42__device_stub__sftjacobiupdatecheck_kernelifPfS_S_S_PiS0_
libmagma_sparse.so:_Z42__device_stub__sjacobispmvupdate_bw_kerneliiPfPiS0_S_S_S_S_
libmagma_sparse.so:_Z42__device_stub__sparilut_candidates_count_1iPKiS0_S0_S0_S0_S0_S0_S0_PiS1_
libmagma_sparse.so:_Z42__device_stub__sparilut_candidates_count_2iPKiS0_S0_S0_S0_S0_S0_S0_PiS1_
libmagma_sparse.so:_Z42__device_stub__zcgecsrmv_mixed_prec_kernelii18magmaDoubleComplexPS_P17magmaFloatComplexPiS3_S0_S_S0_
libmagma_sparse.so:_Z42__device_stub__zftjacobiupdatecheck_kernelidP18magmaDoubleComplexS0_S0_S0_PiS1_
libmagma_sparse.so:_Z42__device_stub__zjacobispmvupdate_bw_kerneliiP18magmaDoubleComplexPiS1_S0_S0_S0_S0_
libmagma_sparse.so:_Z42__device_stub__zparilut_candidates_count_1iPKiS0_S0_S0_S0_S0_S0_S0_PiS1_
libmagma_sparse.so:_Z42__device_stub__zparilut_candidates_count_2iPKiS0_S0_S0_S0_S0_S0_S0_PiS1_
libmagma_sparse.so:_Z43__device_stub__cftjacobicontractions_kerneliP17magmaFloatComplexS0_S0_S0_S0_
libmagma_sparse.so:_Z43__device_stub__cparilut_candidates_insert_1iPKiS0_S0_S0_S0_S0_S0_S0_PiS1_S1_P17magmaFloatComplexS1_S1_S1_S1_S3_S1_
libmagma_sparse.so:_Z43__device_stub__cparilut_candidates_insert_2iPKiS0_S0_S0_S0_S0_S0_S0_PiS1_S1_P17magmaFloatComplexS1_S1_S1_S1_S3_S1_
libmagma_sparse.so:_Z43__device_stub__dftjacobicontractions_kerneliPdS_S_S_S_
libmagma_sparse.so:_Z43__device_stub__dparilut_candidates_insert_1iPKiS0_S0_S0_S0_S0_S0_S0_PiS1_S1_PdS1_S1_S1_S1_S2_S1_
libmagma_sparse.so:_Z43__device_stub__dparilut_candidates_insert_2iPKiS0_S0_S0_S0_S0_S0_S0_PiS1_S1_PdS1_S1_S1_S1_S2_S1_
libmagma_sparse.so:_Z43__device_stub__magma_ccgmerge_xrbeta_kerneliP17magmaFloatComplexS0_S0_S0_S0_S0_
libmagma_sparse.so:_Z43__device_stub__magma_ccgreduce_kernel_spmv1iiP17magmaFloatComplexS0_
libmagma_sparse.so:_Z43__device_stub__magma_ccgreduce_kernel_spmv2iiP17magmaFloatComplexS0_
libmagma_sparse.so:_Z43__device_stub__magma_cjaccardweights_kerneliiiPiS_P17magmaFloatComplexS_S_S1_
libmagma_sparse.so:_Z43__device_stub__magma_cselect_pattern_kerneliiPiS_S_
libmagma_sparse.so:_Z43__device_stub__magma_dcgmerge_xrbeta_kerneliPdS_S_S_S_S_
libmagma_sparse.so:_Z43__device_stub__magma_dcgreduce_kernel_spmv1iiPdS_
libmagma_sparse.so:_Z43__device_stub__magma_dcgreduce_kernel_spmv2iiPdS_
libmagma_sparse.so:_Z43__device_stub__magma_djaccardweights_kerneliiiPiS_PdS_S_S0_
libmagma_sparse.so:_Z43__device_stub__magma_dpipelineddnrm2_kerneliPdiS_
libmagma_sparse.so:_Z43__device_stub__magma_dselect_pattern_kerneliiPiS_S_
libmagma_sparse.so:_Z43__device_stub__magma_scgmerge_xrbeta_kerneliPfS_S_S_S_S_
libmagma_sparse.so:_Z43__device_stub__magma_scgreduce_kernel_spmv1iiPfS_
libmagma_sparse.so:_Z43__device_stub__magma_scgreduce_kernel_spmv2iiPfS_
libmagma_sparse.so:_Z43__device_stub__magma_sjaccardweights_kerneliiiPiS_PfS_S_S0_
libmagma_sparse.so:_Z43__device_stub__magma_spipelinedsnrm2_kerneliPfiS_
libmagma_sparse.so:_Z43__device_stub__magma_sselect_pattern_kerneliiPiS_S_
libmagma_sparse.so:_Z43__device_stub__magma_zcgmerge_xrbeta_kerneliP18magmaDoubleComplexS0_S0_S0_S0_S0_
libmagma_sparse.so:_Z43__device_stub__magma_zcgreduce_kernel_spmv1iiP18magmaDoubleComplexS0_
libmagma_sparse.so:_Z43__device_stub__magma_zcgreduce_kernel_spmv2iiP18magmaDoubleComplexS0_
libmagma_sparse.so:_Z43__device_stub__magma_zjaccardweights_kerneliiiPiS_P18magmaDoubleComplexS_S_S1_
libmagma_sparse.so:_Z43__device_stub__magma_zselect_pattern_kerneliiPiS_S_
libmagma_sparse.so:_Z43__device_stub__sftjacobicontractions_kerneliPfS_S_S_S_
libmagma_sparse.so:_Z43__device_stub__sparilut_candidates_insert_1iPKiS0_S0_S0_S0_S0_S0_S0_PiS1_S1_PfS1_S1_S1_S1_S2_S1_
libmagma_sparse.so:_Z43__device_stub__sparilut_candidates_insert_2iPKiS0_S0_S0_S0_S0_S0_S0_PiS1_S1_PfS1_S1_S1_S1_S2_S1_
libmagma_sparse.so:_Z43__device_stub__zftjacobicontractions_kerneliP18magmaDoubleComplexS0_S0_S0_S0_
libmagma_sparse.so:_Z43__device_stub__zparilut_candidates_insert_1iPKiS0_S0_S0_S0_S0_S0_S0_PiS1_S1_P18magmaDoubleComplexS1_S1_S1_S1_S3_S1_
libmagma_sparse.so:_Z43__device_stub__zparilut_candidates_insert_2iPKiS0_S0_S0_S0_S0_S0_S0_PiS1_S1_P18magmaDoubleComplexS1_S1_S1_S1_S3_S1_
libmagma_sparse.so:_Z44__device_stub__magma_cbajac_csr_o_ls_kernel1iiiiP17magmaFloatComplexPiS1_S0_S1_S1_PKS_S0_
libmagma_sparse.so:_Z44__device_stub__magma_cbajac_csr_o_ls_kernel2iiiiP17magmaFloatComplexPiS1_S0_S1_S1_S0_S1_S1_S0_S1_S1_PKS_S0_
libmagma_sparse.so:_Z44__device_stub__magma_cbajac_csr_o_ls_kernel4iiiiP17magmaFloatComplexPiS1_S0_S1_S1_S0_S1_S1_S0_S1_S1_S0_S1_S1_S0_S1_S1_S0_S1_S1_S0_S1_S1_PKS_S0_
libmagma_sparse.so:_Z44__device_stub__magma_cbajac_csr_o_ls_kernel8iiiiP17magmaFloatComplexPiS1_S0_S1_S1_S0_S1_S1_S0_S1_S1_S0_S1_S1_S0_S1_S1_S0_S1_S1_S0_S1_S1_S0_S1_S1_S0_S1_S1_S0_S1_S1_S0_S1_S1_S0_S1_S1_S0_S1_S1_S0_S1_S1_S0_S1_S1_PKS_S0_
libmagma_sparse.so:_Z44__device_stub__magma_cbicgmerge_spmv1_kerneliP17magmaFloatComplexPiS1_S0_S0_S0_S0_
libmagma_sparse.so:_Z44__device_stub__magma_cbicgmerge_spmv2_kerneliP17magmaFloatComplexPiS1_S0_S0_S0_
libmagma_sparse.so:_Z44__device_stub__magma_ccgmerge_spmvcsr_kerneliP17magmaFloatComplexPiS1_S0_S0_S0_
libmagma_sparse.so:_Z44__device_stub__magma_ccgmerge_spmvell_kerneliiP17magmaFloatComplexPiS0_S0_S0_
libmagma_sparse.so:_Z44__device_stub__magma_cidr_smoothing_1_kerneliiP17magmaFloatComplexS0_S0_
libmagma_sparse.so:_Z44__device_stub__magma_cidr_smoothing_2_kernelii17magmaFloatComplexPS_S0_
libmagma_sparse.so:_Z44__device_stub__magma_cjcgmerge_xrbeta_kerneliP17magmaFloatComplexS0_S0_S0_S0_S0_S0_S0_
libmagma_sparse.so:_Z44__device_stub__magma_cpcgmerge_xrbeta_kerneliP17magmaFloatComplexS0_S0_S0_S0_
libmagma_sparse.so:_Z44__device_stub__magma_cpipelinedscnrm2_kerneliP17magmaFloatComplexiS0_
libmagma_sparse.so:_Z44__device_stub__magma_dbajac_csr_o_ls_kernel1iiiiPdPiS0_S_S0_S0_PKdS_
libmagma_sparse.so:_Z44__device_stub__magma_dbajac_csr_o_ls_kernel2iiiiPdPiS0_S_S0_S0_S_S0_S0_S_S0_S0_PKdS_
libmagma_sparse.so:_Z44__device_stub__magma_dbajac_csr_o_ls_kernel4iiiiPdPiS0_S_S0_S0_S_S0_S0_S_S0_S0_S_S0_S0_S_S0_S0_S_S0_S0_S_S0_S0_PKdS_
libmagma_sparse.so:_Z44__device_stub__magma_dbajac_csr_o_ls_kernel8iiiiPdPiS0_S_S0_S0_S_S0_S0_S_S0_S0_S_S0_S0_S_S0_S0_S_S0_S0_S_S0_S0_S_S0_S0_S_S0_S0_S_S0_S0_S_S0_S0_S_S0_S0_S_S0_S0_S_S0_S0_S_S0_S0_PKdS_
libmagma_sparse.so:_Z44__device_stub__magma_dbicgmerge_spmv1_kerneliPdPiS0_S_S_S_S_
libmagma_sparse.so:_Z44__device_stub__magma_dbicgmerge_spmv2_kerneliPdPiS0_S_S_S_
libmagma_sparse.so:_Z44__device_stub__magma_dcgmerge_spmvcsr_kerneliPdPiS0_S_S_S_
libmagma_sparse.so:_Z44__device_stub__magma_dcgmerge_spmvell_kerneliiPdPiS_S_S_
libmagma_sparse.so:_Z44__device_stub__magma_didr_smoothing_1_kerneliiPdS_S_
libmagma_sparse.so:_Z44__device_stub__magma_didr_smoothing_2_kerneliidPdS_
libmagma_sparse.so:_Z44__device_stub__magma_djcgmerge_xrbeta_kerneliPdS_S_S_S_S_S_S_
libmagma_sparse.so:_Z44__device_stub__magma_dpcgmerge_xrbeta_kerneliPdS_S_S_S_
libmagma_sparse.so:_Z44__device_stub__magma_sbajac_csr_o_ls_kernel1iiiiPfPiS0_S_S0_S0_PKfS_
libmagma_sparse.so:_Z44__device_stub__magma_sbajac_csr_o_ls_kernel2iiiiPfPiS0_S_S0_S0_S_S0_S0_S_S0_S0_PKfS_
libmagma_sparse.so:_Z44__device_stub__magma_sbajac_csr_o_ls_kernel4iiiiPfPiS0_S_S0_S0_S_S0_S0_S_S0_S0_S_S0_S0_S_S0_S0_S_S0_S0_S_S0_S0_PKfS_
libmagma_sparse.so:_Z44__device_stub__magma_sbajac_csr_o_ls_kernel8iiiiPfPiS0_S_S0_S0_S_S0_S0_S_S0_S0_S_S0_S0_S_S0_S0_S_S0_S0_S_S0_S0_S_S0_S0_S_S0_S0_S_S0_S0_S_S0_S0_S_S0_S0_S_S0_S0_S_S0_S0_S_S0_S0_PKfS_
libmagma_sparse.so:_Z44__device_stub__magma_sbicgmerge_spmv1_kerneliPfPiS0_S_S_S_S_
libmagma_sparse.so:_Z44__device_stub__magma_sbicgmerge_spmv2_kerneliPfPiS0_S_S_S_
libmagma_sparse.so:_Z44__device_stub__magma_scgmerge_spmvcsr_kerneliPfPiS0_S_S_S_
libmagma_sparse.so:_Z44__device_stub__magma_scgmerge_spmvell_kerneliiPfPiS_S_S_
libmagma_sparse.so:_Z44__device_stub__magma_sidr_smoothing_1_kerneliiPfS_S_
libmagma_sparse.so:_Z44__device_stub__magma_sidr_smoothing_2_kerneliifPfS_
libmagma_sparse.so:_Z44__device_stub__magma_sjcgmerge_xrbeta_kerneliPfS_S_S_S_S_S_S_
libmagma_sparse.so:_Z44__device_stub__magma_spcgmerge_xrbeta_kerneliPfS_S_S_S_
libmagma_sparse.so:_Z44__device_stub__magma_zbajac_csr_o_ls_kernel1iiiiP18magmaDoubleComplexPiS1_S0_S1_S1_PKS_S0_
libmagma_sparse.so:_Z44__device_stub__magma_zbajac_csr_o_ls_kernel2iiiiP18magmaDoubleComplexPiS1_S0_S1_S1_S0_S1_S1_S0_S1_S1_PKS_S0_
libmagma_sparse.so:_Z44__device_stub__magma_zbajac_csr_o_ls_kernel4iiiiP18magmaDoubleComplexPiS1_S0_S1_S1_S0_S1_S1_S0_S1_S1_S0_S1_S1_S0_S1_S1_S0_S1_S1_S0_S1_S1_PKS_S0_
libmagma_sparse.so:_Z44__device_stub__magma_zbajac_csr_o_ls_kernel8iiiiP18magmaDoubleComplexPiS1_S0_S1_S1_S0_S1_S1_S0_S1_S1_S0_S1_S1_S0_S1_S1_S0_S1_S1_S0_S1_S1_S0_S1_S1_S0_S1_S1_S0_S1_S1_S0_S1_S1_S0_S1_S1_S0_S1_S1_S0_S1_S1_S0_S1_S1_PKS_S0_
libmagma_sparse.so:_Z44__device_stub__magma_zbicgmerge_spmv1_kerneliP18magmaDoubleComplexPiS1_S0_S0_S0_S0_
libmagma_sparse.so:_Z44__device_stub__magma_zbicgmerge_spmv2_kerneliP18magmaDoubleComplexPiS1_S0_S0_S0_
libmagma_sparse.so:_Z44__device_stub__magma_zcgmerge_spmvcsr_kerneliP18magmaDoubleComplexPiS1_S0_S0_S0_
libmagma_sparse.so:_Z44__device_stub__magma_zcgmerge_spmvell_kerneliiP18magmaDoubleComplexPiS0_S0_S0_
libmagma_sparse.so:_Z44__device_stub__magma_zidr_smoothing_1_kerneliiP18magmaDoubleComplexS0_S0_
libmagma_sparse.so:_Z44__device_stub__magma_zidr_smoothing_2_kernelii18magmaDoubleComplexPS_S0_
libmagma_sparse.so:_Z44__device_stub__magma_zjcgmerge_xrbeta_kerneliP18magmaDoubleComplexS0_S0_S0_S0_S0_S0_S0_
libmagma_sparse.so:_Z44__device_stub__magma_zpcgmerge_xrbeta_kerneliP18magmaDoubleComplexS0_S0_S0_S0_
libmagma_sparse.so:_Z44__device_stub__magma_zpipelineddznrm2_kerneliP18magmaDoubleComplexiS0_
libmagma_sparse.so:_Z45__device_stub__cjacobispmvupdateselect_kerneliiiPiP17magmaFloatComplexS_S_S1_S1_S1_S1_S1_
libmagma_sparse.so:_Z45__device_stub__djacobispmvupdateselect_kerneliiiPiPdS_S_S0_S0_S0_S0_S0_
libmagma_sparse.so:_Z45__device_stub__magma_cbajac_csr_o_ls_kernel16iiiiP17magmaFloatComplexPiS1_S0_S1_S1_S0_S1_S1_S0_S1_S1_S0_S1_S1_S0_S1_S1_S0_S1_S1_S0_S1_S1_S0_S1_S1_S0_S1_S1_S0_S1_S1_S0_S1_S1_S0_S1_S1_S0_S1_S1_S0_S1_S1_S0_S1_S1_S0_S1_S1_S0_S1_S1_S0_S1_S1_S0_S1_S1_S0_S1_S1_S0_S1_S1_S0_S1_S1_S0_S1_S1_S0_S1_S1_S0_S1_S1_S0_S1_S1_S0_S1_S1_S0_S1_S1_S0_S1_S1_S0_S1_S1_S0_S1_S1_PKS_S0_
libmagma_sparse.so:_Z45__device_stub__magma_cbajac_csr_o_ls_kernel32iiiiP17magmaFloatComplexPiS1_S0_S1_S1_S0_S1_S1_S0_S1_S1_S0_S1_S1_S0_S1_S1_S0_S1_S1_S0_S1_S1_S0_S1_S1_S0_S1_S1_S0_S1_S1_S0_S1_S1_S0_S1_S1_S0_S1_S1_S0_S1_S1_S0_S1_S1_S0_S1_S1_S0_S1_S1_S0_S1_S1_S0_S1_S1_S0_S1_S1_S0_S1_S1_S0_S1_S1_S0_S1_S1_S0_S1_S1_S0_S1_S1_S0_S1_S1_S0_S1_S1_S0_S1_S1_S0_S1_S1_S0_S1_S1_S0_S1_S1_S0_S1_S1_S0_S1_S1_S0_S1_S1_S0_S1_S1_S0_S1_S1_S0_S1_S1_S0_S1_S1_S0_S1_S1_S0_S1_S1_S0_S1_S1_S0_S1_S1_S0_S1_S1_S0_S1_S1_S0_S1_S1_S0_S1_S1_S0_S1_S1_S0_S1_S1_S0_S1_S1_S0_S1_S1_S0_S1_S1_S0_S1_S1_S0_S1_S1_S0_S1_S1_S0_S1_S1_S0_S1_S1_S0_S1_S1_S0_S1_S1_S0_S1_S1_S0_S1_S1_S0_S1_S1_S0_S1_S1_S0_S1_S1_PKS_S0_
libmagma_sparse.so:_Z45__device_stub__magma_cbajac_csr_o_ls_kernel64iiiiP17magmaFloatComplexPiS1_S0_S1_S1_S0_S1_S1_S0_S1_S1_S0_S1_S1_S0_S1_S1_S0_S1_S1_S0_S1_S1_S0_S1_S1_S0_S1_S1_S0_S1_S1_S0_S1_S1_S0_S1_S1_S0_S1_S1_S0_S1_S1_S0_S1_S1_S0_S1_S1_S0_S1_S1_S0_S1_S1_S0_S1_S1_S0_S1_S1_S0_S1_S1_S0_S1_S1_S0_S1_S1_S0_S1_S1_S0_S1_S1_S0_S1_S1_S0_S1_S1_S0_S1_S1_S0_S1_S1_S0_S1_S1_S0_S1_S1_S0_S1_S1_S0_S1_S1_S0_S1_S1_S0_S1_S1_S0_S1_S1_S0_S1_S1_S0_S1_S1_S0_S1_S1_S0_S1_S1_S0_S1_S1_S0_S1_S1_S0_S1_S1_S0_S1_S1_S0_S1_S1_S0_S1_S1_S0_S1_S1_S0_S1_S1_S0_S1_S1_S0_S1_S1_S0_S1_S1_S0_S1_S1_S0_S1_S1_S0_S1_S1_S0_S1_S1_S0_S1_S1_S0_S1_S1_S0_S1_S1_S0_S1_S1_S0_S1_S1_S0_S1_S1_S0_S1_S1_S0_S1_S1_S0_S1_S1_S0_S1_S1_S0_S1_S1_S0_S1_S1_S0_S1_S1_S0_S1_S1_S0_S1_S1_S0_S1_S1_S0_S1_S1_S0_S1_S1_S0_S1_S1_S0_S1_S1_S0_S1_S1_S0_S1_S1_S0_S1_S1_S0_S1_S1_S0_S1_S1_S0_S1_S1_S0_S1_S1_S0_S1_S1_S0_S1_S1_S0_S1_S1_S0_S1_S1_S0_S1_S1_S0_S1_S1_S0_S1_S1_S0_S1_S1_S0_S1_S1_S0_S1_S1_S0_S1_S1_S0_S1_S1_S0_S1_S1_S0_S1_S1_S0_S1_S1_S0_S1_S1_S0_S1_S1_S0_S1_S1_S0_S1_S1_S0_S1_S1_S0_S1_S1_S0_S1_S1_S0_S1_S1_S0_S1_S1_S0_S1_S1_S0_S1_S1_S0_S1_S1_S0_S1_S1_S0_S1_S1_S0_S1_S1_S0_S1_S1_S0_S1_S1_S0_S1_S1_S0_S1_S1_S0_S1_S1_S0_S1_S1_S0_S1_S1_S0_S1_S1_S0_S1_S1_S0_S1_S1_S0_S1_S1_S0_S1_S1_S0_S1_S1_S0_S1_S1_S0_S1_S1_PKS_S0_
libmagma_sparse.so:_Z45__device_stub__magma_cbicgmerge_xrbeta_kerneliP17magmaFloatComplexS0_S0_S0_S0_S0_S0_S0_
libmagma_sparse.so:_Z45__device_stub__magma_cblockdot_kernel_shuffleiiPK17magmaFloatComplexS1_PS_
libmagma_sparse.so:_Z45__device_stub__magma_cblockreduce_kernel_fastiiiP17magmaFloatComplexS0_
libmagma_sparse.so:_Z45__device_stub__magma_cmergeblockkrylov_kerneliiP17magmaFloatComplexS0_S0_
libmagma_sparse.so:_Z45__device_stub__magma_dbajac_csr_o_ls_kernel16iiiiPdPiS0_S_S0_S0_S_S0_S0_S_S0_S0_S_S0_S0_S_S0_S0_S_S0_S0_S_S0_S0_S_S0_S0_S_S0_S0_S_S0_S0_S_S0_S0_S_S0_S0_S_S0_S0_S_S0_S0_S_S0_S0_S_S0_S0_S_S0_S0_S_S0_S0_S_S0_S0_S_S0_S0_S_S0_S0_S_S0_S0_S_S0_S0_S_S0_S0_S_S0_S0_S_S0_S0_S_S0_S0_S_S0_S0_S_S0_S0_S_S0_S0_S_S0_S0_PKdS_
libmagma_sparse.so:_Z45__device_stub__magma_dbajac_csr_o_ls_kernel32iiiiPdPiS0_S_S0_S0_S_S0_S0_S_S0_S0_S_S0_S0_S_S0_S0_S_S0_S0_S_S0_S0_S_S0_S0_S_S0_S0_S_S0_S0_S_S0_S0_S_S0_S0_S_S0_S0_S_S0_S0_S_S0_S0_S_S0_S0_S_S0_S0_S_S0_S0_S_S0_S0_S_S0_S0_S_S0_S0_S_S0_S0_S_S0_S0_S_S0_S0_S_S0_S0_S_S0_S0_S_S0_S0_S_S0_S0_S_S0_S0_S_S0_S0_S_S0_S0_S_S0_S0_S_S0_S0_S_S0_S0_S_S0_S0_S_S0_S0_S_S0_S0_S_S0_S0_S_S0_S0_S_S0_S0_S_S0_S0_S_S0_S0_S_S0_S0_S_S0_S0_S_S0_S0_S_S0_S0_S_S0_S0_S_S0_S0_S_S0_S0_S_S0_S0_S_S0_S0_S_S0_S0_S_S0_S0_S_S0_S0_S_S0_S0_S_S0_S0_S_S0_S0_S_S0_S0_S_S0_S0_S_S0_S0_S_S0_S0_S_S0_S0_S_S0_S0_PKdS_
libmagma_sparse.so:_Z45__device_stub__magma_dbajac_csr_o_ls_kernel64iiiiPdPiS0_S_S0_S0_S_S0_S0_S_S0_S0_S_S0_S0_S_S0_S0_S_S0_S0_S_S0_S0_S_S0_S0_S_S0_S0_S_S0_S0_S_S0_S0_S_S0_S0_S_S0_S0_S_S0_S0_S_S0_S0_S_S0_S0_S_S0_S0_S_S0_S0_S_S0_S0_S_S0_S0_S_S0_S0_S_S0_S0_S_S0_S0_S_S0_S0_S_S0_S0_S_S0_S0_S_S0_S0_S_S0_S0_S_S0_S0_S_S0_S0_S_S0_S0_S_S0_S0_S_S0_S0_S_S0_S0_S_S0_S0_S_S0_S0_S_S0_S0_S_S0_S0_S_S0_S0_S_S0_S0_S_S0_S0_S_S0_S0_S_S0_S0_S_S0_S0_S_S0_S0_S_S0_S0_S_S0_S0_S_S0_S0_S_S0_S0_S_S0_S0_S_S0_S0_S_S0_S0_S_S0_S0_S_S0_S0_S_S0_S0_S_S0_S0_S_S0_S0_S_S0_S0_S_S0_S0_S_S0_S0_S_S0_S0_S_S0_S0_S_S0_S0_S_S0_S0_S_S0_S0_S_S0_S0_S_S0_S0_S_S0_S0_S_S0_S0_S_S0_S0_S_S0_S0_S_S0_S0_S_S0_S0_S_S0_S0_S_S0_S0_S_S0_S0_S_S0_S0_S_S0_S0_S_S0_S0_S_S0_S0_S_S0_S0_S_S0_S0_S_S0_S0_S_S0_S0_S_S0_S0_S_S0_S0_S_S0_S0_S_S0_S0_S_S0_S0_S_S0_S0_S_S0_S0_S_S0_S0_S_S0_S0_S_S0_S0_S_S0_S0_S_S0_S0_S_S0_S0_S_S0_S0_S_S0_S0_S_S0_S0_S_S0_S0_S_S0_S0_S_S0_S0_S_S0_S0_S_S0_S0_S_S0_S0_S_S0_S0_S_S0_S0_S_S0_S0_S_S0_S0_S_S0_S0_S_S0_S0_S_S0_S0_S_S0_S0_S_S0_S0_S_S0_S0_S_S0_S0_S_S0_S0_S_S0_S0_S_S0_S0_S_S0_S0_S_S0_S0_S_S0_S0_S_S0_S0_S_S0_S0_S_S0_S0_S_S0_S0_PKdS_
libmagma_sparse.so:_Z45__device_stub__magma_dbicgmerge_xrbeta_kerneliPdS_S_S_S_S_S_S_
libmagma_sparse.so:_Z45__device_stub__magma_dblockdot_kernel_shuffleiiPKdS0_Pd
libmagma_sparse.so:_Z45__device_stub__magma_dblockreduce_kernel_fastiiiPdS_
libmagma_sparse.so:_Z45__device_stub__magma_dmergeblockkrylov_kerneliiPdS_S_
libmagma_sparse.so:_Z45__device_stub__magma_sbajac_csr_o_ls_kernel16iiiiPfPiS0_S_S0_S0_S_S0_S0_S_S0_S0_S_S0_S0_S_S0_S0_S_S0_S0_S_S0_S0_S_S0_S0_S_S0_S0_S_S0_S0_S_S0_S0_S_S0_S0_S_S0_S0_S_S0_S0_S_S0_S0_S_S0_S0_S_S0_S0_S_S0_S0_S_S0_S0_S_S0_S0_S_S0_S0_S_S0_S0_S_S0_S0_S_S0_S0_S_S0_S0_S_S0_S0_S_S0_S0_S_S0_S0_S_S0_S0_S_S0_S0_S_S0_S0_PKfS_
libmagma_sparse.so:_Z45__device_stub__magma_sbajac_csr_o_ls_kernel32iiiiPfPiS0_S_S0_S0_S_S0_S0_S_S0_S0_S_S0_S0_S_S0_S0_S_S0_S0_S_S0_S0_S_S0_S0_S_S0_S0_S_S0_S0_S_S0_S0_S_S0_S0_S_S0_S0_S_S0_S0_S_S0_S0_S_S0_S0_S_S0_S0_S_S0_S0_S_S0_S0_S_S0_S0_S_S0_S0_S_S0_S0_S_S0_S0_S_S0_S0_S_S0_S0_S_S0_S0_S_S0_S0_S_S0_S0_S_S0_S0_S_S0_S0_S_S0_S0_S_S0_S0_S_S0_S0_S_S0_S0_S_S0_S0_S_S0_S0_S_S0_S0_S_S0_S0_S_S0_S0_S_S0_S0_S_S0_S0_S_S0_S0_S_S0_S0_S_S0_S0_S_S0_S0_S_S0_S0_S_S0_S0_S_S0_S0_S_S0_S0_S_S0_S0_S_S0_S0_S_S0_S0_S_S0_S0_S_S0_S0_S_S0_S0_S_S0_S0_S_S0_S0_S_S0_S0_S_S0_S0_S_S0_S0_S_S0_S0_S_S0_S0_S_S0_S0_PKfS_
libmagma_sparse.so:_Z45__device_stub__magma_sbajac_csr_o_ls_kernel64iiiiPfPiS0_S_S0_S0_S_S0_S0_S_S0_S0_S_S0_S0_S_S0_S0_S_S0_S0_S_S0_S0_S_S0_S0_S_S0_S0_S_S0_S0_S_S0_S0_S_S0_S0_S_S0_S0_S_S0_S0_S_S0_S0_S_S0_S0_S_S0_S0_S_S0_S0_S_S0_S0_S_S0_S0_S_S0_S0_S_S0_S0_S_S0_S0_S_S0_S0_S_S0_S0_S_S0_S0_S_S0_S0_S_S0_S0_S_S0_S0_S_S0_S0_S_S0_S0_S_S0_S0_S_S0_S0_S_S0_S0_S_S0_S0_S_S0_S0_S_S0_S0_S_S0_S0_S_S0_S0_S_S0_S0_S_S0_S0_S_S0_S0_S_S0_S0_S_S0_S0_S_S0_S0_S_S0_S0_S_S0_S0_S_S0_S0_S_S0_S0_S_S0_S0_S_S0_S0_S_S0_S0_S_S0_S0_S_S0_S0_S_S0_S0_S_S0_S0_S_S0_S0_S_S0_S0_S_S0_S0_S_S0_S0_S_S0_S0_S_S0_S0_S_S0_S0_S_S0_S0_S_S0_S0_S_S0_S0_S_S0_S0_S_S0_S0_S_S0_S0_S_S0_S0_S_S0_S0_S_S0_S0_S_S0_S0_S_S0_S0_S_S0_S0_S_S0_S0_S_S0_S0_S_S0_S0_S_S0_S0_S_S0_S0_S_S0_S0_S_S0_S0_S_S0_S0_S_S0_S0_S_S0_S0_S_S0_S0_S_S0_S0_S_S0_S0_S_S0_S0_S_S0_S0_S_S0_S0_S_S0_S0_S_S0_S0_S_S0_S0_S_S0_S0_S_S0_S0_S_S0_S0_S_S0_S0_S_S0_S0_S_S0_S0_S_S0_S0_S_S0_S0_S_S0_S0_S_S0_S0_S_S0_S0_S_S0_S0_S_S0_S0_S_S0_S0_S_S0_S0_S_S0_S0_S_S0_S0_S_S0_S0_S_S0_S0_S_S0_S0_S_S0_S0_S_S0_S0_S_S0_S0_S_S0_S0_S_S0_S0_S_S0_S0_S_S0_S0_S_S0_S0_S_S0_S0_S_S0_S0_S_S0_S0_S_S0_S0_S_S0_S0_PKfS_
libmagma_sparse.so:_Z45__device_stub__magma_sbicgmerge_xrbeta_kerneliPfS_S_S_S_S_S_S_
libmagma_sparse.so:_Z45__device_stub__magma_sblockdot_kernel_shuffleiiPKfS0_Pf
libmagma_sparse.so:_Z45__device_stub__magma_sblockreduce_kernel_fastiiiPfS_
libmagma_sparse.so:_Z45__device_stub__magma_smergeblockkrylov_kerneliiPfS_S_
libmagma_sparse.so:_Z45__device_stub__magma_zbajac_csr_o_ls_kernel16iiiiP18magmaDoubleComplexPiS1_S0_S1_S1_S0_S1_S1_S0_S1_S1_S0_S1_S1_S0_S1_S1_S0_S1_S1_S0_S1_S1_S0_S1_S1_S0_S1_S1_S0_S1_S1_S0_S1_S1_S0_S1_S1_S0_S1_S1_S0_S1_S1_S0_S1_S1_S0_S1_S1_S0_S1_S1_S0_S1_S1_S0_S1_S1_S0_S1_S1_S0_S1_S1_S0_S1_S1_S0_S1_S1_S0_S1_S1_S0_S1_S1_S0_S1_S1_S0_S1_S1_S0_S1_S1_S0_S1_S1_S0_S1_S1_S0_S1_S1_PKS_S0_
libmagma_sparse.so:_Z45__device_stub__magma_zbajac_csr_o_ls_kernel32iiiiP18magmaDoubleComplexPiS1_S0_S1_S1_S0_S1_S1_S0_S1_S1_S0_S1_S1_S0_S1_S1_S0_S1_S1_S0_S1_S1_S0_S1_S1_S0_S1_S1_S0_S1_S1_S0_S1_S1_S0_S1_S1_S0_S1_S1_S0_S1_S1_S0_S1_S1_S0_S1_S1_S0_S1_S1_S0_S1_S1_S0_S1_S1_S0_S1_S1_S0_S1_S1_S0_S1_S1_S0_S1_S1_S0_S1_S1_S0_S1_S1_S0_S1_S1_S0_S1_S1_S0_S1_S1_S0_S1_S1_S0_S1_S1_S0_S1_S1_S0_S1_S1_S0_S1_S1_S0_S1_S1_S0_S1_S1_S0_S1_S1_S0_S1_S1_S0_S1_S1_S0_S1_S1_S0_S1_S1_S0_S1_S1_S0_S1_S1_S0_S1_S1_S0_S1_S1_S0_S1_S1_S0_S1_S1_S0_S1_S1_S0_S1_S1_S0_S1_S1_S0_S1_S1_S0_S1_S1_S0_S1_S1_S0_S1_S1_S0_S1_S1_S0_S1_S1_S0_S1_S1_S0_S1_S1_S0_S1_S1_S0_S1_S1_S0_S1_S1_S0_S1_S1_S0_S1_S1_S0_S1_S1_PKS_S0_
libmagma_sparse.so:_Z45__device_stub__magma_zbajac_csr_o_ls_kernel64iiiiP18magmaDoubleComplexPiS1_S0_S1_S1_S0_S1_S1_S0_S1_S1_S0_S1_S1_S0_S1_S1_S0_S1_S1_S0_S1_S1_S0_S1_S1_S0_S1_S1_S0_S1_S1_S0_S1_S1_S0_S1_S1_S0_S1_S1_S0_S1_S1_S0_S1_S1_S0_S1_S1_S0_S1_S1_S0_S1_S1_S0_S1_S1_S0_S1_S1_S0_S1_S1_S0_S1_S1_S0_S1_S1_S0_S1_S1_S0_S1_S1_S0_S1_S1_S0_S1_S1_S0_S1_S1_S0_S1_S1_S0_S1_S1_S0_S1_S1_S0_S1_S1_S0_S1_S1_S0_S1_S1_S0_S1_S1_S0_S1_S1_S0_S1_S1_S0_S1_S1_S0_S1_S1_S0_S1_S1_S0_S1_S1_S0_S1_S1_S0_S1_S1_S0_S1_S1_S0_S1_S1_S0_S1_S1_S0_S1_S1_S0_S1_S1_S0_S1_S1_S0_S1_S1_S0_S1_S1_S0_S1_S1_S0_S1_S1_S0_S1_S1_S0_S1_S1_S0_S1_S1_S0_S1_S1_S0_S1_S1_S0_S1_S1_S0_S1_S1_S0_S1_S1_S0_S1_S1_S0_S1_S1_S0_S1_S1_S0_S1_S1_S0_S1_S1_S0_S1_S1_S0_S1_S1_S0_S1_S1_S0_S1_S1_S0_S1_S1_S0_S1_S1_S0_S1_S1_S0_S1_S1_S0_S1_S1_S0_S1_S1_S0_S1_S1_S0_S1_S1_S0_S1_S1_S0_S1_S1_S0_S1_S1_S0_S1_S1_S0_S1_S1_S0_S1_S1_S0_S1_S1_S0_S1_S1_S0_S1_S1_S0_S1_S1_S0_S1_S1_S0_S1_S1_S0_S1_S1_S0_S1_S1_S0_S1_S1_S0_S1_S1_S0_S1_S1_S0_S1_S1_S0_S1_S1_S0_S1_S1_S0_S1_S1_S0_S1_S1_S0_S1_S1_S0_S1_S1_S0_S1_S1_S0_S1_S1_S0_S1_S1_S0_S1_S1_S0_S1_S1_S0_S1_S1_S0_S1_S1_S0_S1_S1_S0_S1_S1_S0_S1_S1_S0_S1_S1_S0_S1_S1_S0_S1_S1_S0_S1_S1_S0_S1_S1_S0_S1_S1_S0_S1_S1_S0_S1_S1_S0_S1_S1_S0_S1_S1_S0_S1_S1_S0_S1_S1_S0_S1_S1_S0_S1_S1_S0_S1_S1_PKS_S0_
libmagma_sparse.so:_Z45__device_stub__magma_zbicgmerge_xrbeta_kerneliP18magmaDoubleComplexS0_S0_S0_S0_S0_S0_S0_
libmagma_sparse.so:_Z45__device_stub__magma_zblockdot_kernel_shuffleiiPK18magmaDoubleComplexS1_PS_
libmagma_sparse.so:_Z45__device_stub__magma_zblockreduce_kernel_fastiiiP18magmaDoubleComplexS0_
libmagma_sparse.so:_Z45__device_stub__magma_zmergeblockkrylov_kerneliiP18magmaDoubleComplexS0_S0_
libmagma_sparse.so:_Z45__device_stub__sjacobispmvupdateselect_kerneliiiPiPfS_S_S0_S0_S0_S0_S0_
libmagma_sparse.so:_Z45__device_stub__zjacobispmvupdateselect_kerneliiiPiP18magmaDoubleComplexS_S_S1_S1_S1_S1_S1_
libmagma_sparse.so:_Z46__device_stub__magma_ccgmerge_spmvell_kernelb1iiP17magmaFloatComplexPiS1_S0_S0_S0_
libmagma_sparse.so:_Z46__device_stub__magma_ccgmerge_spmvsellc_kerneliiP17magmaFloatComplexPiS1_S0_S0_S0_
libmagma_sparse.so:_Z46__device_stub__magma_cparilut_residuals_kerneliPKiS0_PK17magmaFloatComplexS0_S0_S3_S0_S0_S3_iS0_S0_PS1_
libmagma_sparse.so:_Z46__device_stub__magma_dcgmerge_spmvell_kernelb1iiPdPiS0_S_S_S_
libmagma_sparse.so:_Z46__device_stub__magma_dcgmerge_spmvsellc_kerneliiPdPiS0_S_S_S_
libmagma_sparse.so:_Z46__device_stub__magma_dparilut_residuals_kerneliPKiS0_PKdS0_S0_S2_S0_S0_S2_iS0_S0_Pd
libmagma_sparse.so:_Z46__device_stub__magma_scgmerge_spmvell_kernelb1iiPfPiS0_S_S_S_
libmagma_sparse.so:_Z46__device_stub__magma_scgmerge_spmvsellc_kerneliiPfPiS0_S_S_S_
libmagma_sparse.so:_Z46__device_stub__magma_sparilut_residuals_kerneliPKiS0_PKfS0_S0_S2_S0_S0_S2_iS0_S0_Pf
libmagma_sparse.so:_Z46__device_stub__magma_zcgmerge_spmvell_kernelb1iiP18magmaDoubleComplexPiS1_S0_S0_S0_
libmagma_sparse.so:_Z46__device_stub__magma_zcgmerge_spmvsellc_kerneliiP18magmaDoubleComplexPiS1_S0_S0_S0_
libmagma_sparse.so:_Z46__device_stub__magma_zparilut_residuals_kerneliPKiS0_PK18magmaDoubleComplexS0_S0_S3_S0_S0_S3_iS0_S0_PS1_
libmagma_sparse.so:_Z48__device_stub__magma_ccgmerge_spmvellpack_kerneliiP17magmaFloatComplexPiS0_S0_S0_
libmagma_sparse.so:_Z48__device_stub__magma_dcgmerge_spmvellpack_kerneliiPdPiS_S_S_
libmagma_sparse.so:_Z48__device_stub__magma_scgmerge_spmvellpack_kerneliiPfPiS_S_S_
libmagma_sparse.so:_Z48__device_stub__magma_zcgmerge_spmvellpack_kerneliiP18magmaDoubleComplexPiS0_S0_S0_
libmagma_sparse.so:_Z49__device_stub__magma_ccgmerge_spmvsellpt_kernel_8iiiP17magmaFloatComplexPiS1_S0_S0_
libmagma_sparse.so:_Z49__device_stub__magma_dcgmerge_spmvsellpt_kernel_8iiiPdPiS0_S_S_
libmagma_sparse.so:_Z49__device_stub__magma_scgmerge_spmvsellpt_kernel_8iiiPfPiS0_S_S_
libmagma_sparse.so:_Z49__device_stub__magma_zcgmerge_spmvsellpt_kernel_8iiiP18magmaDoubleComplexPiS1_S0_S0_
libmagma_sparse.so:_Z4swapP17magmaFloatComplexS0_
libmagma_sparse.so:_Z4swapP18magmaDoubleComplexS0_
libmagma_sparse.so:_Z4swapPdS_
libmagma_sparse.so:_Z4swapPfS_
libmagma_sparse.so:_Z50__device_stub__magma_ccgmerge_spmvsellpt_kernel_16iiiP17magmaFloatComplexPiS1_S0_S0_
libmagma_sparse.so:_Z50__device_stub__magma_ccgmerge_spmvsellpt_kernel_32iiiP17magmaFloatComplexPiS1_S0_S0_
libmagma_sparse.so:_Z50__device_stub__magma_dcgmerge_spmvsellpt_kernel_16iiiPdPiS0_S_S_
libmagma_sparse.so:_Z50__device_stub__magma_dcgmerge_spmvsellpt_kernel_32iiiPdPiS0_S_S_
libmagma_sparse.so:_Z50__device_stub__magma_scgmerge_spmvsellpt_kernel_16iiiPfPiS0_S_S_
libmagma_sparse.so:_Z50__device_stub__magma_scgmerge_spmvsellpt_kernel_32iiiPfPiS0_S_S_
libmagma_sparse.so:_Z50__device_stub__magma_zcgmerge_spmvsellpt_kernel_16iiiP18magmaDoubleComplexPiS1_S0_S0_
libmagma_sparse.so:_Z50__device_stub__magma_zcgmerge_spmvsellpt_kernel_32iiiP18magmaDoubleComplexPiS1_S0_S0_
libmagma_sparse.so:_Z51__device_stub__magma_ccgmerge_spmvellpackrt_kernel2iP17magmaFloatComplexS0_S0_
libmagma_sparse.so:_Z51__device_stub__magma_dcgmerge_spmvellpackrt_kernel2iPdS_S_
libmagma_sparse.so:_Z51__device_stub__magma_scgmerge_spmvellpackrt_kernel2iPfS_S_
libmagma_sparse.so:_Z51__device_stub__magma_zcgmerge_spmvellpackrt_kernel2iP18magmaDoubleComplexS0_S0_
libmagma_sparse.so:_Z52__device_stub__magma_ccgmerge_spmvellpackrt_kernel_8iP17magmaFloatComplexPiS1_S0_S0_S0_ii
libmagma_sparse.so:_Z52__device_stub__magma_dcgmerge_spmvellpackrt_kernel_8iPdPiS0_S_S_S_ii
libmagma_sparse.so:_Z52__device_stub__magma_scgmerge_spmvellpackrt_kernel_8iPfPiS0_S_S_S_ii
libmagma_sparse.so:_Z52__device_stub__magma_zcgmerge_spmvellpackrt_kernel_8iP18magmaDoubleComplexPiS1_S0_S0_S0_ii
libmagma_sparse.so:_Z53__device_stub__magma_cblockdot_kernel_shuffle_1dblockiiPK17magmaFloatComplexS1_PS_
libmagma_sparse.so:_Z53__device_stub__magma_ccgmerge_spmvellpackrt_kernel_16iP17magmaFloatComplexPiS1_S0_S0_S0_ii
libmagma_sparse.so:_Z53__device_stub__magma_ccgmerge_spmvellpackrt_kernel_32iP17magmaFloatComplexPiS1_S0_S0_S0_ii
libmagma_sparse.so:_Z53__device_stub__magma_dblockdot_kernel_shuffle_1dblockiiPKdS0_Pd
libmagma_sparse.so:_Z53__device_stub__magma_dcgmerge_spmvellpackrt_kernel_16iPdPiS0_S_S_S_ii
libmagma_sparse.so:_Z53__device_stub__magma_dcgmerge_spmvellpackrt_kernel_32iPdPiS0_S_S_S_ii
libmagma_sparse.so:_Z53__device_stub__magma_sblockdot_kernel_shuffle_1dblockiiPKfS0_Pf
libmagma_sparse.so:_Z53__device_stub__magma_scgmerge_spmvellpackrt_kernel_16iPfPiS0_S_S_S_ii
libmagma_sparse.so:_Z53__device_stub__magma_scgmerge_spmvellpackrt_kernel_32iPfPiS0_S_S_S_ii
libmagma_sparse.so:_Z53__device_stub__magma_zblockdot_kernel_shuffle_1dblockiiPK18magmaDoubleComplexS1_PS_
libmagma_sparse.so:_Z53__device_stub__magma_zcgmerge_spmvellpackrt_kernel_16iP18magmaDoubleComplexPiS1_S0_S0_S0_ii
libmagma_sparse.so:_Z53__device_stub__magma_zcgmerge_spmvellpackrt_kernel_32iP18magmaDoubleComplexPiS1_S0_S0_S0_ii
libmagma_sparse.so:_ZN18magma_sampleselect12sampleselectEPdS0_S0_PiiiS0_
libmagma_sparse.so:_ZN18magma_sampleselect12sampleselectEPfS0_S0_PiiiS0_
libmagma_sparse.so:_ZN18magma_sampleselect13count_bucketsEPKdS1_Piii
libmagma_sparse.so:_ZN18magma_sampleselect13count_bucketsEPKfS1_Piii
libmagma_sparse.so:_ZN18magma_sampleselect13reduce_countsEPKiPii
libmagma_sparse.so:_ZN18magma_sampleselect16build_searchtreeEPKdPdi
libmagma_sparse.so:_ZN18magma_sampleselect16build_searchtreeEPKfPfi
libmagma_sparse.so:_ZN18magma_sampleselect17prefix_sum_countsEPiS0_i
libmagma_sparse.so:_ZN18magma_sampleselect17sampleselect_nodpEP12ihipStream_tPdS2_S2_PiiiS2_
libmagma_sparse.so:_ZN18magma_sampleselect17sampleselect_nodpEP12ihipStream_tPfS2_S2_PiiiS2_
libmagma_sparse.so:_ZN18magma_sampleselect19count_buckets_writeEPKdS1_PiPjii
libmagma_sparse.so:_ZN18magma_sampleselect19count_buckets_writeEPKfS1_PiPjii
libmagma_sparse.so:_ZN18magma_sampleselect20realloc_if_necessaryEPPvPii
libmagma_sparse.so:_ZN18magma_sampleselect21sampleselect_tailcallEPdS0_S0_PiS0_
libmagma_sparse.so:_ZN18magma_sampleselect21sampleselect_tailcallEPfS0_S0_PiS0_
libmagma_sparse.so:_ZN18magma_sampleselect23collect_bucket_indirectEPKdPKjPKiPdiPjPii
libmagma_sparse.so:_ZN18magma_sampleselect23collect_bucket_indirectEPKfPKjPKiPfiPjPii
libmagma_sparse.so:_ZN18magma_sampleselect23sampleselect_alloc_sizeEi
libmagma_sparse.so:_ZN18magma_sampleselect23sampleselect_findbucketEPiiPjS0_
libmagma_sparse.so:_ZN18magma_sampleselect23select_bitonic_basecaseEPdS0_ii
libmagma_sparse.so:_ZN18magma_sampleselect23select_bitonic_basecaseEPfS0_ii
libmagma_sparse.so:_ZN18magma_sampleselect24launch_sampleselect_nodpEP12ihipStream_tPdS2_S2_S2_Piii
libmagma_sparse.so:_ZN18magma_sampleselect24launch_sampleselect_nodpEP12ihipStream_tPfS2_S2_S2_Piii
libmagma_sparse.so:_ZN18magma_sampleselect26sampleselect_tailcall_nodpEP12ihipStream_tPdS2_S2_PiS2_
libmagma_sparse.so:_ZN18magma_sampleselect26sampleselect_tailcall_nodpEP12ihipStream_tPfS2_S2_PiS2_
libmagma_sparse.so:_ZN18magma_sampleselect27__device_stub__sampleselectEPdS0_S0_PiiiS0_
libmagma_sparse.so:_ZN18magma_sampleselect27__device_stub__sampleselectEPfS0_S0_PiiiS0_
libmagma_sparse.so:_ZN18magma_sampleselect28__device_stub__count_bucketsEPKdS1_Piii
libmagma_sparse.so:_ZN18magma_sampleselect28__device_stub__count_bucketsEPKfS1_Piii
libmagma_sparse.so:_ZN18magma_sampleselect28__device_stub__reduce_countsEPKiPii
libmagma_sparse.so:_ZN18magma_sampleselect31__device_stub__build_searchtreeEPKdPdi
libmagma_sparse.so:_ZN18magma_sampleselect31__device_stub__build_searchtreeEPKfPfi
libmagma_sparse.so:_ZN18magma_sampleselect32__device_stub__prefix_sum_countsEPiS0_i
libmagma_sparse.so:_ZN18magma_sampleselect34__device_stub__count_buckets_writeEPKdS1_PiPjii
libmagma_sparse.so:_ZN18magma_sampleselect34__device_stub__count_buckets_writeEPKfS1_PiPjii
libmagma_sparse.so:_ZN18magma_sampleselect36__device_stub__sampleselect_tailcallEPdS0_S0_PiS0_
libmagma_sparse.so:_ZN18magma_sampleselect36__device_stub__sampleselect_tailcallEPfS0_S0_PiS0_
libmagma_sparse.so:_ZN18magma_sampleselect38__device_stub__collect_bucket_indirectEPKdPKjPKiPdiPjPii
libmagma_sparse.so:_ZN18magma_sampleselect38__device_stub__collect_bucket_indirectEPKfPKjPKiPfiPjPii
libmagma_sparse.so:_ZN18magma_sampleselect38__device_stub__sampleselect_findbucketEPiiPjS0_
libmagma_sparse.so:_ZN18magma_sampleselect38__device_stub__select_bitonic_basecaseEPdS0_ii
libmagma_sparse.so:_ZN18magma_sampleselect38__device_stub__select_bitonic_basecaseEPfS0_ii
libmagma_sparse.so:c_transpose_csr
libmagma_sparse.so:cusparse2magma_error
libmagma_sparse.so:d_transpose_csr
libmagma_sparse.so:magma_cKrylov_check
libmagma_sparse.so:magma_c_applyprecond
libmagma_sparse.so:magma_c_applyprecond_left
libmagma_sparse.so:magma_c_applyprecond_right
libmagma_sparse.so:magma_c_csr_compressor
libmagma_sparse.so:magma_c_csr_mtx
libmagma_sparse.so:magma_c_csr_mtxsymm
libmagma_sparse.so:magma_c_cucsrtranspose
libmagma_sparse.so:magma_c_precond
libmagma_sparse.so:magma_c_precondsetup
libmagma_sparse.so:magma_c_solver
libmagma_sparse.so:magma_c_spmm
libmagma_sparse.so:magma_c_spmv
libmagma_sparse.so:magma_c_spmv_shift
libmagma_sparse.so:magma_capplycumicc_l
libmagma_sparse.so:magma_capplycumicc_r
libmagma_sparse.so:magma_capplycumilu_l
libmagma_sparse.so:magma_capplycumilu_l_transpose
libmagma_sparse.so:magma_capplycumilu_r
libmagma_sparse.so:magma_capplycumilu_r_transpose
libmagma_sparse.so:magma_capplycustomprecond_l
libmagma_sparse.so:magma_capplycustomprecond_r
libmagma_sparse.so:magma_capplyiteric_l
libmagma_sparse.so:magma_capplyiteric_r
libmagma_sparse.so:magma_cbaiter
libmagma_sparse.so:magma_cbaiter_overlap
libmagma_sparse.so:magma_cbajac_csr
libmagma_sparse.so:magma_cbajac_csr_overlap
libmagma_sparse.so:magma_cbicg
libmagma_sparse.so:magma_cbicgmerge1
libmagma_sparse.so:magma_cbicgmerge2
libmagma_sparse.so:magma_cbicgmerge3
libmagma_sparse.so:magma_cbicgmerge4
libmagma_sparse.so:magma_cbicgmerge_spmv1
libmagma_sparse.so:magma_cbicgmerge_spmv2
libmagma_sparse.so:magma_cbicgmerge_xrbeta
libmagma_sparse.so:magma_cbicgstab
libmagma_sparse.so:magma_cbicgstab_1
libmagma_sparse.so:magma_cbicgstab_2
libmagma_sparse.so:magma_cbicgstab_3
libmagma_sparse.so:magma_cbicgstab_4
libmagma_sparse.so:magma_cbicgstab_merge
libmagma_sparse.so:magma_cbicgstab_merge2
libmagma_sparse.so:magma_cbicgstab_merge3
libmagma_sparse.so:magma_cbitonic_sort
libmagma_sparse.so:magma_cbombard
libmagma_sparse.so:magma_cbombard_merge
libmagma_sparse.so:magma_cbpcg
libmagma_sparse.so:magma_ccg
libmagma_sparse.so:magma_ccg_merge
libmagma_sparse.so:magma_ccg_res
libmagma_sparse.so:magma_ccgmerge_spmv1
libmagma_sparse.so:magma_ccgmerge_xrbeta
libmagma_sparse.so:magma_ccgs
libmagma_sparse.so:magma_ccgs_1
libmagma_sparse.so:magma_ccgs_2
libmagma_sparse.so:magma_ccgs_3
libmagma_sparse.so:magma_ccgs_4
libmagma_sparse.so:magma_ccgs_merge
libmagma_sparse.so:magma_ccompact
libmagma_sparse.so:magma_ccompactActive
libmagma_sparse.so:magma_ccopyscale
libmagma_sparse.so:magma_ccsr_sort
libmagma_sparse.so:magma_ccsr_sort_gpu
libmagma_sparse.so:magma_ccsrcoo_transpose
libmagma_sparse.so:magma_ccsrget
libmagma_sparse.so:magma_ccsrget_gpu
libmagma_sparse.so:magma_ccsrset
libmagma_sparse.so:magma_ccsrset_gpu
libmagma_sparse.so:magma_ccsrsplit
libmagma_sparse.so:magma_ccumiccsetup
libmagma_sparse.so:magma_ccumicgeneratesolverinfo
libmagma_sparse.so:magma_ccumilugeneratesolverinfo
libmagma_sparse.so:magma_ccumilusetup
libmagma_sparse.so:magma_ccumilusetup_transpose
libmagma_sparse.so:magma_ccuspaxpy
libmagma_sparse.so:magma_ccuspmm
libmagma_sparse.so:magma_ccustomicsetup
libmagma_sparse.so:magma_ccustomilusetup
libmagma_sparse.so:magma_ccustomspmv
libmagma_sparse.so:magma_cdiagcheck
libmagma_sparse.so:magma_cdiameter
libmagma_sparse.so:magma_cdimv
libmagma_sparse.so:magma_cdomainoverlap
libmagma_sparse.so:magma_ceigensolverinfo_init
libmagma_sparse.so:magma_cfgmres
libmagma_sparse.so:magma_cfrobenius
libmagma_sparse.so:magma_cftjacobi
libmagma_sparse.so:magma_cftjacobicontractions
libmagma_sparse.so:magma_cftjacobiupdatecheck
libmagma_sparse.so:magma_cge3pt
libmagma_sparse.so:magma_cgeaxpy
libmagma_sparse.so:magma_cgecscsyncfreetrsm_analysis
libmagma_sparse.so:magma_cgecscsyncfreetrsm_solve
libmagma_sparse.so:magma_cgecsr5mv
libmagma_sparse.so:magma_cgecsrmv
libmagma_sparse.so:magma_cgecsrmv_shift
libmagma_sparse.so:magma_cgecsrreimsplit
libmagma_sparse.so:magma_cgedensereimsplit
libmagma_sparse.so:magma_cgeellmv
libmagma_sparse.so:magma_cgeellmv_shift
libmagma_sparse.so:magma_cgeellrtmv
libmagma_sparse.so:magma_cgeelltmv
libmagma_sparse.so:magma_cgeelltmv_shift
libmagma_sparse.so:magma_cgeisai_maxblock
libmagma_sparse.so:magma_cgemvmdot
libmagma_sparse.so:magma_cgemvmdot_shfl
libmagma_sparse.so:magma_cgesellcmv
libmagma_sparse.so:magma_cgesellpmv
libmagma_sparse.so:magma_cget_row_ptr
libmagma_sparse.so:magma_cicres
libmagma_sparse.so:magma_cidr
libmagma_sparse.so:magma_cidr_merge
libmagma_sparse.so:magma_cidr_smoothing_1
libmagma_sparse.so:magma_cidr_smoothing_2
libmagma_sparse.so:magma_cidr_strms
libmagma_sparse.so:magma_ciluisaisetup_lower
libmagma_sparse.so:magma_ciluisaisetup_upper
libmagma_sparse.so:magma_cilures
libmagma_sparse.so:magma_cindexcopy
libmagma_sparse.so:magma_cindexinit_gpu
libmagma_sparse.so:magma_cindexsort
libmagma_sparse.so:magma_cindexsortval
libmagma_sparse.so:magma_cinitguess
libmagma_sparse.so:magma_cinitrecursiveLU
libmagma_sparse.so:magma_cisai_generator_regs
libmagma_sparse.so:magma_cisai_l
libmagma_sparse.so:magma_cisai_l_t
libmagma_sparse.so:magma_cisai_r
libmagma_sparse.so:magma_cisai_r_t
libmagma_sparse.so:magma_citerref
libmagma_sparse.so:magma_cjaccard_weights
libmagma_sparse.so:magma_cjacobi
libmagma_sparse.so:magma_cjacobi_diagscal
libmagma_sparse.so:magma_cjacobidomainoverlap
libmagma_sparse.so:magma_cjacobiiter
libmagma_sparse.so:magma_cjacobiiter_precond
libmagma_sparse.so:magma_cjacobiiter_sys
libmagma_sparse.so:magma_cjacobisetup
libmagma_sparse.so:magma_cjacobisetup_diagscal
libmagma_sparse.so:magma_cjacobisetup_matrix
libmagma_sparse.so:magma_cjacobisetup_vector
libmagma_sparse.so:magma_cjacobisetup_vector_gpu
libmagma_sparse.so:magma_cjacobispmvupdate
libmagma_sparse.so:magma_cjacobispmvupdate_bw
libmagma_sparse.so:magma_cjacobispmvupdateselect
libmagma_sparse.so:magma_cjacobiupdate
libmagma_sparse.so:magma_cjcgmerge_xrbeta
libmagma_sparse.so:magma_clobpcg
libmagma_sparse.so:magma_clobpcg_maxpy
libmagma_sparse.so:magma_clobpcg_res
libmagma_sparse.so:magma_clobpcg_shift
libmagma_sparse.so:magma_clsqr
libmagma_sparse.so:magma_cmLdiagadd
libmagma_sparse.so:magma_cm_27stencil
libmagma_sparse.so:magma_cm_5stencil
libmagma_sparse.so:magma_cmatrix_abssum
libmagma_sparse.so:magma_cmatrix_addrowindex
libmagma_sparse.so:magma_cmatrix_cap
libmagma_sparse.so:magma_cmatrix_createrowptr
libmagma_sparse.so:magma_cmatrix_cup
libmagma_sparse.so:magma_cmatrix_cup_gpu
libmagma_sparse.so:magma_cmatrix_negcap
libmagma_sparse.so:magma_cmatrix_swap
libmagma_sparse.so:magma_cmatrix_tril
libmagma_sparse.so:magma_cmatrix_tril_negcap
libmagma_sparse.so:magma_cmatrix_triu
libmagma_sparse.so:magma_cmatrix_triu_negcap
libmagma_sparse.so:magma_cmbackinsert_batched
libmagma_sparse.so:magma_cmbdiagdom
libmagma_sparse.so:magma_cmconjugate
libmagma_sparse.so:magma_cmconvert
libmagma_sparse.so:magma_cmcsrcompressor
libmagma_sparse.so:magma_cmcsrcompressor_gpu
libmagma_sparse.so:magma_cmdiagadd
libmagma_sparse.so:magma_cmdiagdom
libmagma_sparse.so:magma_cmdiff
libmagma_sparse.so:magma_cmdotc
libmagma_sparse.so:magma_cmdotc1
libmagma_sparse.so:magma_cmdotc2
libmagma_sparse.so:magma_cmdotc3
libmagma_sparse.so:magma_cmdotc4
libmagma_sparse.so:magma_cmdotc_shfl
libmagma_sparse.so:magma_cmedian5
libmagma_sparse.so:magma_cmergeblockkrylov
libmagma_sparse.so:magma_cmfree
libmagma_sparse.so:magma_cmfrobenius
libmagma_sparse.so:magma_cmgecsrmv
libmagma_sparse.so:magma_cmgeellmv
libmagma_sparse.so:magma_cmgeelltmv
libmagma_sparse.so:magma_cmgenerator
libmagma_sparse.so:magma_cmgesellpmv
libmagma_sparse.so:magma_cmiluspai_sizecheck
libmagma_sparse.so:magma_cmisai_blockstruct
libmagma_sparse.so:magma_cmlumerge
libmagma_sparse.so:magma_cmorderstatistics
libmagma_sparse.so:magma_cmprepare_batched
libmagma_sparse.so:magma_cmscale
libmagma_sparse.so:magma_cmscale_apply
libmagma_sparse.so:magma_cmscale_generate
libmagma_sparse.so:magma_cmscale_matrix_rhs
libmagma_sparse.so:magma_cmshrink
libmagma_sparse.so:magma_cmslice
libmagma_sparse.so:magma_cmsort
libmagma_sparse.so:magma_cmsupernodal
libmagma_sparse.so:magma_cmtransfer
libmagma_sparse.so:magma_cmtranspose
libmagma_sparse.so:magma_cmtranspose_cpu
libmagma_sparse.so:magma_cmtransposeabs_cpu
libmagma_sparse.so:magma_cmtransposeconj_cpu
libmagma_sparse.so:magma_cmtransposeconjugate
libmagma_sparse.so:magma_cmtransposestruct_cpu
libmagma_sparse.so:magma_cmtrisolve_batched
libmagma_sparse.so:magma_cmtrisolve_batched_gpu
libmagma_sparse.so:magma_cmvarsizeblockstruct
libmagma_sparse.so:magma_cnonlinres
libmagma_sparse.so:magma_corderstatistics
libmagma_sparse.so:magma_corderstatistics_inc
libmagma_sparse.so:magma_cparic_cpu
libmagma_sparse.so:magma_cparic_csr
libmagma_sparse.so:magma_cparic_gpu
libmagma_sparse.so:magma_cparic_sweep
libmagma_sparse.so:magma_cparic_sweep_sync
libmagma_sparse.so:magma_cparicsetup
libmagma_sparse.so:magma_cparict
libmagma_sparse.so:magma_cparict_candidates
libmagma_sparse.so:magma_cparict_cpu
libmagma_sparse.so:magma_cparict_sweep_sync
libmagma_sparse.so:magma_cparicupdate
libmagma_sparse.so:magma_cparilu_cpu
libmagma_sparse.so:magma_cparilu_csr
libmagma_sparse.so:magma_cparilu_gpu
libmagma_sparse.so:magma_cparilu_sweep
libmagma_sparse.so:magma_cparilu_sweep_sync
libmagma_sparse.so:magma_cparilusetup
libmagma_sparse.so:magma_cparilut
libmagma_sparse.so:magma_cparilut_align_residuals
libmagma_sparse.so:magma_cparilut_candidates
libmagma_sparse.so:magma_cparilut_candidates_gpu
libmagma_sparse.so:magma_cparilut_candidates_semilinked
libmagma_sparse.so:magma_cparilut_colmajor
libmagma_sparse.so:magma_cparilut_colmajorup
libmagma_sparse.so:magma_cparilut_count
libmagma_sparse.so:magma_cparilut_cpu
libmagma_sparse.so:magma_cparilut_create_collinkedlist
libmagma_sparse.so:magma_cparilut_gpu
libmagma_sparse.so:magma_cparilut_gpu_nodp
libmagma_sparse.so:magma_cparilut_insert
libmagma_sparse.so:magma_cparilut_preselect
libmagma_sparse.so:magma_cparilut_preselect_scale
libmagma_sparse.so:magma_cparilut_reorder
libmagma_sparse.so:magma_cparilut_residuals
libmagma_sparse.so:magma_cparilut_residuals_gpu
libmagma_sparse.so:magma_cparilut_residuals_linkedlist
libmagma_sparse.so:magma_cparilut_residuals_list
libmagma_sparse.so:magma_cparilut_residuals_semilinked
libmagma_sparse.so:magma_cparilut_residuals_transpose
libmagma_sparse.so:magma_cparilut_rm_thrs
libmagma_sparse.so:magma_cparilut_rmselected
libmagma_sparse.so:magma_cparilut_select_candidates_L
libmagma_sparse.so:magma_cparilut_select_candidates_U
libmagma_sparse.so:magma_cparilut_selectoneperrow
libmagma_sparse.so:magma_cparilut_selectoneperrowthrs_lower
libmagma_sparse.so:magma_cparilut_selectoneperrowthrs_upper
libmagma_sparse.so:magma_cparilut_selecttwoperrow
libmagma_sparse.so:magma_cparilut_set_approx_thrs
libmagma_sparse.so:magma_cparilut_set_approx_thrs_inc
libmagma_sparse.so:magma_cparilut_set_exact_thrs
libmagma_sparse.so:magma_cparilut_set_thrs_L_scaled
libmagma_sparse.so:magma_cparilut_set_thrs_randomselect
libmagma_sparse.so:magma_cparilut_set_thrs_randomselect_approx
libmagma_sparse.so:magma_cparilut_set_thrs_randomselect_approx2
libmagma_sparse.so:magma_cparilut_set_thrs_randomselect_factors
libmagma_sparse.so:magma_cparilut_sweep
libmagma_sparse.so:magma_cparilut_sweep_gpu
libmagma_sparse.so:magma_cparilut_sweep_linkedlist
libmagma_sparse.so:magma_cparilut_sweep_list
libmagma_sparse.so:magma_cparilut_sweep_semilinked
libmagma_sparse.so:magma_cparilut_sweep_sync
libmagma_sparse.so:magma_cparilut_thrsrm
libmagma_sparse.so:magma_cparilut_thrsrm_U
libmagma_sparse.so:magma_cparilut_thrsrm_semilinked
libmagma_sparse.so:magma_cparilut_transpose
libmagma_sparse.so:magma_cparilut_transpose_select_one
libmagma_sparse.so:magma_cpariluupdate
libmagma_sparse.so:magma_cparse_opts
libmagma_sparse.so:magma_cpartition
libmagma_sparse.so:magma_cpbicg
libmagma_sparse.so:magma_cpbicgstab
libmagma_sparse.so:magma_cpbicgstab_merge
libmagma_sparse.so:magma_cpcg
libmagma_sparse.so:magma_cpcg_merge
libmagma_sparse.so:magma_cpcgmerge_xrbeta1
libmagma_sparse.so:magma_cpcgmerge_xrbeta2
libmagma_sparse.so:magma_cpcgs
libmagma_sparse.so:magma_cpcgs_merge
libmagma_sparse.so:magma_cpidr
libmagma_sparse.so:magma_cpidr_merge
libmagma_sparse.so:magma_cpidr_strms
libmagma_sparse.so:magma_cpqmr
libmagma_sparse.so:magma_cpqmr_merge
libmagma_sparse.so:magma_cprecondfree
libmagma_sparse.so:magma_cpreselect_gpu
libmagma_sparse.so:magma_cprint_csr
libmagma_sparse.so:magma_cprint_csr_mtx
libmagma_sparse.so:magma_cprint_matrix
libmagma_sparse.so:magma_cprint_vector
libmagma_sparse.so:magma_cptfqmr
libmagma_sparse.so:magma_cptfqmr_merge
libmagma_sparse.so:magma_cqmr
libmagma_sparse.so:magma_cqmr_1
libmagma_sparse.so:magma_cqmr_2
libmagma_sparse.so:magma_cqmr_3
libmagma_sparse.so:magma_cqmr_4
libmagma_sparse.so:magma_cqmr_5
libmagma_sparse.so:magma_cqmr_6
libmagma_sparse.so:magma_cqmr_7
libmagma_sparse.so:magma_cqmr_8
libmagma_sparse.so:magma_cqmr_merge
libmagma_sparse.so:magma_cqr
libmagma_sparse.so:magma_cresidual
libmagma_sparse.so:magma_cresidual_slice
libmagma_sparse.so:magma_cresidualvec
libmagma_sparse.so:magma_crowentries
libmagma_sparse.so:magma_csampleselect
libmagma_sparse.so:magma_csampleselect_approx
libmagma_sparse.so:magma_csampleselect_approx_nodp
libmagma_sparse.so:magma_csampleselect_nodp
libmagma_sparse.so:magma_cselect
libmagma_sparse.so:magma_cselectrandom
libmagma_sparse.so:magma_csolverinfo
libmagma_sparse.so:magma_csolverinfo_free
libmagma_sparse.so:magma_csolverinfo_init
libmagma_sparse.so:magma_csort
libmagma_sparse.so:magma_csymbilu
libmagma_sparse.so:magma_csymbolic_ilu
libmagma_sparse.so:magma_ctfqmr
libmagma_sparse.so:magma_ctfqmr_1
libmagma_sparse.so:magma_ctfqmr_2
libmagma_sparse.so:magma_ctfqmr_3
libmagma_sparse.so:magma_ctfqmr_4
libmagma_sparse.so:magma_ctfqmr_5
libmagma_sparse.so:magma_ctfqmr_merge
libmagma_sparse.so:magma_ctfqmr_unrolled
libmagma_sparse.so:magma_cthrsholdrm_gpu
libmagma_sparse.so:magma_cvalinit_gpu
libmagma_sparse.so:magma_cvcopy
libmagma_sparse.so:magma_cvcopy_dev
libmagma_sparse.so:magma_cvget
libmagma_sparse.so:magma_cvget_dev
libmagma_sparse.so:magma_cvinit
libmagma_sparse.so:magma_cvinit_rand
libmagma_sparse.so:magma_cvread
libmagma_sparse.so:magma_cvset
libmagma_sparse.so:magma_cvset_dev
libmagma_sparse.so:magma_cvspread
libmagma_sparse.so:magma_cvtranspose
libmagma_sparse.so:magma_cwrite_csr_mtx
libmagma_sparse.so:magma_cwrite_csrtomtx
libmagma_sparse.so:magma_cwrite_vector
libmagma_sparse.so:magma_dKrylov_check
libmagma_sparse.so:magma_d_applyprecond
libmagma_sparse.so:magma_d_applyprecond_left
libmagma_sparse.so:magma_d_applyprecond_right
libmagma_sparse.so:magma_d_csr_compressor
libmagma_sparse.so:magma_d_csr_mtx
libmagma_sparse.so:magma_d_csr_mtxsymm
libmagma_sparse.so:magma_d_cucsrtranspose
libmagma_sparse.so:magma_d_precond
libmagma_sparse.so:magma_d_precondsetup
libmagma_sparse.so:magma_d_solver
libmagma_sparse.so:magma_d_spmm
libmagma_sparse.so:magma_d_spmv
libmagma_sparse.so:magma_d_spmv_shift
libmagma_sparse.so:magma_dapplycumicc_l
libmagma_sparse.so:magma_dapplycumicc_r
libmagma_sparse.so:magma_dapplycumilu_l
libmagma_sparse.so:magma_dapplycumilu_l_transpose
libmagma_sparse.so:magma_dapplycumilu_r
libmagma_sparse.so:magma_dapplycumilu_r_transpose
libmagma_sparse.so:magma_dapplycustomprecond_l
libmagma_sparse.so:magma_dapplycustomprecond_r
libmagma_sparse.so:magma_dapplyiteric_l
libmagma_sparse.so:magma_dapplyiteric_r
libmagma_sparse.so:magma_dbaiter
libmagma_sparse.so:magma_dbaiter_overlap
libmagma_sparse.so:magma_dbajac_csr
libmagma_sparse.so:magma_dbajac_csr_overlap
libmagma_sparse.so:magma_dbicg
libmagma_sparse.so:magma_dbicgmerge1
libmagma_sparse.so:magma_dbicgmerge2
libmagma_sparse.so:magma_dbicgmerge3
libmagma_sparse.so:magma_dbicgmerge4
libmagma_sparse.so:magma_dbicgmerge_spmv1
libmagma_sparse.so:magma_dbicgmerge_spmv2
libmagma_sparse.so:magma_dbicgmerge_xrbeta
libmagma_sparse.so:magma_dbicgstab
libmagma_sparse.so:magma_dbicgstab_1
libmagma_sparse.so:magma_dbicgstab_2
libmagma_sparse.so:magma_dbicgstab_3
libmagma_sparse.so:magma_dbicgstab_4
libmagma_sparse.so:magma_dbicgstab_merge
libmagma_sparse.so:magma_dbicgstab_merge2
libmagma_sparse.so:magma_dbicgstab_merge3
libmagma_sparse.so:magma_dbitonic_sort
libmagma_sparse.so:magma_dbombard
libmagma_sparse.so:magma_dbombard_merge
libmagma_sparse.so:magma_dbpcg
libmagma_sparse.so:magma_dcg
libmagma_sparse.so:magma_dcg_merge
libmagma_sparse.so:magma_dcg_res
libmagma_sparse.so:magma_dcgmerge_spmv1
libmagma_sparse.so:magma_dcgmerge_xrbeta
libmagma_sparse.so:magma_dcgs
libmagma_sparse.so:magma_dcgs_1
libmagma_sparse.so:magma_dcgs_2
libmagma_sparse.so:magma_dcgs_3
libmagma_sparse.so:magma_dcgs_4
libmagma_sparse.so:magma_dcgs_merge
libmagma_sparse.so:magma_dcompact
libmagma_sparse.so:magma_dcompactActive
libmagma_sparse.so:magma_dcopyscale
libmagma_sparse.so:magma_dcsr_sort
libmagma_sparse.so:magma_dcsr_sort_gpu
libmagma_sparse.so:magma_dcsrcoo_transpose
libmagma_sparse.so:magma_dcsrget
libmagma_sparse.so:magma_dcsrget_gpu
libmagma_sparse.so:magma_dcsrset
libmagma_sparse.so:magma_dcsrset_gpu
libmagma_sparse.so:magma_dcsrsplit
libmagma_sparse.so:magma_dcumiccsetup
libmagma_sparse.so:magma_dcumicgeneratesolverinfo
libmagma_sparse.so:magma_dcumilugeneratesolverinfo
libmagma_sparse.so:magma_dcumilusetup
libmagma_sparse.so:magma_dcumilusetup_transpose
libmagma_sparse.so:magma_dcuspaxpy
libmagma_sparse.so:magma_dcuspmm
libmagma_sparse.so:magma_dcustomicsetup
libmagma_sparse.so:magma_dcustomilusetup
libmagma_sparse.so:magma_dcustomspmv
libmagma_sparse.so:magma_ddiagcheck
libmagma_sparse.so:magma_ddiameter
libmagma_sparse.so:magma_ddimv
libmagma_sparse.so:magma_ddomainoverlap
libmagma_sparse.so:magma_deigensolverinfo_init
libmagma_sparse.so:magma_dfgmres
libmagma_sparse.so:magma_dfrobenius
libmagma_sparse.so:magma_dftjacobi
libmagma_sparse.so:magma_dftjacobicontractions
libmagma_sparse.so:magma_dftjacobiupdatecheck
libmagma_sparse.so:magma_dge3pt
libmagma_sparse.so:magma_dgeaxpy
libmagma_sparse.so:magma_dgecscsyncfreetrsm_analysis
libmagma_sparse.so:magma_dgecscsyncfreetrsm_solve
libmagma_sparse.so:magma_dgecsr5mv
libmagma_sparse.so:magma_dgecsrmv
libmagma_sparse.so:magma_dgecsrmv_shift
libmagma_sparse.so:magma_dgecsrreimsplit
libmagma_sparse.so:magma_dgedensereimsplit
libmagma_sparse.so:magma_dgeellmv
libmagma_sparse.so:magma_dgeellmv_shift
libmagma_sparse.so:magma_dgeellrtmv
libmagma_sparse.so:magma_dgeelltmv
libmagma_sparse.so:magma_dgeelltmv_shift
libmagma_sparse.so:magma_dgeisai_maxblock
libmagma_sparse.so:magma_dgemvmdot
libmagma_sparse.so:magma_dgemvmdot_shfl
libmagma_sparse.so:magma_dgesellcmv
libmagma_sparse.so:magma_dgesellpmv
libmagma_sparse.so:magma_dget_row_ptr
libmagma_sparse.so:magma_dicres
libmagma_sparse.so:magma_didr
libmagma_sparse.so:magma_didr_merge
libmagma_sparse.so:magma_didr_smoothing_1
libmagma_sparse.so:magma_didr_smoothing_2
libmagma_sparse.so:magma_didr_strms
libmagma_sparse.so:magma_diluisaisetup_lower
libmagma_sparse.so:magma_diluisaisetup_upper
libmagma_sparse.so:magma_dilures
libmagma_sparse.so:magma_dindexcopy
libmagma_sparse.so:magma_dindexinit_gpu
libmagma_sparse.so:magma_dindexsort
libmagma_sparse.so:magma_dindexsortval
libmagma_sparse.so:magma_dinitguess
libmagma_sparse.so:magma_dinitrecursiveLU
libmagma_sparse.so:magma_disai_generator_regs
libmagma_sparse.so:magma_disai_l
libmagma_sparse.so:magma_disai_l_t
libmagma_sparse.so:magma_disai_r
libmagma_sparse.so:magma_disai_r_t
libmagma_sparse.so:magma_diterref
libmagma_sparse.so:magma_djaccard_weights
libmagma_sparse.so:magma_djacobi
libmagma_sparse.so:magma_djacobi_diagscal
libmagma_sparse.so:magma_djacobidomainoverlap
libmagma_sparse.so:magma_djacobiiter
libmagma_sparse.so:magma_djacobiiter_precond
libmagma_sparse.so:magma_djacobiiter_sys
libmagma_sparse.so:magma_djacobisetup
libmagma_sparse.so:magma_djacobisetup_diagscal
libmagma_sparse.so:magma_djacobisetup_matrix
libmagma_sparse.so:magma_djacobisetup_vector
libmagma_sparse.so:magma_djacobisetup_vector_gpu
libmagma_sparse.so:magma_djacobispmvupdate
libmagma_sparse.so:magma_djacobispmvupdate_bw
libmagma_sparse.so:magma_djacobispmvupdateselect
libmagma_sparse.so:magma_djacobiupdate
libmagma_sparse.so:magma_djcgmerge_xrbeta
libmagma_sparse.so:magma_dlobpcg
libmagma_sparse.so:magma_dlobpcg_maxpy
libmagma_sparse.so:magma_dlobpcg_res
libmagma_sparse.so:magma_dlobpcg_shift
libmagma_sparse.so:magma_dlsqr
libmagma_sparse.so:magma_dmLdiagadd
libmagma_sparse.so:magma_dm_27stencil
libmagma_sparse.so:magma_dm_5stencil
libmagma_sparse.so:magma_dmatrix_abssum
libmagma_sparse.so:magma_dmatrix_addrowindex
libmagma_sparse.so:magma_dmatrix_cap
libmagma_sparse.so:magma_dmatrix_createrowptr
libmagma_sparse.so:magma_dmatrix_cup
libmagma_sparse.so:magma_dmatrix_cup_gpu
libmagma_sparse.so:magma_dmatrix_negcap
libmagma_sparse.so:magma_dmatrix_swap
libmagma_sparse.so:magma_dmatrix_tril
libmagma_sparse.so:magma_dmatrix_tril_negcap
libmagma_sparse.so:magma_dmatrix_triu
libmagma_sparse.so:magma_dmatrix_triu_negcap
libmagma_sparse.so:magma_dmbackinsert_batched
libmagma_sparse.so:magma_dmbdiagdom
libmagma_sparse.so:magma_dmconjugate
libmagma_sparse.so:magma_dmconvert
libmagma_sparse.so:magma_dmcsrcompressor
libmagma_sparse.so:magma_dmcsrcompressor_gpu
libmagma_sparse.so:magma_dmdiagadd
libmagma_sparse.so:magma_dmdiagdom
libmagma_sparse.so:magma_dmdiff
libmagma_sparse.so:magma_dmdotc
libmagma_sparse.so:magma_dmdotc1
libmagma_sparse.so:magma_dmdotc2
libmagma_sparse.so:magma_dmdotc3
libmagma_sparse.so:magma_dmdotc4
libmagma_sparse.so:magma_dmdotc_shfl
libmagma_sparse.so:magma_dmedian5
libmagma_sparse.so:magma_dmergeblockkrylov
libmagma_sparse.so:magma_dmfree
libmagma_sparse.so:magma_dmfrobenius
libmagma_sparse.so:magma_dmgecsrmv
libmagma_sparse.so:magma_dmgeellmv
libmagma_sparse.so:magma_dmgeelltmv
libmagma_sparse.so:magma_dmgenerator
libmagma_sparse.so:magma_dmgesellpmv
libmagma_sparse.so:magma_dmiluspai_sizecheck
libmagma_sparse.so:magma_dmisai_blockstruct
libmagma_sparse.so:magma_dmlumerge
libmagma_sparse.so:magma_dmorderstatistics
libmagma_sparse.so:magma_dmprepare_batched
libmagma_sparse.so:magma_dmscale
libmagma_sparse.so:magma_dmscale_apply
libmagma_sparse.so:magma_dmscale_generate
libmagma_sparse.so:magma_dmscale_matrix_rhs
libmagma_sparse.so:magma_dmshrink
libmagma_sparse.so:magma_dmslice
libmagma_sparse.so:magma_dmsort
libmagma_sparse.so:magma_dmsupernodal
libmagma_sparse.so:magma_dmtransfer
libmagma_sparse.so:magma_dmtranspose
libmagma_sparse.so:magma_dmtranspose_cpu
libmagma_sparse.so:magma_dmtransposeabs_cpu
libmagma_sparse.so:magma_dmtransposeconj_cpu
libmagma_sparse.so:magma_dmtransposeconjugate
libmagma_sparse.so:magma_dmtransposestruct_cpu
libmagma_sparse.so:magma_dmtrisolve_batched
libmagma_sparse.so:magma_dmtrisolve_batched_gpu
libmagma_sparse.so:magma_dmvarsizeblockstruct
libmagma_sparse.so:magma_dnonlinres
libmagma_sparse.so:magma_dnrm2scale
libmagma_sparse.so:magma_dorderstatistics
libmagma_sparse.so:magma_dorderstatistics_inc
libmagma_sparse.so:magma_dparic_cpu
libmagma_sparse.so:magma_dparic_csr
libmagma_sparse.so:magma_dparic_gpu
libmagma_sparse.so:magma_dparic_sweep
libmagma_sparse.so:magma_dparic_sweep_sync
libmagma_sparse.so:magma_dparicsetup
libmagma_sparse.so:magma_dparict
libmagma_sparse.so:magma_dparict_candidates
libmagma_sparse.so:magma_dparict_cpu
libmagma_sparse.so:magma_dparict_sweep_sync
libmagma_sparse.so:magma_dparicupdate
libmagma_sparse.so:magma_dparilu_cpu
libmagma_sparse.so:magma_dparilu_csr
libmagma_sparse.so:magma_dparilu_gpu
libmagma_sparse.so:magma_dparilu_sweep
libmagma_sparse.so:magma_dparilu_sweep_sync
libmagma_sparse.so:magma_dparilusetup
libmagma_sparse.so:magma_dparilut
libmagma_sparse.so:magma_dparilut_align_residuals
libmagma_sparse.so:magma_dparilut_candidates
libmagma_sparse.so:magma_dparilut_candidates_gpu
libmagma_sparse.so:magma_dparilut_candidates_semilinked
libmagma_sparse.so:magma_dparilut_colmajor
libmagma_sparse.so:magma_dparilut_colmajorup
libmagma_sparse.so:magma_dparilut_count
libmagma_sparse.so:magma_dparilut_cpu
libmagma_sparse.so:magma_dparilut_create_collinkedlist
libmagma_sparse.so:magma_dparilut_gpu
libmagma_sparse.so:magma_dparilut_gpu_nodp
libmagma_sparse.so:magma_dparilut_insert
libmagma_sparse.so:magma_dparilut_preselect
libmagma_sparse.so:magma_dparilut_preselect_scale
libmagma_sparse.so:magma_dparilut_reorder
libmagma_sparse.so:magma_dparilut_residuals
libmagma_sparse.so:magma_dparilut_residuals_gpu
libmagma_sparse.so:magma_dparilut_residuals_linkedlist
libmagma_sparse.so:magma_dparilut_residuals_list
libmagma_sparse.so:magma_dparilut_residuals_semilinked
libmagma_sparse.so:magma_dparilut_residuals_transpose
libmagma_sparse.so:magma_dparilut_rm_thrs
libmagma_sparse.so:magma_dparilut_rmselected
libmagma_sparse.so:magma_dparilut_select_candidates_L
libmagma_sparse.so:magma_dparilut_select_candidates_U
libmagma_sparse.so:magma_dparilut_selectoneperrow
libmagma_sparse.so:magma_dparilut_selectoneperrowthrs_lower
libmagma_sparse.so:magma_dparilut_selectoneperrowthrs_upper
libmagma_sparse.so:magma_dparilut_selecttwoperrow
libmagma_sparse.so:magma_dparilut_set_approx_thrs
libmagma_sparse.so:magma_dparilut_set_approx_thrs_inc
libmagma_sparse.so:magma_dparilut_set_exact_thrs
libmagma_sparse.so:magma_dparilut_set_thrs_L_scaled
libmagma_sparse.so:magma_dparilut_set_thrs_randomselect
libmagma_sparse.so:magma_dparilut_set_thrs_randomselect_approx
libmagma_sparse.so:magma_dparilut_set_thrs_randomselect_approx2
libmagma_sparse.so:magma_dparilut_set_thrs_randomselect_factors
libmagma_sparse.so:magma_dparilut_sweep
libmagma_sparse.so:magma_dparilut_sweep_gpu
libmagma_sparse.so:magma_dparilut_sweep_linkedlist
libmagma_sparse.so:magma_dparilut_sweep_list
libmagma_sparse.so:magma_dparilut_sweep_semilinked
libmagma_sparse.so:magma_dparilut_sweep_sync
libmagma_sparse.so:magma_dparilut_thrsrm
libmagma_sparse.so:magma_dparilut_thrsrm_U
libmagma_sparse.so:magma_dparilut_thrsrm_semilinked
libmagma_sparse.so:magma_dparilut_transpose
libmagma_sparse.so:magma_dparilut_transpose_select_one
libmagma_sparse.so:magma_dpariluupdate
libmagma_sparse.so:magma_dparse_opts
libmagma_sparse.so:magma_dpartition
libmagma_sparse.so:magma_dpbicg
libmagma_sparse.so:magma_dpbicgstab
libmagma_sparse.so:magma_dpbicgstab_merge
libmagma_sparse.so:magma_dpcg
libmagma_sparse.so:magma_dpcg_merge
libmagma_sparse.so:magma_dpcgmerge_xrbeta1
libmagma_sparse.so:magma_dpcgmerge_xrbeta2
libmagma_sparse.so:magma_dpcgs
libmagma_sparse.so:magma_dpcgs_merge
libmagma_sparse.so:magma_dpidr
libmagma_sparse.so:magma_dpidr_merge
libmagma_sparse.so:magma_dpidr_strms
libmagma_sparse.so:magma_dpqmr
libmagma_sparse.so:magma_dpqmr_merge
libmagma_sparse.so:magma_dprecondfree
libmagma_sparse.so:magma_dpreselect_gpu
libmagma_sparse.so:magma_dprint_csr
libmagma_sparse.so:magma_dprint_csr_mtx
libmagma_sparse.so:magma_dprint_matrix
libmagma_sparse.so:magma_dprint_vector
libmagma_sparse.so:magma_dptfqmr
libmagma_sparse.so:magma_dptfqmr_merge
libmagma_sparse.so:magma_dqmr
libmagma_sparse.so:magma_dqmr_1
libmagma_sparse.so:magma_dqmr_2
libmagma_sparse.so:magma_dqmr_3
libmagma_sparse.so:magma_dqmr_4
libmagma_sparse.so:magma_dqmr_5
libmagma_sparse.so:magma_dqmr_6
libmagma_sparse.so:magma_dqmr_7
libmagma_sparse.so:magma_dqmr_8
libmagma_sparse.so:magma_dqmr_merge
libmagma_sparse.so:magma_dqr
libmagma_sparse.so:magma_dresidual
libmagma_sparse.so:magma_dresidual_slice
libmagma_sparse.so:magma_dresidualvec
libmagma_sparse.so:magma_drowentries
libmagma_sparse.so:magma_dsampleselect
libmagma_sparse.so:magma_dsampleselect_approx
libmagma_sparse.so:magma_dsampleselect_approx_nodp
libmagma_sparse.so:magma_dsampleselect_nodp
libmagma_sparse.so:magma_dselect
libmagma_sparse.so:magma_dselectrandom
libmagma_sparse.so:magma_dsgecsrmv_mixed_prec
libmagma_sparse.so:magma_dsolverinfo
libmagma_sparse.so:magma_dsolverinfo_free
libmagma_sparse.so:magma_dsolverinfo_init
libmagma_sparse.so:magma_dsort
libmagma_sparse.so:magma_dsymbilu
libmagma_sparse.so:magma_dsymbolic_ilu
libmagma_sparse.so:magma_dtfqmr
libmagma_sparse.so:magma_dtfqmr_1
libmagma_sparse.so:magma_dtfqmr_2
libmagma_sparse.so:magma_dtfqmr_3
libmagma_sparse.so:magma_dtfqmr_4
libmagma_sparse.so:magma_dtfqmr_5
libmagma_sparse.so:magma_dtfqmr_merge
libmagma_sparse.so:magma_dtfqmr_unrolled
libmagma_sparse.so:magma_dthrsholdrm_gpu
libmagma_sparse.so:magma_dvalinit_gpu
libmagma_sparse.so:magma_dvcopy
libmagma_sparse.so:magma_dvcopy_dev
libmagma_sparse.so:magma_dvget
libmagma_sparse.so:magma_dvget_dev
libmagma_sparse.so:magma_dvinit
libmagma_sparse.so:magma_dvinit_rand
libmagma_sparse.so:magma_dvread
libmagma_sparse.so:magma_dvset
libmagma_sparse.so:magma_dvset_dev
libmagma_sparse.so:magma_dvspread
libmagma_sparse.so:magma_dvtranspose
libmagma_sparse.so:magma_dwrite_csr_mtx
libmagma_sparse.so:magma_dwrite_csrtomtx
libmagma_sparse.so:magma_dwrite_vector
libmagma_sparse.so:magma_dznrm2scale
libmagma_sparse.so:magma_sKrylov_check
libmagma_sparse.so:magma_s_applyprecond
libmagma_sparse.so:magma_s_applyprecond_left
libmagma_sparse.so:magma_s_applyprecond_right
libmagma_sparse.so:magma_s_csr_compressor
libmagma_sparse.so:magma_s_csr_mtx
libmagma_sparse.so:magma_s_csr_mtxsymm
libmagma_sparse.so:magma_s_cucsrtranspose
libmagma_sparse.so:magma_s_precond
libmagma_sparse.so:magma_s_precondsetup
libmagma_sparse.so:magma_s_solver
libmagma_sparse.so:magma_s_spmm
libmagma_sparse.so:magma_s_spmv
libmagma_sparse.so:magma_s_spmv_shift
libmagma_sparse.so:magma_sapplycumicc_l
libmagma_sparse.so:magma_sapplycumicc_r
libmagma_sparse.so:magma_sapplycumilu_l
libmagma_sparse.so:magma_sapplycumilu_l_transpose
libmagma_sparse.so:magma_sapplycumilu_r
libmagma_sparse.so:magma_sapplycumilu_r_transpose
libmagma_sparse.so:magma_sapplycustomprecond_l
libmagma_sparse.so:magma_sapplycustomprecond_r
libmagma_sparse.so:magma_sapplyiteric_l
libmagma_sparse.so:magma_sapplyiteric_r
libmagma_sparse.so:magma_sbaiter
libmagma_sparse.so:magma_sbaiter_overlap
libmagma_sparse.so:magma_sbajac_csr
libmagma_sparse.so:magma_sbajac_csr_overlap
libmagma_sparse.so:magma_sbicg
libmagma_sparse.so:magma_sbicgmerge1
libmagma_sparse.so:magma_sbicgmerge2
libmagma_sparse.so:magma_sbicgmerge3
libmagma_sparse.so:magma_sbicgmerge4
libmagma_sparse.so:magma_sbicgmerge_spmv1
libmagma_sparse.so:magma_sbicgmerge_spmv2
libmagma_sparse.so:magma_sbicgmerge_xrbeta
libmagma_sparse.so:magma_sbicgstab
libmagma_sparse.so:magma_sbicgstab_1
libmagma_sparse.so:magma_sbicgstab_2
libmagma_sparse.so:magma_sbicgstab_3
libmagma_sparse.so:magma_sbicgstab_4
libmagma_sparse.so:magma_sbicgstab_merge
libmagma_sparse.so:magma_sbicgstab_merge2
libmagma_sparse.so:magma_sbicgstab_merge3
libmagma_sparse.so:magma_sbitonic_sort
libmagma_sparse.so:magma_sbombard
libmagma_sparse.so:magma_sbombard_merge
libmagma_sparse.so:magma_sbpcg
libmagma_sparse.so:magma_scg
libmagma_sparse.so:magma_scg_merge
libmagma_sparse.so:magma_scg_res
libmagma_sparse.so:magma_scgmerge_spmv1
libmagma_sparse.so:magma_scgmerge_xrbeta
libmagma_sparse.so:magma_scgs
libmagma_sparse.so:magma_scgs_1
libmagma_sparse.so:magma_scgs_2
libmagma_sparse.so:magma_scgs_3
libmagma_sparse.so:magma_scgs_4
libmagma_sparse.so:magma_scgs_merge
libmagma_sparse.so:magma_scnrm2scale
libmagma_sparse.so:magma_scompact
libmagma_sparse.so:magma_scompactActive
libmagma_sparse.so:magma_scopyscale
libmagma_sparse.so:magma_scsr_sort
libmagma_sparse.so:magma_scsr_sort_gpu
libmagma_sparse.so:magma_scsrcoo_transpose
libmagma_sparse.so:magma_scsrget
libmagma_sparse.so:magma_scsrget_gpu
libmagma_sparse.so:magma_scsrset
libmagma_sparse.so:magma_scsrset_gpu
libmagma_sparse.so:magma_scsrsplit
libmagma_sparse.so:magma_scumiccsetup
libmagma_sparse.so:magma_scumicgeneratesolverinfo
libmagma_sparse.so:magma_scumilugeneratesolverinfo
libmagma_sparse.so:magma_scumilusetup
libmagma_sparse.so:magma_scumilusetup_transpose
libmagma_sparse.so:magma_scuspaxpy
libmagma_sparse.so:magma_scuspmm
libmagma_sparse.so:magma_scustomicsetup
libmagma_sparse.so:magma_scustomilusetup
libmagma_sparse.so:magma_scustomspmv
libmagma_sparse.so:magma_sdiagcheck
libmagma_sparse.so:magma_sdiameter
libmagma_sparse.so:magma_sdimv
libmagma_sparse.so:magma_sdomainoverlap
libmagma_sparse.so:magma_seigensolverinfo_init
libmagma_sparse.so:magma_sfgmres
libmagma_sparse.so:magma_sfrobenius
libmagma_sparse.so:magma_sftjacobi
libmagma_sparse.so:magma_sftjacobicontractions
libmagma_sparse.so:magma_sftjacobiupdatecheck
libmagma_sparse.so:magma_sge3pt
libmagma_sparse.so:magma_sgeaxpy
libmagma_sparse.so:magma_sgecscsyncfreetrsm_analysis
libmagma_sparse.so:magma_sgecscsyncfreetrsm_solve
libmagma_sparse.so:magma_sgecsr5mv
libmagma_sparse.so:magma_sgecsrmv
libmagma_sparse.so:magma_sgecsrmv_shift
libmagma_sparse.so:magma_sgecsrreimsplit
libmagma_sparse.so:magma_sgedensereimsplit
libmagma_sparse.so:magma_sgeellmv
libmagma_sparse.so:magma_sgeellmv_shift
libmagma_sparse.so:magma_sgeellrtmv
libmagma_sparse.so:magma_sgeelltmv
libmagma_sparse.so:magma_sgeelltmv_shift
libmagma_sparse.so:magma_sgeisai_maxblock
libmagma_sparse.so:magma_sgemvmdot
libmagma_sparse.so:magma_sgemvmdot_shfl
libmagma_sparse.so:magma_sgesellcmv
libmagma_sparse.so:magma_sgesellpmv
libmagma_sparse.so:magma_sget_row_ptr
libmagma_sparse.so:magma_sicres
libmagma_sparse.so:magma_sidr
libmagma_sparse.so:magma_sidr_merge
libmagma_sparse.so:magma_sidr_smoothing_1
libmagma_sparse.so:magma_sidr_smoothing_2
libmagma_sparse.so:magma_sidr_strms
libmagma_sparse.so:magma_siluisaisetup_lower
libmagma_sparse.so:magma_siluisaisetup_upper
libmagma_sparse.so:magma_silures
libmagma_sparse.so:magma_sindexcopy
libmagma_sparse.so:magma_sindexinit_gpu
libmagma_sparse.so:magma_sindexsort
libmagma_sparse.so:magma_sindexsortval
libmagma_sparse.so:magma_sinitguess
libmagma_sparse.so:magma_sinitrecursiveLU
libmagma_sparse.so:magma_sisai_generator_regs
libmagma_sparse.so:magma_sisai_l
libmagma_sparse.so:magma_sisai_l_t
libmagma_sparse.so:magma_sisai_r
libmagma_sparse.so:magma_sisai_r_t
libmagma_sparse.so:magma_siterref
libmagma_sparse.so:magma_sjaccard_weights
libmagma_sparse.so:magma_sjacobi
libmagma_sparse.so:magma_sjacobi_diagscal
libmagma_sparse.so:magma_sjacobidomainoverlap
libmagma_sparse.so:magma_sjacobiiter
libmagma_sparse.so:magma_sjacobiiter_precond
libmagma_sparse.so:magma_sjacobiiter_sys
libmagma_sparse.so:magma_sjacobisetup
libmagma_sparse.so:magma_sjacobisetup_diagscal
libmagma_sparse.so:magma_sjacobisetup_matrix
libmagma_sparse.so:magma_sjacobisetup_vector
libmagma_sparse.so:magma_sjacobisetup_vector_gpu
libmagma_sparse.so:magma_sjacobispmvupdate
libmagma_sparse.so:magma_sjacobispmvupdate_bw
libmagma_sparse.so:magma_sjacobispmvupdateselect
libmagma_sparse.so:magma_sjacobiupdate
libmagma_sparse.so:magma_sjcgmerge_xrbeta
libmagma_sparse.so:magma_slobpcg
libmagma_sparse.so:magma_slobpcg_maxpy
libmagma_sparse.so:magma_slobpcg_res
libmagma_sparse.so:magma_slobpcg_shift
libmagma_sparse.so:magma_slsqr
libmagma_sparse.so:magma_smLdiagadd
libmagma_sparse.so:magma_sm_27stencil
libmagma_sparse.so:magma_sm_5stencil
libmagma_sparse.so:magma_smatrix_abssum
libmagma_sparse.so:magma_smatrix_addrowindex
libmagma_sparse.so:magma_smatrix_cap
libmagma_sparse.so:magma_smatrix_createrowptr
libmagma_sparse.so:magma_smatrix_cup
libmagma_sparse.so:magma_smatrix_cup_gpu
libmagma_sparse.so:magma_smatrix_negcap
libmagma_sparse.so:magma_smatrix_swap
libmagma_sparse.so:magma_smatrix_tril
libmagma_sparse.so:magma_smatrix_tril_negcap
libmagma_sparse.so:magma_smatrix_triu
libmagma_sparse.so:magma_smatrix_triu_negcap
libmagma_sparse.so:magma_smbackinsert_batched
libmagma_sparse.so:magma_smbdiagdom
libmagma_sparse.so:magma_smconjugate
libmagma_sparse.so:magma_smconvert
libmagma_sparse.so:magma_smcsrcompressor
libmagma_sparse.so:magma_smcsrcompressor_gpu
libmagma_sparse.so:magma_smdiagadd
libmagma_sparse.so:magma_smdiagdom
libmagma_sparse.so:magma_smdiff
libmagma_sparse.so:magma_smdotc
libmagma_sparse.so:magma_smdotc1
libmagma_sparse.so:magma_smdotc2
libmagma_sparse.so:magma_smdotc3
libmagma_sparse.so:magma_smdotc4
libmagma_sparse.so:magma_smdotc_shfl
libmagma_sparse.so:magma_smedian5
libmagma_sparse.so:magma_smergeblockkrylov
libmagma_sparse.so:magma_smfree
libmagma_sparse.so:magma_smfrobenius
libmagma_sparse.so:magma_smgecsrmv
libmagma_sparse.so:magma_smgeellmv
libmagma_sparse.so:magma_smgeelltmv
libmagma_sparse.so:magma_smgenerator
libmagma_sparse.so:magma_smgesellpmv
libmagma_sparse.so:magma_smiluspai_sizecheck
libmagma_sparse.so:magma_smisai_blockstruct
libmagma_sparse.so:magma_smlumerge
libmagma_sparse.so:magma_smorderstatistics
libmagma_sparse.so:magma_smprepare_batched
libmagma_sparse.so:magma_smscale
libmagma_sparse.so:magma_smscale_apply
libmagma_sparse.so:magma_smscale_generate
libmagma_sparse.so:magma_smscale_matrix_rhs
libmagma_sparse.so:magma_smshrink
libmagma_sparse.so:magma_smslice
libmagma_sparse.so:magma_smsort
libmagma_sparse.so:magma_smsupernodal
libmagma_sparse.so:magma_smtransfer
libmagma_sparse.so:magma_smtranspose
libmagma_sparse.so:magma_smtranspose_cpu
libmagma_sparse.so:magma_smtransposeabs_cpu
libmagma_sparse.so:magma_smtransposeconj_cpu
libmagma_sparse.so:magma_smtransposeconjugate
libmagma_sparse.so:magma_smtransposestruct_cpu
libmagma_sparse.so:magma_smtrisolve_batched
libmagma_sparse.so:magma_smtrisolve_batched_gpu
libmagma_sparse.so:magma_smvarsizeblockstruct
libmagma_sparse.so:magma_snonlinres
libmagma_sparse.so:magma_snrm2scale
libmagma_sparse.so:magma_sorderstatistics
libmagma_sparse.so:magma_sorderstatistics_inc
libmagma_sparse.so:magma_sparic_cpu
libmagma_sparse.so:magma_sparic_csr
libmagma_sparse.so:magma_sparic_gpu
libmagma_sparse.so:magma_sparic_sweep
libmagma_sparse.so:magma_sparic_sweep_sync
libmagma_sparse.so:magma_sparicsetup
libmagma_sparse.so:magma_sparict
libmagma_sparse.so:magma_sparict_candidates
libmagma_sparse.so:magma_sparict_cpu
libmagma_sparse.so:magma_sparict_sweep_sync
libmagma_sparse.so:magma_sparicupdate
libmagma_sparse.so:magma_sparilu_cpu
libmagma_sparse.so:magma_sparilu_csr
libmagma_sparse.so:magma_sparilu_gpu
libmagma_sparse.so:magma_sparilu_sweep
libmagma_sparse.so:magma_sparilu_sweep_sync
libmagma_sparse.so:magma_sparilusetup
libmagma_sparse.so:magma_sparilut
libmagma_sparse.so:magma_sparilut_align_residuals
libmagma_sparse.so:magma_sparilut_candidates
libmagma_sparse.so:magma_sparilut_candidates_gpu
libmagma_sparse.so:magma_sparilut_candidates_semilinked
libmagma_sparse.so:magma_sparilut_colmajor
libmagma_sparse.so:magma_sparilut_colmajorup
libmagma_sparse.so:magma_sparilut_count
libmagma_sparse.so:magma_sparilut_cpu
libmagma_sparse.so:magma_sparilut_create_collinkedlist
libmagma_sparse.so:magma_sparilut_gpu
libmagma_sparse.so:magma_sparilut_gpu_nodp
libmagma_sparse.so:magma_sparilut_insert
libmagma_sparse.so:magma_sparilut_preselect
libmagma_sparse.so:magma_sparilut_preselect_scale
libmagma_sparse.so:magma_sparilut_reorder
libmagma_sparse.so:magma_sparilut_residuals
libmagma_sparse.so:magma_sparilut_residuals_gpu
libmagma_sparse.so:magma_sparilut_residuals_linkedlist
libmagma_sparse.so:magma_sparilut_residuals_list
libmagma_sparse.so:magma_sparilut_residuals_semilinked
libmagma_sparse.so:magma_sparilut_residuals_transpose
libmagma_sparse.so:magma_sparilut_rm_thrs
libmagma_sparse.so:magma_sparilut_rmselected
libmagma_sparse.so:magma_sparilut_select_candidates_L
libmagma_sparse.so:magma_sparilut_select_candidates_U
libmagma_sparse.so:magma_sparilut_selectoneperrow
libmagma_sparse.so:magma_sparilut_selectoneperrowthrs_lower
libmagma_sparse.so:magma_sparilut_selectoneperrowthrs_upper
libmagma_sparse.so:magma_sparilut_selecttwoperrow
libmagma_sparse.so:magma_sparilut_set_approx_thrs
libmagma_sparse.so:magma_sparilut_set_approx_thrs_inc
libmagma_sparse.so:magma_sparilut_set_exact_thrs
libmagma_sparse.so:magma_sparilut_set_thrs_L_scaled
libmagma_sparse.so:magma_sparilut_set_thrs_randomselect
libmagma_sparse.so:magma_sparilut_set_thrs_randomselect_approx
libmagma_sparse.so:magma_sparilut_set_thrs_randomselect_approx2
libmagma_sparse.so:magma_sparilut_set_thrs_randomselect_factors
libmagma_sparse.so:magma_sparilut_sweep
libmagma_sparse.so:magma_sparilut_sweep_gpu
libmagma_sparse.so:magma_sparilut_sweep_linkedlist
libmagma_sparse.so:magma_sparilut_sweep_list
libmagma_sparse.so:magma_sparilut_sweep_semilinked
libmagma_sparse.so:magma_sparilut_sweep_sync
libmagma_sparse.so:magma_sparilut_thrsrm
libmagma_sparse.so:magma_sparilut_thrsrm_U
libmagma_sparse.so:magma_sparilut_thrsrm_semilinked
libmagma_sparse.so:magma_sparilut_transpose
libmagma_sparse.so:magma_sparilut_transpose_select_one
libmagma_sparse.so:magma_spariluupdate
libmagma_sparse.so:magma_sparse_opts
libmagma_sparse.so:magma_spartition
libmagma_sparse.so:magma_spbicg
libmagma_sparse.so:magma_spbicgstab
libmagma_sparse.so:magma_spbicgstab_merge
libmagma_sparse.so:magma_spcg
libmagma_sparse.so:magma_spcg_merge
libmagma_sparse.so:magma_spcgmerge_xrbeta1
libmagma_sparse.so:magma_spcgmerge_xrbeta2
libmagma_sparse.so:magma_spcgs
libmagma_sparse.so:magma_spcgs_merge
libmagma_sparse.so:magma_spidr
libmagma_sparse.so:magma_spidr_merge
libmagma_sparse.so:magma_spidr_strms
libmagma_sparse.so:magma_spqmr
libmagma_sparse.so:magma_spqmr_merge
libmagma_sparse.so:magma_sprecondfree
libmagma_sparse.so:magma_spreselect_gpu
libmagma_sparse.so:magma_sprint_csr
libmagma_sparse.so:magma_sprint_csr_mtx
libmagma_sparse.so:magma_sprint_matrix
libmagma_sparse.so:magma_sprint_vector
libmagma_sparse.so:magma_sptfqmr
libmagma_sparse.so:magma_sptfqmr_merge
libmagma_sparse.so:magma_sqmr
libmagma_sparse.so:magma_sqmr_1
libmagma_sparse.so:magma_sqmr_2
libmagma_sparse.so:magma_sqmr_3
libmagma_sparse.so:magma_sqmr_4
libmagma_sparse.so:magma_sqmr_5
libmagma_sparse.so:magma_sqmr_6
libmagma_sparse.so:magma_sqmr_7
libmagma_sparse.so:magma_sqmr_8
libmagma_sparse.so:magma_sqmr_merge
libmagma_sparse.so:magma_sqr
libmagma_sparse.so:magma_sresidual
libmagma_sparse.so:magma_sresidual_slice
libmagma_sparse.so:magma_sresidualvec
libmagma_sparse.so:magma_srowentries
libmagma_sparse.so:magma_ssampleselect
libmagma_sparse.so:magma_ssampleselect_approx
libmagma_sparse.so:magma_ssampleselect_approx_nodp
libmagma_sparse.so:magma_ssampleselect_nodp
libmagma_sparse.so:magma_sselect
libmagma_sparse.so:magma_sselectrandom
libmagma_sparse.so:magma_ssolverinfo
libmagma_sparse.so:magma_ssolverinfo_free
libmagma_sparse.so:magma_ssolverinfo_init
libmagma_sparse.so:magma_ssort
libmagma_sparse.so:magma_ssymbilu
libmagma_sparse.so:magma_ssymbolic_ilu
libmagma_sparse.so:magma_stfqmr
libmagma_sparse.so:magma_stfqmr_1
libmagma_sparse.so:magma_stfqmr_2
libmagma_sparse.so:magma_stfqmr_3
libmagma_sparse.so:magma_stfqmr_4
libmagma_sparse.so:magma_stfqmr_5
libmagma_sparse.so:magma_stfqmr_merge
libmagma_sparse.so:magma_stfqmr_unrolled
libmagma_sparse.so:magma_sthrsholdrm_gpu
libmagma_sparse.so:magma_svalinit_gpu
libmagma_sparse.so:magma_svcopy
libmagma_sparse.so:magma_svcopy_dev
libmagma_sparse.so:magma_svget
libmagma_sparse.so:magma_svget_dev
libmagma_sparse.so:magma_svinit
libmagma_sparse.so:magma_svinit_rand
libmagma_sparse.so:magma_svread
libmagma_sparse.so:magma_svset
libmagma_sparse.so:magma_svset_dev
libmagma_sparse.so:magma_svspread
libmagma_sparse.so:magma_svtranspose
libmagma_sparse.so:magma_swrite_csr_mtx
libmagma_sparse.so:magma_swrite_csrtomtx
libmagma_sparse.so:magma_swrite_vector
libmagma_sparse.so:magma_zKrylov_check
libmagma_sparse.so:magma_z_applyprecond
libmagma_sparse.so:magma_z_applyprecond_left
libmagma_sparse.so:magma_z_applyprecond_right
libmagma_sparse.so:magma_z_csr_compressor
libmagma_sparse.so:magma_z_csr_mtx
libmagma_sparse.so:magma_z_csr_mtxsymm
libmagma_sparse.so:magma_z_cucsrtranspose
libmagma_sparse.so:magma_z_precond
libmagma_sparse.so:magma_z_precondsetup
libmagma_sparse.so:magma_z_solver
libmagma_sparse.so:magma_z_spmm
libmagma_sparse.so:magma_z_spmv
libmagma_sparse.so:magma_z_spmv_shift
libmagma_sparse.so:magma_zapplycumicc_l
libmagma_sparse.so:magma_zapplycumicc_r
libmagma_sparse.so:magma_zapplycumilu_l
libmagma_sparse.so:magma_zapplycumilu_l_transpose
libmagma_sparse.so:magma_zapplycumilu_r
libmagma_sparse.so:magma_zapplycumilu_r_transpose
libmagma_sparse.so:magma_zapplycustomprecond_l
libmagma_sparse.so:magma_zapplycustomprecond_r
libmagma_sparse.so:magma_zapplyiteric_l
libmagma_sparse.so:magma_zapplyiteric_r
libmagma_sparse.so:magma_zbaiter
libmagma_sparse.so:magma_zbaiter_overlap
libmagma_sparse.so:magma_zbajac_csr
libmagma_sparse.so:magma_zbajac_csr_overlap
libmagma_sparse.so:magma_zbicg
libmagma_sparse.so:magma_zbicgmerge1
libmagma_sparse.so:magma_zbicgmerge2
libmagma_sparse.so:magma_zbicgmerge3
libmagma_sparse.so:magma_zbicgmerge4
libmagma_sparse.so:magma_zbicgmerge_spmv1
libmagma_sparse.so:magma_zbicgmerge_spmv2
libmagma_sparse.so:magma_zbicgmerge_xrbeta
libmagma_sparse.so:magma_zbicgstab
libmagma_sparse.so:magma_zbicgstab_1
libmagma_sparse.so:magma_zbicgstab_2
libmagma_sparse.so:magma_zbicgstab_3
libmagma_sparse.so:magma_zbicgstab_4
libmagma_sparse.so:magma_zbicgstab_merge
libmagma_sparse.so:magma_zbicgstab_merge2
libmagma_sparse.so:magma_zbicgstab_merge3
libmagma_sparse.so:magma_zbitonic_sort
libmagma_sparse.so:magma_zbombard
libmagma_sparse.so:magma_zbombard_merge
libmagma_sparse.so:magma_zbpcg
libmagma_sparse.so:magma_zcg
libmagma_sparse.so:magma_zcg_merge
libmagma_sparse.so:magma_zcg_res
libmagma_sparse.so:magma_zcgecsrmv_mixed_prec
libmagma_sparse.so:magma_zcgmerge_spmv1
libmagma_sparse.so:magma_zcgmerge_xrbeta
libmagma_sparse.so:magma_zcgs
libmagma_sparse.so:magma_zcgs_1
libmagma_sparse.so:magma_zcgs_2
libmagma_sparse.so:magma_zcgs_3
libmagma_sparse.so:magma_zcgs_4
libmagma_sparse.so:magma_zcgs_merge
libmagma_sparse.so:magma_zcompact
libmagma_sparse.so:magma_zcompactActive
libmagma_sparse.so:magma_zcopyscale
libmagma_sparse.so:magma_zcsr_sort
libmagma_sparse.so:magma_zcsr_sort_gpu
libmagma_sparse.so:magma_zcsrcoo_transpose
libmagma_sparse.so:magma_zcsrget
libmagma_sparse.so:magma_zcsrget_gpu
libmagma_sparse.so:magma_zcsrset
libmagma_sparse.so:magma_zcsrset_gpu
libmagma_sparse.so:magma_zcsrsplit
libmagma_sparse.so:magma_zcumiccsetup
libmagma_sparse.so:magma_zcumicgeneratesolverinfo
libmagma_sparse.so:magma_zcumilugeneratesolverinfo
libmagma_sparse.so:magma_zcumilusetup
libmagma_sparse.so:magma_zcumilusetup_transpose
libmagma_sparse.so:magma_zcuspaxpy
libmagma_sparse.so:magma_zcuspmm
libmagma_sparse.so:magma_zcustomicsetup
libmagma_sparse.so:magma_zcustomilusetup
libmagma_sparse.so:magma_zcustomspmv
libmagma_sparse.so:magma_zdiagcheck
libmagma_sparse.so:magma_zdiameter
libmagma_sparse.so:magma_zdimv
libmagma_sparse.so:magma_zdomainoverlap
libmagma_sparse.so:magma_zeigensolverinfo_init
libmagma_sparse.so:magma_zfgmres
libmagma_sparse.so:magma_zfrobenius
libmagma_sparse.so:magma_zftjacobi
libmagma_sparse.so:magma_zftjacobicontractions
libmagma_sparse.so:magma_zftjacobiupdatecheck
libmagma_sparse.so:magma_zge3pt
libmagma_sparse.so:magma_zgeaxpy
libmagma_sparse.so:magma_zgecscsyncfreetrsm_analysis
libmagma_sparse.so:magma_zgecscsyncfreetrsm_solve
libmagma_sparse.so:magma_zgecsr5mv
libmagma_sparse.so:magma_zgecsrmv
libmagma_sparse.so:magma_zgecsrmv_shift
libmagma_sparse.so:magma_zgecsrreimsplit
libmagma_sparse.so:magma_zgedensereimsplit
libmagma_sparse.so:magma_zgeellmv
libmagma_sparse.so:magma_zgeellmv_shift
libmagma_sparse.so:magma_zgeellrtmv
libmagma_sparse.so:magma_zgeelltmv
libmagma_sparse.so:magma_zgeelltmv_shift
libmagma_sparse.so:magma_zgeisai_maxblock
libmagma_sparse.so:magma_zgemvmdot
libmagma_sparse.so:magma_zgemvmdot_shfl
libmagma_sparse.so:magma_zgesellcmv
libmagma_sparse.so:magma_zgesellpmv
libmagma_sparse.so:magma_zget_row_ptr
libmagma_sparse.so:magma_zicres
libmagma_sparse.so:magma_zidr
libmagma_sparse.so:magma_zidr_merge
libmagma_sparse.so:magma_zidr_smoothing_1
libmagma_sparse.so:magma_zidr_smoothing_2
libmagma_sparse.so:magma_zidr_strms
libmagma_sparse.so:magma_ziluisaisetup_lower
libmagma_sparse.so:magma_ziluisaisetup_upper
libmagma_sparse.so:magma_zilures
libmagma_sparse.so:magma_zindexcopy
libmagma_sparse.so:magma_zindexinit_gpu
libmagma_sparse.so:magma_zindexsort
libmagma_sparse.so:magma_zindexsortval
libmagma_sparse.so:magma_zinitguess
libmagma_sparse.so:magma_zinitrecursiveLU
libmagma_sparse.so:magma_zisai_generator_regs
libmagma_sparse.so:magma_zisai_l
libmagma_sparse.so:magma_zisai_l_t
libmagma_sparse.so:magma_zisai_r
libmagma_sparse.so:magma_zisai_r_t
libmagma_sparse.so:magma_ziterref
libmagma_sparse.so:magma_zjaccard_weights
libmagma_sparse.so:magma_zjacobi
libmagma_sparse.so:magma_zjacobi_diagscal
libmagma_sparse.so:magma_zjacobidomainoverlap
libmagma_sparse.so:magma_zjacobiiter
libmagma_sparse.so:magma_zjacobiiter_precond
libmagma_sparse.so:magma_zjacobiiter_sys
libmagma_sparse.so:magma_zjacobisetup
libmagma_sparse.so:magma_zjacobisetup_diagscal
libmagma_sparse.so:magma_zjacobisetup_matrix
libmagma_sparse.so:magma_zjacobisetup_vector
libmagma_sparse.so:magma_zjacobisetup_vector_gpu
libmagma_sparse.so:magma_zjacobispmvupdate
libmagma_sparse.so:magma_zjacobispmvupdate_bw
libmagma_sparse.so:magma_zjacobispmvupdateselect
libmagma_sparse.so:magma_zjacobiupdate
libmagma_sparse.so:magma_zjcgmerge_xrbeta
libmagma_sparse.so:magma_zlobpcg
libmagma_sparse.so:magma_zlobpcg_maxpy
libmagma_sparse.so:magma_zlobpcg_res
libmagma_sparse.so:magma_zlobpcg_shift
libmagma_sparse.so:magma_zlsqr
libmagma_sparse.so:magma_zmLdiagadd
libmagma_sparse.so:magma_zm_27stencil
libmagma_sparse.so:magma_zm_5stencil
libmagma_sparse.so:magma_zmatrix_abssum
libmagma_sparse.so:magma_zmatrix_addrowindex
libmagma_sparse.so:magma_zmatrix_cap
libmagma_sparse.so:magma_zmatrix_createrowptr
libmagma_sparse.so:magma_zmatrix_cup
libmagma_sparse.so:magma_zmatrix_cup_gpu
libmagma_sparse.so:magma_zmatrix_negcap
libmagma_sparse.so:magma_zmatrix_swap
libmagma_sparse.so:magma_zmatrix_tril
libmagma_sparse.so:magma_zmatrix_tril_negcap
libmagma_sparse.so:magma_zmatrix_triu
libmagma_sparse.so:magma_zmatrix_triu_negcap
libmagma_sparse.so:magma_zmbackinsert_batched
libmagma_sparse.so:magma_zmbdiagdom
libmagma_sparse.so:magma_zmconjugate
libmagma_sparse.so:magma_zmconvert
libmagma_sparse.so:magma_zmcsrcompressor
libmagma_sparse.so:magma_zmcsrcompressor_gpu
libmagma_sparse.so:magma_zmdiagadd
libmagma_sparse.so:magma_zmdiagdom
libmagma_sparse.so:magma_zmdiff
libmagma_sparse.so:magma_zmdotc
libmagma_sparse.so:magma_zmdotc1
libmagma_sparse.so:magma_zmdotc2
libmagma_sparse.so:magma_zmdotc3
libmagma_sparse.so:magma_zmdotc4
libmagma_sparse.so:magma_zmdotc_shfl
libmagma_sparse.so:magma_zmedian5
libmagma_sparse.so:magma_zmergeblockkrylov
libmagma_sparse.so:magma_zmfree
libmagma_sparse.so:magma_zmfrobenius
libmagma_sparse.so:magma_zmgecsrmv
libmagma_sparse.so:magma_zmgeellmv
libmagma_sparse.so:magma_zmgeelltmv
libmagma_sparse.so:magma_zmgenerator
libmagma_sparse.so:magma_zmgesellpmv
libmagma_sparse.so:magma_zmiluspai_sizecheck
libmagma_sparse.so:magma_zmisai_blockstruct
libmagma_sparse.so:magma_zmlumerge
libmagma_sparse.so:magma_zmorderstatistics
libmagma_sparse.so:magma_zmprepare_batched
libmagma_sparse.so:magma_zmscale
libmagma_sparse.so:magma_zmscale_apply
libmagma_sparse.so:magma_zmscale_generate
libmagma_sparse.so:magma_zmscale_matrix_rhs
libmagma_sparse.so:magma_zmshrink
libmagma_sparse.so:magma_zmslice
libmagma_sparse.so:magma_zmsort
libmagma_sparse.so:magma_zmsupernodal
libmagma_sparse.so:magma_zmtransfer
libmagma_sparse.so:magma_zmtranspose
libmagma_sparse.so:magma_zmtranspose_cpu
libmagma_sparse.so:magma_zmtransposeabs_cpu
libmagma_sparse.so:magma_zmtransposeconj_cpu
libmagma_sparse.so:magma_zmtransposeconjugate
libmagma_sparse.so:magma_zmtransposestruct_cpu
libmagma_sparse.so:magma_zmtrisolve_batched
libmagma_sparse.so:magma_zmtrisolve_batched_gpu
libmagma_sparse.so:magma_zmvarsizeblockstruct
libmagma_sparse.so:magma_znonlinres
libmagma_sparse.so:magma_zorderstatistics
libmagma_sparse.so:magma_zorderstatistics_inc
libmagma_sparse.so:magma_zparic_cpu
libmagma_sparse.so:magma_zparic_csr
libmagma_sparse.so:magma_zparic_gpu
libmagma_sparse.so:magma_zparic_sweep
libmagma_sparse.so:magma_zparic_sweep_sync
libmagma_sparse.so:magma_zparicsetup
libmagma_sparse.so:magma_zparict
libmagma_sparse.so:magma_zparict_candidates
libmagma_sparse.so:magma_zparict_cpu
libmagma_sparse.so:magma_zparict_sweep_sync
libmagma_sparse.so:magma_zparicupdate
libmagma_sparse.so:magma_zparilu_cpu
libmagma_sparse.so:magma_zparilu_csr
libmagma_sparse.so:magma_zparilu_gpu
libmagma_sparse.so:magma_zparilu_sweep
libmagma_sparse.so:magma_zparilu_sweep_sync
libmagma_sparse.so:magma_zparilusetup
libmagma_sparse.so:magma_zparilut
libmagma_sparse.so:magma_zparilut_align_residuals
libmagma_sparse.so:magma_zparilut_candidates
libmagma_sparse.so:magma_zparilut_candidates_gpu
libmagma_sparse.so:magma_zparilut_candidates_semilinked
libmagma_sparse.so:magma_zparilut_colmajor
libmagma_sparse.so:magma_zparilut_colmajorup
libmagma_sparse.so:magma_zparilut_count
libmagma_sparse.so:magma_zparilut_cpu
libmagma_sparse.so:magma_zparilut_create_collinkedlist
libmagma_sparse.so:magma_zparilut_gpu
libmagma_sparse.so:magma_zparilut_gpu_nodp
libmagma_sparse.so:magma_zparilut_insert
libmagma_sparse.so:magma_zparilut_preselect
libmagma_sparse.so:magma_zparilut_preselect_scale
libmagma_sparse.so:magma_zparilut_reorder
libmagma_sparse.so:magma_zparilut_residuals
libmagma_sparse.so:magma_zparilut_residuals_gpu
libmagma_sparse.so:magma_zparilut_residuals_linkedlist
libmagma_sparse.so:magma_zparilut_residuals_list
libmagma_sparse.so:magma_zparilut_residuals_semilinked
libmagma_sparse.so:magma_zparilut_residuals_transpose
libmagma_sparse.so:magma_zparilut_rm_thrs
libmagma_sparse.so:magma_zparilut_rmselected
libmagma_sparse.so:magma_zparilut_select_candidates_L
libmagma_sparse.so:magma_zparilut_select_candidates_U
libmagma_sparse.so:magma_zparilut_selectoneperrow
libmagma_sparse.so:magma_zparilut_selectoneperrowthrs_lower
libmagma_sparse.so:magma_zparilut_selectoneperrowthrs_upper
libmagma_sparse.so:magma_zparilut_selecttwoperrow
libmagma_sparse.so:magma_zparilut_set_approx_thrs
libmagma_sparse.so:magma_zparilut_set_approx_thrs_inc
libmagma_sparse.so:magma_zparilut_set_exact_thrs
libmagma_sparse.so:magma_zparilut_set_thrs_L_scaled
libmagma_sparse.so:magma_zparilut_set_thrs_randomselect
libmagma_sparse.so:magma_zparilut_set_thrs_randomselect_approx
libmagma_sparse.so:magma_zparilut_set_thrs_randomselect_approx2
libmagma_sparse.so:magma_zparilut_set_thrs_randomselect_factors
libmagma_sparse.so:magma_zparilut_sweep
libmagma_sparse.so:magma_zparilut_sweep_gpu
libmagma_sparse.so:magma_zparilut_sweep_linkedlist
libmagma_sparse.so:magma_zparilut_sweep_list
libmagma_sparse.so:magma_zparilut_sweep_semilinked
libmagma_sparse.so:magma_zparilut_sweep_sync
libmagma_sparse.so:magma_zparilut_thrsrm
libmagma_sparse.so:magma_zparilut_thrsrm_U
libmagma_sparse.so:magma_zparilut_thrsrm_semilinked
libmagma_sparse.so:magma_zparilut_transpose
libmagma_sparse.so:magma_zparilut_transpose_select_one
libmagma_sparse.so:magma_zpariluupdate
libmagma_sparse.so:magma_zparse_opts
libmagma_sparse.so:magma_zpartition
libmagma_sparse.so:magma_zpbicg
libmagma_sparse.so:magma_zpbicgstab
libmagma_sparse.so:magma_zpbicgstab_merge
libmagma_sparse.so:magma_zpcg
libmagma_sparse.so:magma_zpcg_merge
libmagma_sparse.so:magma_zpcgmerge_xrbeta1
libmagma_sparse.so:magma_zpcgmerge_xrbeta2
libmagma_sparse.so:magma_zpcgs
libmagma_sparse.so:magma_zpcgs_merge
libmagma_sparse.so:magma_zpidr
libmagma_sparse.so:magma_zpidr_merge
libmagma_sparse.so:magma_zpidr_strms
libmagma_sparse.so:magma_zpqmr
libmagma_sparse.so:magma_zpqmr_merge
libmagma_sparse.so:magma_zprecondfree
libmagma_sparse.so:magma_zpreselect_gpu
libmagma_sparse.so:magma_zprint_csr
libmagma_sparse.so:magma_zprint_csr_mtx
libmagma_sparse.so:magma_zprint_matrix
libmagma_sparse.so:magma_zprint_vector
libmagma_sparse.so:magma_zptfqmr
libmagma_sparse.so:magma_zptfqmr_merge
libmagma_sparse.so:magma_zqmr
libmagma_sparse.so:magma_zqmr_1
libmagma_sparse.so:magma_zqmr_2
libmagma_sparse.so:magma_zqmr_3
libmagma_sparse.so:magma_zqmr_4
libmagma_sparse.so:magma_zqmr_5
libmagma_sparse.so:magma_zqmr_6
libmagma_sparse.so:magma_zqmr_7
libmagma_sparse.so:magma_zqmr_8
libmagma_sparse.so:magma_zqmr_merge
libmagma_sparse.so:magma_zqr
libmagma_sparse.so:magma_zresidual
libmagma_sparse.so:magma_zresidual_slice
libmagma_sparse.so:magma_zresidualvec
libmagma_sparse.so:magma_zrowentries
libmagma_sparse.so:magma_zsampleselect
libmagma_sparse.so:magma_zsampleselect_approx
libmagma_sparse.so:magma_zsampleselect_approx_nodp
libmagma_sparse.so:magma_zsampleselect_nodp
libmagma_sparse.so:magma_zselect
libmagma_sparse.so:magma_zselectrandom
libmagma_sparse.so:magma_zsolverinfo
libmagma_sparse.so:magma_zsolverinfo_free
libmagma_sparse.so:magma_zsolverinfo_init
libmagma_sparse.so:magma_zsort
libmagma_sparse.so:magma_zsymbilu
libmagma_sparse.so:magma_zsymbolic_ilu
libmagma_sparse.so:magma_ztfqmr
libmagma_sparse.so:magma_ztfqmr_1
libmagma_sparse.so:magma_ztfqmr_2
libmagma_sparse.so:magma_ztfqmr_3
libmagma_sparse.so:magma_ztfqmr_4
libmagma_sparse.so:magma_ztfqmr_5
libmagma_sparse.so:magma_ztfqmr_merge
libmagma_sparse.so:magma_ztfqmr_unrolled
libmagma_sparse.so:magma_zthrsholdrm_gpu
libmagma_sparse.so:magma_zvalinit_gpu
libmagma_sparse.so:magma_zvcopy
libmagma_sparse.so:magma_zvcopy_dev
libmagma_sparse.so:magma_zvget
libmagma_sparse.so:magma_zvget_dev
libmagma_sparse.so:magma_zvinit
libmagma_sparse.so:magma_zvinit_rand
libmagma_sparse.so:magma_zvread
libmagma_sparse.so:magma_zvset
libmagma_sparse.so:magma_zvset_dev
libmagma_sparse.so:magma_zvspread
libmagma_sparse.so:magma_zvtranspose
libmagma_sparse.so:magma_zwrite_csr_mtx
libmagma_sparse.so:magma_zwrite_csrtomtx
libmagma_sparse.so:magma_zwrite_vector
libmagma_sparse.so:read_c_csr_from_mtx
libmagma_sparse.so:read_d_csr_from_mtx
libmagma_sparse.so:read_s_csr_from_mtx
libmagma_sparse.so:read_z_csr_from_mtx
libmagma_sparse.so:s_transpose_csr
libmagma_sparse.so:z_transpose_csr
