librocfft-device-0.so.0:_Z10c2r_1d_prePKvPv
librocfft-device-0.so.0:_Z11r2c_1d_postPKvPv
librocfft-device-0.so.0:_Z12complex2realPKvPv
librocfft-device-0.so.0:_Z12real2complexPKvPv
librocfft-device-0.so.0:_Z17complex2hermitianPKvPv
librocfft-device-0.so.0:_Z17hermitian2complexPKvPv
librocfft-device-0.so.0:_Z19apply_real_callbackPKvPv
librocfft-device-0.so.0:_Z19rocfft_internal_mulPKvPv
librocfft-device-0.so.0:_Z20transpose_c2r_1d_prePKvPv
librocfft-device-0.so.0:_Z21r2c_1d_post_transposePKvPv
librocfft-device-0.so.0:_Z21rocfft_internal_chirpPKvPv
librocfft-device-0.so.0:_Z35rocfft_internal_dfn_dp_ci_ci_stoc_1PKvPv
librocfft-device-0.so.0:_Z35rocfft_internal_dfn_sp_ci_ci_stoc_1PKvPv
librocfft-device-0.so.0:_Z36rocfft_internal_dfn_dp_ci_ci_2D_16_4PKvPv
librocfft-device-0.so.0:_Z36rocfft_internal_dfn_dp_ci_ci_2D_16_8PKvPv
librocfft-device-0.so.0:_Z36rocfft_internal_dfn_dp_ci_ci_2D_16_9PKvPv
librocfft-device-0.so.0:_Z36rocfft_internal_dfn_dp_ci_ci_stoc_10PKvPv
librocfft-device-0.so.0:_Z36rocfft_internal_dfn_dp_ci_ci_stoc_11PKvPv
librocfft-device-0.so.0:_Z36rocfft_internal_dfn_dp_ci_ci_stoc_12PKvPv
librocfft-device-0.so.0:_Z36rocfft_internal_dfn_dp_ci_ci_stoc_13PKvPv
librocfft-device-0.so.0:_Z36rocfft_internal_dfn_dp_ci_ci_stoc_14PKvPv
librocfft-device-0.so.0:_Z36rocfft_internal_dfn_dp_ci_ci_stoc_15PKvPv
librocfft-device-0.so.0:_Z36rocfft_internal_dfn_dp_ci_ci_stoc_16PKvPv
librocfft-device-0.so.0:_Z36rocfft_internal_dfn_dp_ci_ci_stoc_17PKvPv
librocfft-device-0.so.0:_Z36rocfft_internal_dfn_sp_ci_ci_2D_16_4PKvPv
librocfft-device-0.so.0:_Z36rocfft_internal_dfn_sp_ci_ci_2D_16_8PKvPv
librocfft-device-0.so.0:_Z36rocfft_internal_dfn_sp_ci_ci_2D_16_9PKvPv
librocfft-device-0.so.0:_Z36rocfft_internal_dfn_sp_ci_ci_stoc_10PKvPv
librocfft-device-0.so.0:_Z36rocfft_internal_dfn_sp_ci_ci_stoc_11PKvPv
librocfft-device-0.so.0:_Z36rocfft_internal_dfn_sp_ci_ci_stoc_12PKvPv
librocfft-device-0.so.0:_Z36rocfft_internal_dfn_sp_ci_ci_stoc_13PKvPv
librocfft-device-0.so.0:_Z36rocfft_internal_dfn_sp_ci_ci_stoc_14PKvPv
librocfft-device-0.so.0:_Z36rocfft_internal_dfn_sp_ci_ci_stoc_15PKvPv
librocfft-device-0.so.0:_Z36rocfft_internal_dfn_sp_ci_ci_stoc_16PKvPv
librocfft-device-0.so.0:_Z36rocfft_internal_dfn_sp_ci_ci_stoc_17PKvPv
librocfft-device-0.so.0:_Z37rocfft_internal_dfn_dp_ci_ci_2D_125_4PKvPv
librocfft-device-0.so.0:_Z37rocfft_internal_dfn_dp_ci_ci_2D_125_8PKvPv
librocfft-device-0.so.0:_Z37rocfft_internal_dfn_dp_ci_ci_2D_125_9PKvPv
librocfft-device-0.so.0:_Z37rocfft_internal_dfn_dp_ci_ci_2D_128_4PKvPv
librocfft-device-0.so.0:_Z37rocfft_internal_dfn_dp_ci_ci_2D_128_8PKvPv
librocfft-device-0.so.0:_Z37rocfft_internal_dfn_dp_ci_ci_2D_128_9PKvPv
librocfft-device-0.so.0:_Z37rocfft_internal_dfn_dp_ci_ci_2D_16_16PKvPv
librocfft-device-0.so.0:_Z37rocfft_internal_dfn_dp_ci_ci_2D_16_25PKvPv
librocfft-device-0.so.0:_Z37rocfft_internal_dfn_dp_ci_ci_2D_16_27PKvPv
librocfft-device-0.so.0:_Z37rocfft_internal_dfn_dp_ci_ci_2D_16_32PKvPv
librocfft-device-0.so.0:_Z37rocfft_internal_dfn_dp_ci_ci_2D_16_64PKvPv
librocfft-device-0.so.0:_Z37rocfft_internal_dfn_dp_ci_ci_2D_16_81PKvPv
librocfft-device-0.so.0:_Z37rocfft_internal_dfn_dp_ci_ci_sbcc_100PKvPv
librocfft-device-0.so.0:_Z37rocfft_internal_dfn_dp_ci_ci_sbcc_104PKvPv
librocfft-device-0.so.0:_Z37rocfft_internal_dfn_dp_ci_ci_sbcc_108PKvPv
librocfft-device-0.so.0:_Z37rocfft_internal_dfn_dp_ci_ci_sbcc_112PKvPv
librocfft-device-0.so.0:_Z37rocfft_internal_dfn_dp_ci_ci_sbcc_125PKvPv
librocfft-device-0.so.0:_Z37rocfft_internal_dfn_dp_ci_ci_sbcc_128PKvPv
librocfft-device-0.so.0:_Z37rocfft_internal_dfn_dp_ci_ci_sbcc_160PKvPv
librocfft-device-0.so.0:_Z37rocfft_internal_dfn_dp_ci_ci_sbcc_168PKvPv
librocfft-device-0.so.0:_Z37rocfft_internal_dfn_dp_ci_ci_sbcr_100PKvPv
librocfft-device-0.so.0:_Z37rocfft_internal_dfn_dp_ci_ci_stoc_100PKvPv
librocfft-device-0.so.0:_Z37rocfft_internal_dfn_dp_ci_ci_stoc_104PKvPv
librocfft-device-0.so.0:_Z37rocfft_internal_dfn_dp_ci_ci_stoc_108PKvPv
librocfft-device-0.so.0:_Z37rocfft_internal_dfn_dp_ci_ci_stoc_112PKvPv
librocfft-device-0.so.0:_Z37rocfft_internal_dfn_dp_ci_ci_stoc_120PKvPv
librocfft-device-0.so.0:_Z37rocfft_internal_dfn_dp_ci_ci_stoc_121PKvPv
librocfft-device-0.so.0:_Z37rocfft_internal_dfn_dp_ci_ci_stoc_125PKvPv
librocfft-device-0.so.0:_Z37rocfft_internal_dfn_dp_ci_ci_stoc_128PKvPv
librocfft-device-0.so.0:_Z37rocfft_internal_dfn_dp_ci_ci_stoc_135PKvPv
librocfft-device-0.so.0:_Z37rocfft_internal_dfn_dp_ci_ci_stoc_144PKvPv
librocfft-device-0.so.0:_Z37rocfft_internal_dfn_dp_ci_ci_stoc_150PKvPv
librocfft-device-0.so.0:_Z37rocfft_internal_dfn_dp_ci_ci_stoc_160PKvPv
librocfft-device-0.so.0:_Z37rocfft_internal_dfn_dp_ci_ci_stoc_162PKvPv
librocfft-device-0.so.0:_Z37rocfft_internal_dfn_dp_ci_ci_stoc_168PKvPv
librocfft-device-0.so.0:_Z37rocfft_internal_dfn_dp_ci_ci_stoc_169PKvPv
librocfft-device-0.so.0:_Z37rocfft_internal_dfn_dp_ci_ci_stoc_176PKvPv
librocfft-device-0.so.0:_Z37rocfft_internal_dfn_sp_ci_ci_2D_125_4PKvPv
librocfft-device-0.so.0:_Z37rocfft_internal_dfn_sp_ci_ci_2D_125_8PKvPv
librocfft-device-0.so.0:_Z37rocfft_internal_dfn_sp_ci_ci_2D_125_9PKvPv
librocfft-device-0.so.0:_Z37rocfft_internal_dfn_sp_ci_ci_2D_128_4PKvPv
librocfft-device-0.so.0:_Z37rocfft_internal_dfn_sp_ci_ci_2D_128_8PKvPv
librocfft-device-0.so.0:_Z37rocfft_internal_dfn_sp_ci_ci_2D_128_9PKvPv
librocfft-device-0.so.0:_Z37rocfft_internal_dfn_sp_ci_ci_2D_16_16PKvPv
librocfft-device-0.so.0:_Z37rocfft_internal_dfn_sp_ci_ci_2D_16_25PKvPv
librocfft-device-0.so.0:_Z37rocfft_internal_dfn_sp_ci_ci_2D_16_27PKvPv
librocfft-device-0.so.0:_Z37rocfft_internal_dfn_sp_ci_ci_2D_16_32PKvPv
librocfft-device-0.so.0:_Z37rocfft_internal_dfn_sp_ci_ci_2D_16_64PKvPv
librocfft-device-0.so.0:_Z37rocfft_internal_dfn_sp_ci_ci_2D_16_81PKvPv
librocfft-device-0.so.0:_Z37rocfft_internal_dfn_sp_ci_ci_sbcc_100PKvPv
librocfft-device-0.so.0:_Z37rocfft_internal_dfn_sp_ci_ci_sbcc_104PKvPv
librocfft-device-0.so.0:_Z37rocfft_internal_dfn_sp_ci_ci_sbcc_108PKvPv
librocfft-device-0.so.0:_Z37rocfft_internal_dfn_sp_ci_ci_sbcc_112PKvPv
librocfft-device-0.so.0:_Z37rocfft_internal_dfn_sp_ci_ci_sbcc_125PKvPv
librocfft-device-0.so.0:_Z37rocfft_internal_dfn_sp_ci_ci_sbcc_128PKvPv
librocfft-device-0.so.0:_Z37rocfft_internal_dfn_sp_ci_ci_sbcc_160PKvPv
librocfft-device-0.so.0:_Z37rocfft_internal_dfn_sp_ci_ci_sbcc_168PKvPv
librocfft-device-0.so.0:_Z37rocfft_internal_dfn_sp_ci_ci_sbcr_100PKvPv
librocfft-device-0.so.0:_Z37rocfft_internal_dfn_sp_ci_ci_stoc_100PKvPv
librocfft-device-0.so.0:_Z37rocfft_internal_dfn_sp_ci_ci_stoc_104PKvPv
librocfft-device-0.so.0:_Z37rocfft_internal_dfn_sp_ci_ci_stoc_108PKvPv
librocfft-device-0.so.0:_Z37rocfft_internal_dfn_sp_ci_ci_stoc_112PKvPv
librocfft-device-0.so.0:_Z37rocfft_internal_dfn_sp_ci_ci_stoc_120PKvPv
librocfft-device-0.so.0:_Z37rocfft_internal_dfn_sp_ci_ci_stoc_121PKvPv
librocfft-device-0.so.0:_Z37rocfft_internal_dfn_sp_ci_ci_stoc_125PKvPv
librocfft-device-0.so.0:_Z37rocfft_internal_dfn_sp_ci_ci_stoc_128PKvPv
librocfft-device-0.so.0:_Z37rocfft_internal_dfn_sp_ci_ci_stoc_135PKvPv
librocfft-device-0.so.0:_Z37rocfft_internal_dfn_sp_ci_ci_stoc_144PKvPv
librocfft-device-0.so.0:_Z37rocfft_internal_dfn_sp_ci_ci_stoc_150PKvPv
librocfft-device-0.so.0:_Z37rocfft_internal_dfn_sp_ci_ci_stoc_160PKvPv
librocfft-device-0.so.0:_Z37rocfft_internal_dfn_sp_ci_ci_stoc_162PKvPv
librocfft-device-0.so.0:_Z37rocfft_internal_dfn_sp_ci_ci_stoc_168PKvPv
librocfft-device-0.so.0:_Z37rocfft_internal_dfn_sp_ci_ci_stoc_169PKvPv
librocfft-device-0.so.0:_Z37rocfft_internal_dfn_sp_ci_ci_stoc_176PKvPv
librocfft-device-0.so.0:_Z38rocfft_internal_dfn_dp_ci_ci_2D_125_16PKvPv
librocfft-device-0.so.0:_Z38rocfft_internal_dfn_dp_ci_ci_2D_125_25PKvPv
librocfft-device-0.so.0:_Z38rocfft_internal_dfn_dp_ci_ci_2D_125_32PKvPv
librocfft-device-0.so.0:_Z38rocfft_internal_dfn_dp_ci_ci_2D_128_16PKvPv
librocfft-device-0.so.0:_Z38rocfft_internal_dfn_dp_ci_ci_2D_128_25PKvPv
librocfft-device-0.so.0:_Z38rocfft_internal_dfn_dp_ci_ci_2D_128_32PKvPv
librocfft-device-0.so.0:_Z38rocfft_internal_dfn_dp_ci_ci_2D_16_125PKvPv
librocfft-device-0.so.0:_Z38rocfft_internal_dfn_dp_ci_ci_2D_16_128PKvPv
librocfft-device-0.so.0:_Z38rocfft_internal_dfn_dp_ci_ci_stoc_1000PKvPv
librocfft-device-0.so.0:_Z38rocfft_internal_dfn_dp_ci_ci_stoc_1024PKvPv
librocfft-device-0.so.0:_Z38rocfft_internal_dfn_sp_ci_ci_2D_125_16PKvPv
librocfft-device-0.so.0:_Z38rocfft_internal_dfn_sp_ci_ci_2D_125_25PKvPv
librocfft-device-0.so.0:_Z38rocfft_internal_dfn_sp_ci_ci_2D_125_32PKvPv
librocfft-device-0.so.0:_Z38rocfft_internal_dfn_sp_ci_ci_2D_128_16PKvPv
librocfft-device-0.so.0:_Z38rocfft_internal_dfn_sp_ci_ci_2D_128_25PKvPv
librocfft-device-0.so.0:_Z38rocfft_internal_dfn_sp_ci_ci_2D_128_32PKvPv
librocfft-device-0.so.0:_Z38rocfft_internal_dfn_sp_ci_ci_2D_16_125PKvPv
librocfft-device-0.so.0:_Z38rocfft_internal_dfn_sp_ci_ci_2D_16_128PKvPv
librocfft-device-0.so.0:_Z38rocfft_internal_dfn_sp_ci_ci_stoc_1000PKvPv
librocfft-device-0.so.0:_Z38rocfft_internal_dfn_sp_ci_ci_stoc_1024PKvPv
librocfft-device-0.so.0:_Z40rocfft_internal_dfn_dp_op_ci_ci_sbrc_100PKvPv
librocfft-device-0.so.0:_Z40rocfft_internal_dfn_dp_op_ci_ci_sbrc_112PKvPv
librocfft-device-0.so.0:_Z40rocfft_internal_dfn_dp_op_ci_ci_sbrc_125PKvPv
librocfft-device-0.so.0:_Z40rocfft_internal_dfn_dp_op_ci_ci_sbrc_128PKvPv
librocfft-device-0.so.0:_Z40rocfft_internal_dfn_sp_op_ci_ci_sbrc_100PKvPv
librocfft-device-0.so.0:_Z40rocfft_internal_dfn_sp_op_ci_ci_sbrc_112PKvPv
librocfft-device-0.so.0:_Z40rocfft_internal_dfn_sp_op_ci_ci_sbrc_125PKvPv
librocfft-device-0.so.0:_Z40rocfft_internal_dfn_sp_op_ci_ci_sbrc_128PKvPv
librocfft-device-0.so.0:_Z50rocfft_internal_dfn_dp_op_ci_ci_sbrc_unaligned_100PKvPv
librocfft-device-0.so.0:_Z50rocfft_internal_dfn_dp_op_ci_ci_sbrc_unaligned_112PKvPv
librocfft-device-0.so.0:_Z50rocfft_internal_dfn_dp_op_ci_ci_sbrc_unaligned_125PKvPv
librocfft-device-0.so.0:_Z50rocfft_internal_dfn_dp_op_ci_ci_sbrc_unaligned_128PKvPv
librocfft-device-0.so.0:_Z50rocfft_internal_dfn_sp_op_ci_ci_sbrc_unaligned_100PKvPv
librocfft-device-0.so.0:_Z50rocfft_internal_dfn_sp_op_ci_ci_sbrc_unaligned_112PKvPv
librocfft-device-0.so.0:_Z50rocfft_internal_dfn_sp_op_ci_ci_sbrc_unaligned_125PKvPv
librocfft-device-0.so.0:_Z50rocfft_internal_dfn_sp_op_ci_ci_sbrc_unaligned_128PKvPv
librocfft-device-0.so.0:_Z66rocfft_internal_dfn_dp_op_ci_ci_sbrc3d_fft_trans_xy_z_diagonal_100PKvPv
librocfft-device-0.so.0:_Z66rocfft_internal_dfn_dp_op_ci_ci_sbrc3d_fft_trans_xy_z_diagonal_112PKvPv
librocfft-device-0.so.0:_Z66rocfft_internal_dfn_dp_op_ci_ci_sbrc3d_fft_trans_xy_z_diagonal_125PKvPv
librocfft-device-0.so.0:_Z66rocfft_internal_dfn_dp_op_ci_ci_sbrc3d_fft_trans_xy_z_diagonal_128PKvPv
librocfft-device-0.so.0:_Z66rocfft_internal_dfn_dp_op_ci_ci_sbrc3d_fft_trans_z_xy_diagonal_100PKvPv
librocfft-device-0.so.0:_Z66rocfft_internal_dfn_dp_op_ci_ci_sbrc3d_fft_trans_z_xy_diagonal_112PKvPv
librocfft-device-0.so.0:_Z66rocfft_internal_dfn_dp_op_ci_ci_sbrc3d_fft_trans_z_xy_diagonal_125PKvPv
librocfft-device-0.so.0:_Z66rocfft_internal_dfn_dp_op_ci_ci_sbrc3d_fft_trans_z_xy_diagonal_128PKvPv
librocfft-device-0.so.0:_Z66rocfft_internal_dfn_sp_op_ci_ci_sbrc3d_fft_trans_xy_z_diagonal_100PKvPv
librocfft-device-0.so.0:_Z66rocfft_internal_dfn_sp_op_ci_ci_sbrc3d_fft_trans_xy_z_diagonal_112PKvPv
librocfft-device-0.so.0:_Z66rocfft_internal_dfn_sp_op_ci_ci_sbrc3d_fft_trans_xy_z_diagonal_125PKvPv
librocfft-device-0.so.0:_Z66rocfft_internal_dfn_sp_op_ci_ci_sbrc3d_fft_trans_xy_z_diagonal_128PKvPv
librocfft-device-0.so.0:_Z66rocfft_internal_dfn_sp_op_ci_ci_sbrc3d_fft_trans_z_xy_diagonal_100PKvPv
librocfft-device-0.so.0:_Z66rocfft_internal_dfn_sp_op_ci_ci_sbrc3d_fft_trans_z_xy_diagonal_112PKvPv
librocfft-device-0.so.0:_Z66rocfft_internal_dfn_sp_op_ci_ci_sbrc3d_fft_trans_z_xy_diagonal_125PKvPv
librocfft-device-0.so.0:_Z66rocfft_internal_dfn_sp_op_ci_ci_sbrc3d_fft_trans_z_xy_diagonal_128PKvPv
librocfft-device-0.so.0:_Z70rocfft_internal_dfn_dp_op_ci_ci_sbrc3d_fft_trans_xy_z_tile_aligned_100PKvPv
librocfft-device-0.so.0:_Z70rocfft_internal_dfn_dp_op_ci_ci_sbrc3d_fft_trans_xy_z_tile_aligned_112PKvPv
librocfft-device-0.so.0:_Z70rocfft_internal_dfn_dp_op_ci_ci_sbrc3d_fft_trans_xy_z_tile_aligned_125PKvPv
librocfft-device-0.so.0:_Z70rocfft_internal_dfn_dp_op_ci_ci_sbrc3d_fft_trans_xy_z_tile_aligned_128PKvPv
librocfft-device-0.so.0:_Z70rocfft_internal_dfn_dp_op_ci_ci_sbrc3d_fft_trans_z_xy_tile_aligned_100PKvPv
librocfft-device-0.so.0:_Z70rocfft_internal_dfn_dp_op_ci_ci_sbrc3d_fft_trans_z_xy_tile_aligned_112PKvPv
librocfft-device-0.so.0:_Z70rocfft_internal_dfn_dp_op_ci_ci_sbrc3d_fft_trans_z_xy_tile_aligned_125PKvPv
librocfft-device-0.so.0:_Z70rocfft_internal_dfn_dp_op_ci_ci_sbrc3d_fft_trans_z_xy_tile_aligned_128PKvPv
librocfft-device-0.so.0:_Z70rocfft_internal_dfn_sp_op_ci_ci_sbrc3d_fft_trans_xy_z_tile_aligned_100PKvPv
librocfft-device-0.so.0:_Z70rocfft_internal_dfn_sp_op_ci_ci_sbrc3d_fft_trans_xy_z_tile_aligned_112PKvPv
librocfft-device-0.so.0:_Z70rocfft_internal_dfn_sp_op_ci_ci_sbrc3d_fft_trans_xy_z_tile_aligned_125PKvPv
librocfft-device-0.so.0:_Z70rocfft_internal_dfn_sp_op_ci_ci_sbrc3d_fft_trans_xy_z_tile_aligned_128PKvPv
librocfft-device-0.so.0:_Z70rocfft_internal_dfn_sp_op_ci_ci_sbrc3d_fft_trans_z_xy_tile_aligned_100PKvPv
librocfft-device-0.so.0:_Z70rocfft_internal_dfn_sp_op_ci_ci_sbrc3d_fft_trans_z_xy_tile_aligned_112PKvPv
librocfft-device-0.so.0:_Z70rocfft_internal_dfn_sp_op_ci_ci_sbrc3d_fft_trans_z_xy_tile_aligned_125PKvPv
librocfft-device-0.so.0:_Z70rocfft_internal_dfn_sp_op_ci_ci_sbrc3d_fft_trans_z_xy_tile_aligned_128PKvPv
librocfft-device-0.so.0:_Z72rocfft_internal_dfn_dp_op_ci_ci_sbrc3d_fft_trans_xy_z_tile_unaligned_100PKvPv
librocfft-device-0.so.0:_Z72rocfft_internal_dfn_dp_op_ci_ci_sbrc3d_fft_trans_xy_z_tile_unaligned_112PKvPv
librocfft-device-0.so.0:_Z72rocfft_internal_dfn_dp_op_ci_ci_sbrc3d_fft_trans_xy_z_tile_unaligned_125PKvPv
librocfft-device-0.so.0:_Z72rocfft_internal_dfn_dp_op_ci_ci_sbrc3d_fft_trans_xy_z_tile_unaligned_128PKvPv
librocfft-device-0.so.0:_Z72rocfft_internal_dfn_dp_op_ci_ci_sbrc3d_fft_trans_z_xy_tile_unaligned_100PKvPv
librocfft-device-0.so.0:_Z72rocfft_internal_dfn_dp_op_ci_ci_sbrc3d_fft_trans_z_xy_tile_unaligned_112PKvPv
librocfft-device-0.so.0:_Z72rocfft_internal_dfn_dp_op_ci_ci_sbrc3d_fft_trans_z_xy_tile_unaligned_125PKvPv
librocfft-device-0.so.0:_Z72rocfft_internal_dfn_dp_op_ci_ci_sbrc3d_fft_trans_z_xy_tile_unaligned_128PKvPv
librocfft-device-0.so.0:_Z72rocfft_internal_dfn_sp_op_ci_ci_sbrc3d_fft_trans_xy_z_tile_unaligned_100PKvPv
librocfft-device-0.so.0:_Z72rocfft_internal_dfn_sp_op_ci_ci_sbrc3d_fft_trans_xy_z_tile_unaligned_112PKvPv
librocfft-device-0.so.0:_Z72rocfft_internal_dfn_sp_op_ci_ci_sbrc3d_fft_trans_xy_z_tile_unaligned_125PKvPv
librocfft-device-0.so.0:_Z72rocfft_internal_dfn_sp_op_ci_ci_sbrc3d_fft_trans_xy_z_tile_unaligned_128PKvPv
librocfft-device-0.so.0:_Z72rocfft_internal_dfn_sp_op_ci_ci_sbrc3d_fft_trans_z_xy_tile_unaligned_100PKvPv
librocfft-device-0.so.0:_Z72rocfft_internal_dfn_sp_op_ci_ci_sbrc3d_fft_trans_z_xy_tile_unaligned_112PKvPv
librocfft-device-0.so.0:_Z72rocfft_internal_dfn_sp_op_ci_ci_sbrc3d_fft_trans_z_xy_tile_unaligned_125PKvPv
librocfft-device-0.so.0:_Z72rocfft_internal_dfn_sp_op_ci_ci_sbrc3d_fft_trans_z_xy_tile_unaligned_128PKvPv
librocfft-device-0.so.0:_Z74rocfft_internal_dfn_dp_op_ci_ci_sbrc3d_fft_erc_trans_z_xy_tile_aligned_100PKvPv
librocfft-device-0.so.0:_Z74rocfft_internal_dfn_dp_op_ci_ci_sbrc3d_fft_erc_trans_z_xy_tile_aligned_112PKvPv
librocfft-device-0.so.0:_Z74rocfft_internal_dfn_dp_op_ci_ci_sbrc3d_fft_erc_trans_z_xy_tile_aligned_125PKvPv
librocfft-device-0.so.0:_Z74rocfft_internal_dfn_dp_op_ci_ci_sbrc3d_fft_erc_trans_z_xy_tile_aligned_128PKvPv
librocfft-device-0.so.0:_Z74rocfft_internal_dfn_sp_op_ci_ci_sbrc3d_fft_erc_trans_z_xy_tile_aligned_100PKvPv
librocfft-device-0.so.0:_Z74rocfft_internal_dfn_sp_op_ci_ci_sbrc3d_fft_erc_trans_z_xy_tile_aligned_112PKvPv
librocfft-device-0.so.0:_Z74rocfft_internal_dfn_sp_op_ci_ci_sbrc3d_fft_erc_trans_z_xy_tile_aligned_125PKvPv
librocfft-device-0.so.0:_Z74rocfft_internal_dfn_sp_op_ci_ci_sbrc3d_fft_erc_trans_z_xy_tile_aligned_128PKvPv
librocfft-device-0.so.0:_ZN13function_poolC1Ev
librocfft-device-0.so.0:_ZN13function_poolC2Ev
librocfft-device-1.so.0:_Z35rocfft_internal_dfn_dp_ci_ci_stoc_2PKvPv
librocfft-device-1.so.0:_Z35rocfft_internal_dfn_dp_ci_ci_stoc_3PKvPv
librocfft-device-1.so.0:_Z35rocfft_internal_dfn_sp_ci_ci_stoc_2PKvPv
librocfft-device-1.so.0:_Z35rocfft_internal_dfn_sp_ci_ci_stoc_3PKvPv
librocfft-device-1.so.0:_Z36rocfft_internal_dfn_dp_ci_ci_2D_25_4PKvPv
librocfft-device-1.so.0:_Z36rocfft_internal_dfn_dp_ci_ci_2D_25_8PKvPv
librocfft-device-1.so.0:_Z36rocfft_internal_dfn_dp_ci_ci_2D_25_9PKvPv
librocfft-device-1.so.0:_Z36rocfft_internal_dfn_dp_ci_ci_2D_27_4PKvPv
librocfft-device-1.so.0:_Z36rocfft_internal_dfn_dp_ci_ci_2D_27_8PKvPv
librocfft-device-1.so.0:_Z36rocfft_internal_dfn_dp_ci_ci_2D_27_9PKvPv
librocfft-device-1.so.0:_Z36rocfft_internal_dfn_dp_ci_ci_stoc_18PKvPv
librocfft-device-1.so.0:_Z36rocfft_internal_dfn_dp_ci_ci_stoc_20PKvPv
librocfft-device-1.so.0:_Z36rocfft_internal_dfn_dp_ci_ci_stoc_21PKvPv
librocfft-device-1.so.0:_Z36rocfft_internal_dfn_dp_ci_ci_stoc_22PKvPv
librocfft-device-1.so.0:_Z36rocfft_internal_dfn_dp_ci_ci_stoc_24PKvPv
librocfft-device-1.so.0:_Z36rocfft_internal_dfn_dp_ci_ci_stoc_25PKvPv
librocfft-device-1.so.0:_Z36rocfft_internal_dfn_dp_ci_ci_stoc_26PKvPv
librocfft-device-1.so.0:_Z36rocfft_internal_dfn_dp_ci_ci_stoc_27PKvPv
librocfft-device-1.so.0:_Z36rocfft_internal_dfn_dp_ci_ci_stoc_28PKvPv
librocfft-device-1.so.0:_Z36rocfft_internal_dfn_dp_ci_ci_stoc_30PKvPv
librocfft-device-1.so.0:_Z36rocfft_internal_dfn_dp_ci_ci_stoc_32PKvPv
librocfft-device-1.so.0:_Z36rocfft_internal_dfn_sp_ci_ci_2D_25_4PKvPv
librocfft-device-1.so.0:_Z36rocfft_internal_dfn_sp_ci_ci_2D_25_8PKvPv
librocfft-device-1.so.0:_Z36rocfft_internal_dfn_sp_ci_ci_2D_25_9PKvPv
librocfft-device-1.so.0:_Z36rocfft_internal_dfn_sp_ci_ci_2D_27_4PKvPv
librocfft-device-1.so.0:_Z36rocfft_internal_dfn_sp_ci_ci_2D_27_8PKvPv
librocfft-device-1.so.0:_Z36rocfft_internal_dfn_sp_ci_ci_2D_27_9PKvPv
librocfft-device-1.so.0:_Z36rocfft_internal_dfn_sp_ci_ci_stoc_18PKvPv
librocfft-device-1.so.0:_Z36rocfft_internal_dfn_sp_ci_ci_stoc_20PKvPv
librocfft-device-1.so.0:_Z36rocfft_internal_dfn_sp_ci_ci_stoc_21PKvPv
librocfft-device-1.so.0:_Z36rocfft_internal_dfn_sp_ci_ci_stoc_22PKvPv
librocfft-device-1.so.0:_Z36rocfft_internal_dfn_sp_ci_ci_stoc_24PKvPv
librocfft-device-1.so.0:_Z36rocfft_internal_dfn_sp_ci_ci_stoc_25PKvPv
librocfft-device-1.so.0:_Z36rocfft_internal_dfn_sp_ci_ci_stoc_26PKvPv
librocfft-device-1.so.0:_Z36rocfft_internal_dfn_sp_ci_ci_stoc_27PKvPv
librocfft-device-1.so.0:_Z36rocfft_internal_dfn_sp_ci_ci_stoc_28PKvPv
librocfft-device-1.so.0:_Z36rocfft_internal_dfn_sp_ci_ci_stoc_30PKvPv
librocfft-device-1.so.0:_Z36rocfft_internal_dfn_sp_ci_ci_stoc_32PKvPv
librocfft-device-1.so.0:_Z37rocfft_internal_dfn_dp_ci_ci_2D_243_4PKvPv
librocfft-device-1.so.0:_Z37rocfft_internal_dfn_dp_ci_ci_2D_243_8PKvPv
librocfft-device-1.so.0:_Z37rocfft_internal_dfn_dp_ci_ci_2D_243_9PKvPv
librocfft-device-1.so.0:_Z37rocfft_internal_dfn_dp_ci_ci_2D_256_4PKvPv
librocfft-device-1.so.0:_Z37rocfft_internal_dfn_dp_ci_ci_2D_256_8PKvPv
librocfft-device-1.so.0:_Z37rocfft_internal_dfn_dp_ci_ci_2D_256_9PKvPv
librocfft-device-1.so.0:_Z37rocfft_internal_dfn_dp_ci_ci_2D_25_16PKvPv
librocfft-device-1.so.0:_Z37rocfft_internal_dfn_dp_ci_ci_2D_25_25PKvPv
librocfft-device-1.so.0:_Z37rocfft_internal_dfn_dp_ci_ci_2D_25_27PKvPv
librocfft-device-1.so.0:_Z37rocfft_internal_dfn_dp_ci_ci_2D_25_32PKvPv
librocfft-device-1.so.0:_Z37rocfft_internal_dfn_dp_ci_ci_2D_25_64PKvPv
librocfft-device-1.so.0:_Z37rocfft_internal_dfn_dp_ci_ci_2D_25_81PKvPv
librocfft-device-1.so.0:_Z37rocfft_internal_dfn_dp_ci_ci_2D_27_16PKvPv
librocfft-device-1.so.0:_Z37rocfft_internal_dfn_dp_ci_ci_2D_27_25PKvPv
librocfft-device-1.so.0:_Z37rocfft_internal_dfn_dp_ci_ci_2D_27_27PKvPv
librocfft-device-1.so.0:_Z37rocfft_internal_dfn_dp_ci_ci_2D_27_32PKvPv
librocfft-device-1.so.0:_Z37rocfft_internal_dfn_dp_ci_ci_2D_27_64PKvPv
librocfft-device-1.so.0:_Z37rocfft_internal_dfn_dp_ci_ci_2D_27_81PKvPv
librocfft-device-1.so.0:_Z37rocfft_internal_dfn_dp_ci_ci_sbcc_192PKvPv
librocfft-device-1.so.0:_Z37rocfft_internal_dfn_dp_ci_ci_sbcc_200PKvPv
librocfft-device-1.so.0:_Z37rocfft_internal_dfn_dp_ci_ci_sbcc_208PKvPv
librocfft-device-1.so.0:_Z37rocfft_internal_dfn_dp_ci_ci_sbcc_216PKvPv
librocfft-device-1.so.0:_Z37rocfft_internal_dfn_dp_ci_ci_sbcc_224PKvPv
librocfft-device-1.so.0:_Z37rocfft_internal_dfn_dp_ci_ci_sbcc_240PKvPv
librocfft-device-1.so.0:_Z37rocfft_internal_dfn_dp_ci_ci_sbcc_243PKvPv
librocfft-device-1.so.0:_Z37rocfft_internal_dfn_dp_ci_ci_sbcc_256PKvPv
librocfft-device-1.so.0:_Z37rocfft_internal_dfn_dp_ci_ci_sbcr_200PKvPv
librocfft-device-1.so.0:_Z37rocfft_internal_dfn_dp_ci_ci_stoc_180PKvPv
librocfft-device-1.so.0:_Z37rocfft_internal_dfn_dp_ci_ci_stoc_192PKvPv
librocfft-device-1.so.0:_Z37rocfft_internal_dfn_dp_ci_ci_stoc_200PKvPv
librocfft-device-1.so.0:_Z37rocfft_internal_dfn_dp_ci_ci_stoc_208PKvPv
librocfft-device-1.so.0:_Z37rocfft_internal_dfn_dp_ci_ci_stoc_216PKvPv
librocfft-device-1.so.0:_Z37rocfft_internal_dfn_dp_ci_ci_stoc_224PKvPv
librocfft-device-1.so.0:_Z37rocfft_internal_dfn_dp_ci_ci_stoc_225PKvPv
librocfft-device-1.so.0:_Z37rocfft_internal_dfn_dp_ci_ci_stoc_240PKvPv
librocfft-device-1.so.0:_Z37rocfft_internal_dfn_dp_ci_ci_stoc_243PKvPv
librocfft-device-1.so.0:_Z37rocfft_internal_dfn_dp_ci_ci_stoc_250PKvPv
librocfft-device-1.so.0:_Z37rocfft_internal_dfn_dp_ci_ci_stoc_256PKvPv
librocfft-device-1.so.0:_Z37rocfft_internal_dfn_dp_ci_ci_stoc_270PKvPv
librocfft-device-1.so.0:_Z37rocfft_internal_dfn_dp_ci_ci_stoc_272PKvPv
librocfft-device-1.so.0:_Z37rocfft_internal_dfn_dp_ci_ci_stoc_288PKvPv
librocfft-device-1.so.0:_Z37rocfft_internal_dfn_dp_ci_ci_stoc_300PKvPv
librocfft-device-1.so.0:_Z37rocfft_internal_dfn_dp_ci_ci_stoc_320PKvPv
librocfft-device-1.so.0:_Z37rocfft_internal_dfn_dp_ci_ci_stoc_324PKvPv
librocfft-device-1.so.0:_Z37rocfft_internal_dfn_sp_ci_ci_2D_243_4PKvPv
librocfft-device-1.so.0:_Z37rocfft_internal_dfn_sp_ci_ci_2D_243_8PKvPv
librocfft-device-1.so.0:_Z37rocfft_internal_dfn_sp_ci_ci_2D_243_9PKvPv
librocfft-device-1.so.0:_Z37rocfft_internal_dfn_sp_ci_ci_2D_256_4PKvPv
librocfft-device-1.so.0:_Z37rocfft_internal_dfn_sp_ci_ci_2D_256_8PKvPv
librocfft-device-1.so.0:_Z37rocfft_internal_dfn_sp_ci_ci_2D_256_9PKvPv
librocfft-device-1.so.0:_Z37rocfft_internal_dfn_sp_ci_ci_2D_25_16PKvPv
librocfft-device-1.so.0:_Z37rocfft_internal_dfn_sp_ci_ci_2D_25_25PKvPv
librocfft-device-1.so.0:_Z37rocfft_internal_dfn_sp_ci_ci_2D_25_27PKvPv
librocfft-device-1.so.0:_Z37rocfft_internal_dfn_sp_ci_ci_2D_25_32PKvPv
librocfft-device-1.so.0:_Z37rocfft_internal_dfn_sp_ci_ci_2D_25_64PKvPv
librocfft-device-1.so.0:_Z37rocfft_internal_dfn_sp_ci_ci_2D_25_81PKvPv
librocfft-device-1.so.0:_Z37rocfft_internal_dfn_sp_ci_ci_2D_27_16PKvPv
librocfft-device-1.so.0:_Z37rocfft_internal_dfn_sp_ci_ci_2D_27_25PKvPv
librocfft-device-1.so.0:_Z37rocfft_internal_dfn_sp_ci_ci_2D_27_27PKvPv
librocfft-device-1.so.0:_Z37rocfft_internal_dfn_sp_ci_ci_2D_27_32PKvPv
librocfft-device-1.so.0:_Z37rocfft_internal_dfn_sp_ci_ci_2D_27_64PKvPv
librocfft-device-1.so.0:_Z37rocfft_internal_dfn_sp_ci_ci_2D_27_81PKvPv
librocfft-device-1.so.0:_Z37rocfft_internal_dfn_sp_ci_ci_sbcc_192PKvPv
librocfft-device-1.so.0:_Z37rocfft_internal_dfn_sp_ci_ci_sbcc_200PKvPv
librocfft-device-1.so.0:_Z37rocfft_internal_dfn_sp_ci_ci_sbcc_208PKvPv
librocfft-device-1.so.0:_Z37rocfft_internal_dfn_sp_ci_ci_sbcc_216PKvPv
librocfft-device-1.so.0:_Z37rocfft_internal_dfn_sp_ci_ci_sbcc_224PKvPv
librocfft-device-1.so.0:_Z37rocfft_internal_dfn_sp_ci_ci_sbcc_240PKvPv
librocfft-device-1.so.0:_Z37rocfft_internal_dfn_sp_ci_ci_sbcc_243PKvPv
librocfft-device-1.so.0:_Z37rocfft_internal_dfn_sp_ci_ci_sbcc_256PKvPv
librocfft-device-1.so.0:_Z37rocfft_internal_dfn_sp_ci_ci_sbcr_200PKvPv
librocfft-device-1.so.0:_Z37rocfft_internal_dfn_sp_ci_ci_stoc_180PKvPv
librocfft-device-1.so.0:_Z37rocfft_internal_dfn_sp_ci_ci_stoc_192PKvPv
librocfft-device-1.so.0:_Z37rocfft_internal_dfn_sp_ci_ci_stoc_200PKvPv
librocfft-device-1.so.0:_Z37rocfft_internal_dfn_sp_ci_ci_stoc_208PKvPv
librocfft-device-1.so.0:_Z37rocfft_internal_dfn_sp_ci_ci_stoc_216PKvPv
librocfft-device-1.so.0:_Z37rocfft_internal_dfn_sp_ci_ci_stoc_224PKvPv
librocfft-device-1.so.0:_Z37rocfft_internal_dfn_sp_ci_ci_stoc_225PKvPv
librocfft-device-1.so.0:_Z37rocfft_internal_dfn_sp_ci_ci_stoc_240PKvPv
librocfft-device-1.so.0:_Z37rocfft_internal_dfn_sp_ci_ci_stoc_243PKvPv
librocfft-device-1.so.0:_Z37rocfft_internal_dfn_sp_ci_ci_stoc_250PKvPv
librocfft-device-1.so.0:_Z37rocfft_internal_dfn_sp_ci_ci_stoc_256PKvPv
librocfft-device-1.so.0:_Z37rocfft_internal_dfn_sp_ci_ci_stoc_270PKvPv
librocfft-device-1.so.0:_Z37rocfft_internal_dfn_sp_ci_ci_stoc_272PKvPv
librocfft-device-1.so.0:_Z37rocfft_internal_dfn_sp_ci_ci_stoc_288PKvPv
librocfft-device-1.so.0:_Z37rocfft_internal_dfn_sp_ci_ci_stoc_300PKvPv
librocfft-device-1.so.0:_Z37rocfft_internal_dfn_sp_ci_ci_stoc_320PKvPv
librocfft-device-1.so.0:_Z37rocfft_internal_dfn_sp_ci_ci_stoc_324PKvPv
librocfft-device-1.so.0:_Z38rocfft_internal_dfn_dp_ci_ci_2D_25_125PKvPv
librocfft-device-1.so.0:_Z38rocfft_internal_dfn_dp_ci_ci_2D_25_128PKvPv
librocfft-device-1.so.0:_Z38rocfft_internal_dfn_dp_ci_ci_2D_32_125PKvPv
librocfft-device-1.so.0:_Z38rocfft_internal_dfn_dp_ci_ci_2D_32_128PKvPv
librocfft-device-1.so.0:_Z38rocfft_internal_dfn_sp_ci_ci_2D_25_125PKvPv
librocfft-device-1.so.0:_Z38rocfft_internal_dfn_sp_ci_ci_2D_25_128PKvPv
librocfft-device-1.so.0:_Z38rocfft_internal_dfn_sp_ci_ci_2D_32_125PKvPv
librocfft-device-1.so.0:_Z38rocfft_internal_dfn_sp_ci_ci_2D_32_128PKvPv
librocfft-device-1.so.0:_Z40rocfft_internal_dfn_dp_op_ci_ci_sbrc_192PKvPv
librocfft-device-1.so.0:_Z40rocfft_internal_dfn_dp_op_ci_ci_sbrc_200PKvPv
librocfft-device-1.so.0:_Z40rocfft_internal_dfn_dp_op_ci_ci_sbrc_256PKvPv
librocfft-device-1.so.0:_Z40rocfft_internal_dfn_sp_op_ci_ci_sbrc_192PKvPv
librocfft-device-1.so.0:_Z40rocfft_internal_dfn_sp_op_ci_ci_sbrc_200PKvPv
librocfft-device-1.so.0:_Z40rocfft_internal_dfn_sp_op_ci_ci_sbrc_256PKvPv
librocfft-device-1.so.0:_Z50rocfft_internal_dfn_dp_op_ci_ci_sbrc_unaligned_192PKvPv
librocfft-device-1.so.0:_Z50rocfft_internal_dfn_dp_op_ci_ci_sbrc_unaligned_200PKvPv
librocfft-device-1.so.0:_Z50rocfft_internal_dfn_dp_op_ci_ci_sbrc_unaligned_256PKvPv
librocfft-device-1.so.0:_Z50rocfft_internal_dfn_sp_op_ci_ci_sbrc_unaligned_192PKvPv
librocfft-device-1.so.0:_Z50rocfft_internal_dfn_sp_op_ci_ci_sbrc_unaligned_200PKvPv
librocfft-device-1.so.0:_Z50rocfft_internal_dfn_sp_op_ci_ci_sbrc_unaligned_256PKvPv
librocfft-device-1.so.0:_Z66rocfft_internal_dfn_dp_op_ci_ci_sbrc3d_fft_trans_xy_z_diagonal_192PKvPv
librocfft-device-1.so.0:_Z66rocfft_internal_dfn_dp_op_ci_ci_sbrc3d_fft_trans_xy_z_diagonal_200PKvPv
librocfft-device-1.so.0:_Z66rocfft_internal_dfn_dp_op_ci_ci_sbrc3d_fft_trans_xy_z_diagonal_256PKvPv
librocfft-device-1.so.0:_Z66rocfft_internal_dfn_dp_op_ci_ci_sbrc3d_fft_trans_z_xy_diagonal_192PKvPv
librocfft-device-1.so.0:_Z66rocfft_internal_dfn_dp_op_ci_ci_sbrc3d_fft_trans_z_xy_diagonal_200PKvPv
librocfft-device-1.so.0:_Z66rocfft_internal_dfn_dp_op_ci_ci_sbrc3d_fft_trans_z_xy_diagonal_256PKvPv
librocfft-device-1.so.0:_Z66rocfft_internal_dfn_sp_op_ci_ci_sbrc3d_fft_trans_xy_z_diagonal_192PKvPv
librocfft-device-1.so.0:_Z66rocfft_internal_dfn_sp_op_ci_ci_sbrc3d_fft_trans_xy_z_diagonal_200PKvPv
librocfft-device-1.so.0:_Z66rocfft_internal_dfn_sp_op_ci_ci_sbrc3d_fft_trans_xy_z_diagonal_256PKvPv
librocfft-device-1.so.0:_Z66rocfft_internal_dfn_sp_op_ci_ci_sbrc3d_fft_trans_z_xy_diagonal_192PKvPv
librocfft-device-1.so.0:_Z66rocfft_internal_dfn_sp_op_ci_ci_sbrc3d_fft_trans_z_xy_diagonal_200PKvPv
librocfft-device-1.so.0:_Z66rocfft_internal_dfn_sp_op_ci_ci_sbrc3d_fft_trans_z_xy_diagonal_256PKvPv
librocfft-device-1.so.0:_Z70rocfft_internal_dfn_dp_op_ci_ci_sbrc3d_fft_trans_xy_z_tile_aligned_192PKvPv
librocfft-device-1.so.0:_Z70rocfft_internal_dfn_dp_op_ci_ci_sbrc3d_fft_trans_xy_z_tile_aligned_200PKvPv
librocfft-device-1.so.0:_Z70rocfft_internal_dfn_dp_op_ci_ci_sbrc3d_fft_trans_xy_z_tile_aligned_256PKvPv
librocfft-device-1.so.0:_Z70rocfft_internal_dfn_dp_op_ci_ci_sbrc3d_fft_trans_z_xy_tile_aligned_192PKvPv
librocfft-device-1.so.0:_Z70rocfft_internal_dfn_dp_op_ci_ci_sbrc3d_fft_trans_z_xy_tile_aligned_200PKvPv
librocfft-device-1.so.0:_Z70rocfft_internal_dfn_dp_op_ci_ci_sbrc3d_fft_trans_z_xy_tile_aligned_256PKvPv
librocfft-device-1.so.0:_Z70rocfft_internal_dfn_sp_op_ci_ci_sbrc3d_fft_trans_xy_z_tile_aligned_192PKvPv
librocfft-device-1.so.0:_Z70rocfft_internal_dfn_sp_op_ci_ci_sbrc3d_fft_trans_xy_z_tile_aligned_200PKvPv
librocfft-device-1.so.0:_Z70rocfft_internal_dfn_sp_op_ci_ci_sbrc3d_fft_trans_xy_z_tile_aligned_256PKvPv
librocfft-device-1.so.0:_Z70rocfft_internal_dfn_sp_op_ci_ci_sbrc3d_fft_trans_z_xy_tile_aligned_192PKvPv
librocfft-device-1.so.0:_Z70rocfft_internal_dfn_sp_op_ci_ci_sbrc3d_fft_trans_z_xy_tile_aligned_200PKvPv
librocfft-device-1.so.0:_Z70rocfft_internal_dfn_sp_op_ci_ci_sbrc3d_fft_trans_z_xy_tile_aligned_256PKvPv
librocfft-device-1.so.0:_Z72rocfft_internal_dfn_dp_op_ci_ci_sbrc3d_fft_trans_xy_z_tile_unaligned_192PKvPv
librocfft-device-1.so.0:_Z72rocfft_internal_dfn_dp_op_ci_ci_sbrc3d_fft_trans_xy_z_tile_unaligned_200PKvPv
librocfft-device-1.so.0:_Z72rocfft_internal_dfn_dp_op_ci_ci_sbrc3d_fft_trans_xy_z_tile_unaligned_256PKvPv
librocfft-device-1.so.0:_Z72rocfft_internal_dfn_dp_op_ci_ci_sbrc3d_fft_trans_z_xy_tile_unaligned_192PKvPv
librocfft-device-1.so.0:_Z72rocfft_internal_dfn_dp_op_ci_ci_sbrc3d_fft_trans_z_xy_tile_unaligned_200PKvPv
librocfft-device-1.so.0:_Z72rocfft_internal_dfn_dp_op_ci_ci_sbrc3d_fft_trans_z_xy_tile_unaligned_256PKvPv
librocfft-device-1.so.0:_Z72rocfft_internal_dfn_sp_op_ci_ci_sbrc3d_fft_trans_xy_z_tile_unaligned_192PKvPv
librocfft-device-1.so.0:_Z72rocfft_internal_dfn_sp_op_ci_ci_sbrc3d_fft_trans_xy_z_tile_unaligned_200PKvPv
librocfft-device-1.so.0:_Z72rocfft_internal_dfn_sp_op_ci_ci_sbrc3d_fft_trans_xy_z_tile_unaligned_256PKvPv
librocfft-device-1.so.0:_Z72rocfft_internal_dfn_sp_op_ci_ci_sbrc3d_fft_trans_z_xy_tile_unaligned_192PKvPv
librocfft-device-1.so.0:_Z72rocfft_internal_dfn_sp_op_ci_ci_sbrc3d_fft_trans_z_xy_tile_unaligned_200PKvPv
librocfft-device-1.so.0:_Z72rocfft_internal_dfn_sp_op_ci_ci_sbrc3d_fft_trans_z_xy_tile_unaligned_256PKvPv
librocfft-device-1.so.0:_Z74rocfft_internal_dfn_dp_op_ci_ci_sbrc3d_fft_erc_trans_z_xy_tile_aligned_192PKvPv
librocfft-device-1.so.0:_Z74rocfft_internal_dfn_dp_op_ci_ci_sbrc3d_fft_erc_trans_z_xy_tile_aligned_200PKvPv
librocfft-device-1.so.0:_Z74rocfft_internal_dfn_dp_op_ci_ci_sbrc3d_fft_erc_trans_z_xy_tile_aligned_256PKvPv
librocfft-device-1.so.0:_Z74rocfft_internal_dfn_sp_op_ci_ci_sbrc3d_fft_erc_trans_z_xy_tile_aligned_192PKvPv
librocfft-device-1.so.0:_Z74rocfft_internal_dfn_sp_op_ci_ci_sbrc3d_fft_erc_trans_z_xy_tile_aligned_200PKvPv
librocfft-device-1.so.0:_Z74rocfft_internal_dfn_sp_op_ci_ci_sbrc3d_fft_erc_trans_z_xy_tile_aligned_256PKvPv
librocfft-device-2.so.0:_Z35rocfft_internal_dfn_dp_ci_ci_2D_4_4PKvPv
librocfft-device-2.so.0:_Z35rocfft_internal_dfn_dp_ci_ci_2D_4_8PKvPv
librocfft-device-2.so.0:_Z35rocfft_internal_dfn_dp_ci_ci_2D_4_9PKvPv
librocfft-device-2.so.0:_Z35rocfft_internal_dfn_dp_ci_ci_stoc_4PKvPv
librocfft-device-2.so.0:_Z35rocfft_internal_dfn_dp_ci_ci_stoc_5PKvPv
librocfft-device-2.so.0:_Z35rocfft_internal_dfn_dp_ci_ci_stoc_6PKvPv
librocfft-device-2.so.0:_Z35rocfft_internal_dfn_sp_ci_ci_2D_4_4PKvPv
librocfft-device-2.so.0:_Z35rocfft_internal_dfn_sp_ci_ci_2D_4_8PKvPv
librocfft-device-2.so.0:_Z35rocfft_internal_dfn_sp_ci_ci_2D_4_9PKvPv
librocfft-device-2.so.0:_Z35rocfft_internal_dfn_sp_ci_ci_stoc_4PKvPv
librocfft-device-2.so.0:_Z35rocfft_internal_dfn_sp_ci_ci_stoc_5PKvPv
librocfft-device-2.so.0:_Z35rocfft_internal_dfn_sp_ci_ci_stoc_6PKvPv
librocfft-device-2.so.0:_Z36rocfft_internal_dfn_dp_ci_ci_2D_32_4PKvPv
librocfft-device-2.so.0:_Z36rocfft_internal_dfn_dp_ci_ci_2D_32_8PKvPv
librocfft-device-2.so.0:_Z36rocfft_internal_dfn_dp_ci_ci_2D_32_9PKvPv
librocfft-device-2.so.0:_Z36rocfft_internal_dfn_dp_ci_ci_2D_4_16PKvPv
librocfft-device-2.so.0:_Z36rocfft_internal_dfn_dp_ci_ci_2D_4_25PKvPv
librocfft-device-2.so.0:_Z36rocfft_internal_dfn_dp_ci_ci_2D_4_27PKvPv
librocfft-device-2.so.0:_Z36rocfft_internal_dfn_dp_ci_ci_2D_4_32PKvPv
librocfft-device-2.so.0:_Z36rocfft_internal_dfn_dp_ci_ci_2D_4_64PKvPv
librocfft-device-2.so.0:_Z36rocfft_internal_dfn_dp_ci_ci_2D_4_81PKvPv
librocfft-device-2.so.0:_Z36rocfft_internal_dfn_dp_ci_ci_sbcc_50PKvPv
librocfft-device-2.so.0:_Z36rocfft_internal_dfn_dp_ci_ci_sbcc_52PKvPv
librocfft-device-2.so.0:_Z36rocfft_internal_dfn_dp_ci_ci_sbcc_60PKvPv
librocfft-device-2.so.0:_Z36rocfft_internal_dfn_dp_ci_ci_sbcc_64PKvPv
librocfft-device-2.so.0:_Z36rocfft_internal_dfn_dp_ci_ci_sbcr_56PKvPv
librocfft-device-2.so.0:_Z36rocfft_internal_dfn_dp_ci_ci_stoc_36PKvPv
librocfft-device-2.so.0:_Z36rocfft_internal_dfn_dp_ci_ci_stoc_40PKvPv
librocfft-device-2.so.0:_Z36rocfft_internal_dfn_dp_ci_ci_stoc_42PKvPv
librocfft-device-2.so.0:_Z36rocfft_internal_dfn_dp_ci_ci_stoc_44PKvPv
librocfft-device-2.so.0:_Z36rocfft_internal_dfn_dp_ci_ci_stoc_45PKvPv
librocfft-device-2.so.0:_Z36rocfft_internal_dfn_dp_ci_ci_stoc_48PKvPv
librocfft-device-2.so.0:_Z36rocfft_internal_dfn_dp_ci_ci_stoc_49PKvPv
librocfft-device-2.so.0:_Z36rocfft_internal_dfn_dp_ci_ci_stoc_50PKvPv
librocfft-device-2.so.0:_Z36rocfft_internal_dfn_dp_ci_ci_stoc_52PKvPv
librocfft-device-2.so.0:_Z36rocfft_internal_dfn_dp_ci_ci_stoc_54PKvPv
librocfft-device-2.so.0:_Z36rocfft_internal_dfn_dp_ci_ci_stoc_56PKvPv
librocfft-device-2.so.0:_Z36rocfft_internal_dfn_dp_ci_ci_stoc_60PKvPv
librocfft-device-2.so.0:_Z36rocfft_internal_dfn_dp_ci_ci_stoc_64PKvPv
librocfft-device-2.so.0:_Z36rocfft_internal_dfn_sp_ci_ci_2D_32_4PKvPv
librocfft-device-2.so.0:_Z36rocfft_internal_dfn_sp_ci_ci_2D_32_8PKvPv
librocfft-device-2.so.0:_Z36rocfft_internal_dfn_sp_ci_ci_2D_32_9PKvPv
librocfft-device-2.so.0:_Z36rocfft_internal_dfn_sp_ci_ci_2D_4_16PKvPv
librocfft-device-2.so.0:_Z36rocfft_internal_dfn_sp_ci_ci_2D_4_25PKvPv
librocfft-device-2.so.0:_Z36rocfft_internal_dfn_sp_ci_ci_2D_4_27PKvPv
librocfft-device-2.so.0:_Z36rocfft_internal_dfn_sp_ci_ci_2D_4_32PKvPv
librocfft-device-2.so.0:_Z36rocfft_internal_dfn_sp_ci_ci_2D_4_64PKvPv
librocfft-device-2.so.0:_Z36rocfft_internal_dfn_sp_ci_ci_2D_4_81PKvPv
librocfft-device-2.so.0:_Z36rocfft_internal_dfn_sp_ci_ci_sbcc_50PKvPv
librocfft-device-2.so.0:_Z36rocfft_internal_dfn_sp_ci_ci_sbcc_52PKvPv
librocfft-device-2.so.0:_Z36rocfft_internal_dfn_sp_ci_ci_sbcc_60PKvPv
librocfft-device-2.so.0:_Z36rocfft_internal_dfn_sp_ci_ci_sbcc_64PKvPv
librocfft-device-2.so.0:_Z36rocfft_internal_dfn_sp_ci_ci_sbcr_56PKvPv
librocfft-device-2.so.0:_Z36rocfft_internal_dfn_sp_ci_ci_stoc_36PKvPv
librocfft-device-2.so.0:_Z36rocfft_internal_dfn_sp_ci_ci_stoc_40PKvPv
librocfft-device-2.so.0:_Z36rocfft_internal_dfn_sp_ci_ci_stoc_42PKvPv
librocfft-device-2.so.0:_Z36rocfft_internal_dfn_sp_ci_ci_stoc_44PKvPv
librocfft-device-2.so.0:_Z36rocfft_internal_dfn_sp_ci_ci_stoc_45PKvPv
librocfft-device-2.so.0:_Z36rocfft_internal_dfn_sp_ci_ci_stoc_48PKvPv
librocfft-device-2.so.0:_Z36rocfft_internal_dfn_sp_ci_ci_stoc_49PKvPv
librocfft-device-2.so.0:_Z36rocfft_internal_dfn_sp_ci_ci_stoc_50PKvPv
librocfft-device-2.so.0:_Z36rocfft_internal_dfn_sp_ci_ci_stoc_52PKvPv
librocfft-device-2.so.0:_Z36rocfft_internal_dfn_sp_ci_ci_stoc_54PKvPv
librocfft-device-2.so.0:_Z36rocfft_internal_dfn_sp_ci_ci_stoc_56PKvPv
librocfft-device-2.so.0:_Z36rocfft_internal_dfn_sp_ci_ci_stoc_60PKvPv
librocfft-device-2.so.0:_Z36rocfft_internal_dfn_sp_ci_ci_stoc_64PKvPv
librocfft-device-2.so.0:_Z37rocfft_internal_dfn_dp_ci_ci_2D_32_16PKvPv
librocfft-device-2.so.0:_Z37rocfft_internal_dfn_dp_ci_ci_2D_32_25PKvPv
librocfft-device-2.so.0:_Z37rocfft_internal_dfn_dp_ci_ci_2D_32_27PKvPv
librocfft-device-2.so.0:_Z37rocfft_internal_dfn_dp_ci_ci_2D_32_32PKvPv
librocfft-device-2.so.0:_Z37rocfft_internal_dfn_dp_ci_ci_2D_32_64PKvPv
librocfft-device-2.so.0:_Z37rocfft_internal_dfn_dp_ci_ci_2D_32_81PKvPv
librocfft-device-2.so.0:_Z37rocfft_internal_dfn_dp_ci_ci_2D_4_125PKvPv
librocfft-device-2.so.0:_Z37rocfft_internal_dfn_dp_ci_ci_2D_4_128PKvPv
librocfft-device-2.so.0:_Z37rocfft_internal_dfn_dp_ci_ci_2D_4_243PKvPv
librocfft-device-2.so.0:_Z37rocfft_internal_dfn_dp_ci_ci_2D_4_256PKvPv
librocfft-device-2.so.0:_Z37rocfft_internal_dfn_dp_ci_ci_sbcc_336PKvPv
librocfft-device-2.so.0:_Z37rocfft_internal_dfn_dp_ci_ci_sbcc_343PKvPv
librocfft-device-2.so.0:_Z37rocfft_internal_dfn_dp_ci_ci_sbcc_512PKvPv
librocfft-device-2.so.0:_Z37rocfft_internal_dfn_dp_ci_ci_sbcr_336PKvPv
librocfft-device-2.so.0:_Z37rocfft_internal_dfn_dp_ci_ci_stoc_336PKvPv
librocfft-device-2.so.0:_Z37rocfft_internal_dfn_dp_ci_ci_stoc_343PKvPv
librocfft-device-2.so.0:_Z37rocfft_internal_dfn_dp_ci_ci_stoc_360PKvPv
librocfft-device-2.so.0:_Z37rocfft_internal_dfn_dp_ci_ci_stoc_375PKvPv
librocfft-device-2.so.0:_Z37rocfft_internal_dfn_dp_ci_ci_stoc_384PKvPv
librocfft-device-2.so.0:_Z37rocfft_internal_dfn_dp_ci_ci_stoc_400PKvPv
librocfft-device-2.so.0:_Z37rocfft_internal_dfn_dp_ci_ci_stoc_405PKvPv
librocfft-device-2.so.0:_Z37rocfft_internal_dfn_dp_ci_ci_stoc_432PKvPv
librocfft-device-2.so.0:_Z37rocfft_internal_dfn_dp_ci_ci_stoc_450PKvPv
librocfft-device-2.so.0:_Z37rocfft_internal_dfn_dp_ci_ci_stoc_480PKvPv
librocfft-device-2.so.0:_Z37rocfft_internal_dfn_dp_ci_ci_stoc_486PKvPv
librocfft-device-2.so.0:_Z37rocfft_internal_dfn_dp_ci_ci_stoc_500PKvPv
librocfft-device-2.so.0:_Z37rocfft_internal_dfn_dp_ci_ci_stoc_512PKvPv
librocfft-device-2.so.0:_Z37rocfft_internal_dfn_dp_ci_ci_stoc_528PKvPv
librocfft-device-2.so.0:_Z37rocfft_internal_dfn_dp_ci_ci_stoc_540PKvPv
librocfft-device-2.so.0:_Z37rocfft_internal_dfn_dp_ci_ci_stoc_576PKvPv
librocfft-device-2.so.0:_Z37rocfft_internal_dfn_dp_ci_ci_stoc_600PKvPv
librocfft-device-2.so.0:_Z37rocfft_internal_dfn_dp_ci_ci_stoc_625PKvPv
librocfft-device-2.so.0:_Z37rocfft_internal_dfn_dp_ci_ci_stoc_640PKvPv
librocfft-device-2.so.0:_Z37rocfft_internal_dfn_dp_ci_ci_stoc_648PKvPv
librocfft-device-2.so.0:_Z37rocfft_internal_dfn_sp_ci_ci_2D_32_16PKvPv
librocfft-device-2.so.0:_Z37rocfft_internal_dfn_sp_ci_ci_2D_32_25PKvPv
librocfft-device-2.so.0:_Z37rocfft_internal_dfn_sp_ci_ci_2D_32_27PKvPv
librocfft-device-2.so.0:_Z37rocfft_internal_dfn_sp_ci_ci_2D_32_32PKvPv
librocfft-device-2.so.0:_Z37rocfft_internal_dfn_sp_ci_ci_2D_32_64PKvPv
librocfft-device-2.so.0:_Z37rocfft_internal_dfn_sp_ci_ci_2D_32_81PKvPv
librocfft-device-2.so.0:_Z37rocfft_internal_dfn_sp_ci_ci_2D_4_125PKvPv
librocfft-device-2.so.0:_Z37rocfft_internal_dfn_sp_ci_ci_2D_4_128PKvPv
librocfft-device-2.so.0:_Z37rocfft_internal_dfn_sp_ci_ci_2D_4_243PKvPv
librocfft-device-2.so.0:_Z37rocfft_internal_dfn_sp_ci_ci_2D_4_256PKvPv
librocfft-device-2.so.0:_Z37rocfft_internal_dfn_sp_ci_ci_sbcc_336PKvPv
librocfft-device-2.so.0:_Z37rocfft_internal_dfn_sp_ci_ci_sbcc_343PKvPv
librocfft-device-2.so.0:_Z37rocfft_internal_dfn_sp_ci_ci_sbcc_512PKvPv
librocfft-device-2.so.0:_Z37rocfft_internal_dfn_sp_ci_ci_sbcr_336PKvPv
librocfft-device-2.so.0:_Z37rocfft_internal_dfn_sp_ci_ci_stoc_336PKvPv
librocfft-device-2.so.0:_Z37rocfft_internal_dfn_sp_ci_ci_stoc_343PKvPv
librocfft-device-2.so.0:_Z37rocfft_internal_dfn_sp_ci_ci_stoc_360PKvPv
librocfft-device-2.so.0:_Z37rocfft_internal_dfn_sp_ci_ci_stoc_375PKvPv
librocfft-device-2.so.0:_Z37rocfft_internal_dfn_sp_ci_ci_stoc_384PKvPv
librocfft-device-2.so.0:_Z37rocfft_internal_dfn_sp_ci_ci_stoc_400PKvPv
librocfft-device-2.so.0:_Z37rocfft_internal_dfn_sp_ci_ci_stoc_405PKvPv
librocfft-device-2.so.0:_Z37rocfft_internal_dfn_sp_ci_ci_stoc_432PKvPv
librocfft-device-2.so.0:_Z37rocfft_internal_dfn_sp_ci_ci_stoc_450PKvPv
librocfft-device-2.so.0:_Z37rocfft_internal_dfn_sp_ci_ci_stoc_480PKvPv
librocfft-device-2.so.0:_Z37rocfft_internal_dfn_sp_ci_ci_stoc_486PKvPv
librocfft-device-2.so.0:_Z37rocfft_internal_dfn_sp_ci_ci_stoc_500PKvPv
librocfft-device-2.so.0:_Z37rocfft_internal_dfn_sp_ci_ci_stoc_512PKvPv
librocfft-device-2.so.0:_Z37rocfft_internal_dfn_sp_ci_ci_stoc_528PKvPv
librocfft-device-2.so.0:_Z37rocfft_internal_dfn_sp_ci_ci_stoc_540PKvPv
librocfft-device-2.so.0:_Z37rocfft_internal_dfn_sp_ci_ci_stoc_576PKvPv
librocfft-device-2.so.0:_Z37rocfft_internal_dfn_sp_ci_ci_stoc_600PKvPv
librocfft-device-2.so.0:_Z37rocfft_internal_dfn_sp_ci_ci_stoc_625PKvPv
librocfft-device-2.so.0:_Z37rocfft_internal_dfn_sp_ci_ci_stoc_640PKvPv
librocfft-device-2.so.0:_Z37rocfft_internal_dfn_sp_ci_ci_stoc_648PKvPv
librocfft-device-2.so.0:_Z39rocfft_internal_dfn_dp_op_ci_ci_sbrc_49PKvPv
librocfft-device-2.so.0:_Z39rocfft_internal_dfn_dp_op_ci_ci_sbrc_50PKvPv
librocfft-device-2.so.0:_Z39rocfft_internal_dfn_sp_op_ci_ci_sbrc_49PKvPv
librocfft-device-2.so.0:_Z39rocfft_internal_dfn_sp_op_ci_ci_sbrc_50PKvPv
librocfft-device-2.so.0:_Z40rocfft_internal_dfn_dp_op_ci_ci_sbrc_512PKvPv
librocfft-device-2.so.0:_Z40rocfft_internal_dfn_sp_op_ci_ci_sbrc_512PKvPv
librocfft-device-2.so.0:_Z49rocfft_internal_dfn_dp_op_ci_ci_sbrc_unaligned_49PKvPv
librocfft-device-2.so.0:_Z49rocfft_internal_dfn_dp_op_ci_ci_sbrc_unaligned_50PKvPv
librocfft-device-2.so.0:_Z49rocfft_internal_dfn_sp_op_ci_ci_sbrc_unaligned_49PKvPv
librocfft-device-2.so.0:_Z49rocfft_internal_dfn_sp_op_ci_ci_sbrc_unaligned_50PKvPv
librocfft-device-2.so.0:_Z50rocfft_internal_dfn_dp_op_ci_ci_sbrc_unaligned_512PKvPv
librocfft-device-2.so.0:_Z50rocfft_internal_dfn_sp_op_ci_ci_sbrc_unaligned_512PKvPv
librocfft-device-2.so.0:_Z65rocfft_internal_dfn_dp_op_ci_ci_sbrc3d_fft_trans_xy_z_diagonal_49PKvPv
librocfft-device-2.so.0:_Z65rocfft_internal_dfn_dp_op_ci_ci_sbrc3d_fft_trans_xy_z_diagonal_50PKvPv
librocfft-device-2.so.0:_Z65rocfft_internal_dfn_dp_op_ci_ci_sbrc3d_fft_trans_z_xy_diagonal_49PKvPv
librocfft-device-2.so.0:_Z65rocfft_internal_dfn_dp_op_ci_ci_sbrc3d_fft_trans_z_xy_diagonal_50PKvPv
librocfft-device-2.so.0:_Z65rocfft_internal_dfn_sp_op_ci_ci_sbrc3d_fft_trans_xy_z_diagonal_49PKvPv
librocfft-device-2.so.0:_Z65rocfft_internal_dfn_sp_op_ci_ci_sbrc3d_fft_trans_xy_z_diagonal_50PKvPv
librocfft-device-2.so.0:_Z65rocfft_internal_dfn_sp_op_ci_ci_sbrc3d_fft_trans_z_xy_diagonal_49PKvPv
librocfft-device-2.so.0:_Z65rocfft_internal_dfn_sp_op_ci_ci_sbrc3d_fft_trans_z_xy_diagonal_50PKvPv
librocfft-device-2.so.0:_Z66rocfft_internal_dfn_dp_op_ci_ci_sbrc3d_fft_trans_xy_z_diagonal_512PKvPv
librocfft-device-2.so.0:_Z66rocfft_internal_dfn_dp_op_ci_ci_sbrc3d_fft_trans_z_xy_diagonal_512PKvPv
librocfft-device-2.so.0:_Z66rocfft_internal_dfn_sp_op_ci_ci_sbrc3d_fft_trans_xy_z_diagonal_512PKvPv
librocfft-device-2.so.0:_Z66rocfft_internal_dfn_sp_op_ci_ci_sbrc3d_fft_trans_z_xy_diagonal_512PKvPv
librocfft-device-2.so.0:_Z69rocfft_internal_dfn_dp_op_ci_ci_sbrc3d_fft_trans_xy_z_tile_aligned_49PKvPv
librocfft-device-2.so.0:_Z69rocfft_internal_dfn_dp_op_ci_ci_sbrc3d_fft_trans_xy_z_tile_aligned_50PKvPv
librocfft-device-2.so.0:_Z69rocfft_internal_dfn_dp_op_ci_ci_sbrc3d_fft_trans_z_xy_tile_aligned_49PKvPv
librocfft-device-2.so.0:_Z69rocfft_internal_dfn_dp_op_ci_ci_sbrc3d_fft_trans_z_xy_tile_aligned_50PKvPv
librocfft-device-2.so.0:_Z69rocfft_internal_dfn_sp_op_ci_ci_sbrc3d_fft_trans_xy_z_tile_aligned_49PKvPv
librocfft-device-2.so.0:_Z69rocfft_internal_dfn_sp_op_ci_ci_sbrc3d_fft_trans_xy_z_tile_aligned_50PKvPv
librocfft-device-2.so.0:_Z69rocfft_internal_dfn_sp_op_ci_ci_sbrc3d_fft_trans_z_xy_tile_aligned_49PKvPv
librocfft-device-2.so.0:_Z69rocfft_internal_dfn_sp_op_ci_ci_sbrc3d_fft_trans_z_xy_tile_aligned_50PKvPv
librocfft-device-2.so.0:_Z70rocfft_internal_dfn_dp_op_ci_ci_sbrc3d_fft_trans_xy_z_tile_aligned_512PKvPv
librocfft-device-2.so.0:_Z70rocfft_internal_dfn_dp_op_ci_ci_sbrc3d_fft_trans_z_xy_tile_aligned_512PKvPv
librocfft-device-2.so.0:_Z70rocfft_internal_dfn_sp_op_ci_ci_sbrc3d_fft_trans_xy_z_tile_aligned_512PKvPv
librocfft-device-2.so.0:_Z70rocfft_internal_dfn_sp_op_ci_ci_sbrc3d_fft_trans_z_xy_tile_aligned_512PKvPv
librocfft-device-2.so.0:_Z71rocfft_internal_dfn_dp_op_ci_ci_sbrc3d_fft_trans_xy_z_tile_unaligned_49PKvPv
librocfft-device-2.so.0:_Z71rocfft_internal_dfn_dp_op_ci_ci_sbrc3d_fft_trans_xy_z_tile_unaligned_50PKvPv
librocfft-device-2.so.0:_Z71rocfft_internal_dfn_dp_op_ci_ci_sbrc3d_fft_trans_z_xy_tile_unaligned_49PKvPv
librocfft-device-2.so.0:_Z71rocfft_internal_dfn_dp_op_ci_ci_sbrc3d_fft_trans_z_xy_tile_unaligned_50PKvPv
librocfft-device-2.so.0:_Z71rocfft_internal_dfn_sp_op_ci_ci_sbrc3d_fft_trans_xy_z_tile_unaligned_49PKvPv
librocfft-device-2.so.0:_Z71rocfft_internal_dfn_sp_op_ci_ci_sbrc3d_fft_trans_xy_z_tile_unaligned_50PKvPv
librocfft-device-2.so.0:_Z71rocfft_internal_dfn_sp_op_ci_ci_sbrc3d_fft_trans_z_xy_tile_unaligned_49PKvPv
librocfft-device-2.so.0:_Z71rocfft_internal_dfn_sp_op_ci_ci_sbrc3d_fft_trans_z_xy_tile_unaligned_50PKvPv
librocfft-device-2.so.0:_Z72rocfft_internal_dfn_dp_op_ci_ci_sbrc3d_fft_trans_xy_z_tile_unaligned_512PKvPv
librocfft-device-2.so.0:_Z72rocfft_internal_dfn_dp_op_ci_ci_sbrc3d_fft_trans_z_xy_tile_unaligned_512PKvPv
librocfft-device-2.so.0:_Z72rocfft_internal_dfn_sp_op_ci_ci_sbrc3d_fft_trans_xy_z_tile_unaligned_512PKvPv
librocfft-device-2.so.0:_Z72rocfft_internal_dfn_sp_op_ci_ci_sbrc3d_fft_trans_z_xy_tile_unaligned_512PKvPv
librocfft-device-2.so.0:_Z73rocfft_internal_dfn_dp_op_ci_ci_sbrc3d_fft_erc_trans_z_xy_tile_aligned_49PKvPv
librocfft-device-2.so.0:_Z73rocfft_internal_dfn_dp_op_ci_ci_sbrc3d_fft_erc_trans_z_xy_tile_aligned_50PKvPv
librocfft-device-2.so.0:_Z73rocfft_internal_dfn_sp_op_ci_ci_sbrc3d_fft_erc_trans_z_xy_tile_aligned_49PKvPv
librocfft-device-2.so.0:_Z73rocfft_internal_dfn_sp_op_ci_ci_sbrc3d_fft_erc_trans_z_xy_tile_aligned_50PKvPv
librocfft-device-2.so.0:_Z74rocfft_internal_dfn_dp_op_ci_ci_sbrc3d_fft_erc_trans_z_xy_tile_aligned_512PKvPv
librocfft-device-2.so.0:_Z74rocfft_internal_dfn_sp_op_ci_ci_sbrc3d_fft_erc_trans_z_xy_tile_aligned_512PKvPv
librocfft-device-3.so.0:_Z30rocfft_internal_transpose_var2PKvPv
librocfft-device-3.so.0:_Z35rocfft_internal_dfn_dp_ci_ci_2D_8_4PKvPv
librocfft-device-3.so.0:_Z35rocfft_internal_dfn_dp_ci_ci_2D_8_8PKvPv
librocfft-device-3.so.0:_Z35rocfft_internal_dfn_dp_ci_ci_2D_8_9PKvPv
librocfft-device-3.so.0:_Z35rocfft_internal_dfn_dp_ci_ci_2D_9_4PKvPv
librocfft-device-3.so.0:_Z35rocfft_internal_dfn_dp_ci_ci_2D_9_8PKvPv
librocfft-device-3.so.0:_Z35rocfft_internal_dfn_dp_ci_ci_2D_9_9PKvPv
librocfft-device-3.so.0:_Z35rocfft_internal_dfn_dp_ci_ci_stoc_7PKvPv
librocfft-device-3.so.0:_Z35rocfft_internal_dfn_dp_ci_ci_stoc_8PKvPv
librocfft-device-3.so.0:_Z35rocfft_internal_dfn_dp_ci_ci_stoc_9PKvPv
librocfft-device-3.so.0:_Z35rocfft_internal_dfn_sp_ci_ci_2D_8_4PKvPv
librocfft-device-3.so.0:_Z35rocfft_internal_dfn_sp_ci_ci_2D_8_8PKvPv
librocfft-device-3.so.0:_Z35rocfft_internal_dfn_sp_ci_ci_2D_8_9PKvPv
librocfft-device-3.so.0:_Z35rocfft_internal_dfn_sp_ci_ci_2D_9_4PKvPv
librocfft-device-3.so.0:_Z35rocfft_internal_dfn_sp_ci_ci_2D_9_8PKvPv
librocfft-device-3.so.0:_Z35rocfft_internal_dfn_sp_ci_ci_2D_9_9PKvPv
librocfft-device-3.so.0:_Z35rocfft_internal_dfn_sp_ci_ci_stoc_7PKvPv
librocfft-device-3.so.0:_Z35rocfft_internal_dfn_sp_ci_ci_stoc_8PKvPv
librocfft-device-3.so.0:_Z35rocfft_internal_dfn_sp_ci_ci_stoc_9PKvPv
librocfft-device-3.so.0:_Z36rocfft_internal_dfn_dp_ci_ci_2D_64_4PKvPv
librocfft-device-3.so.0:_Z36rocfft_internal_dfn_dp_ci_ci_2D_64_8PKvPv
librocfft-device-3.so.0:_Z36rocfft_internal_dfn_dp_ci_ci_2D_64_9PKvPv
librocfft-device-3.so.0:_Z36rocfft_internal_dfn_dp_ci_ci_2D_81_4PKvPv
librocfft-device-3.so.0:_Z36rocfft_internal_dfn_dp_ci_ci_2D_81_8PKvPv
librocfft-device-3.so.0:_Z36rocfft_internal_dfn_dp_ci_ci_2D_81_9PKvPv
librocfft-device-3.so.0:_Z36rocfft_internal_dfn_dp_ci_ci_2D_8_16PKvPv
librocfft-device-3.so.0:_Z36rocfft_internal_dfn_dp_ci_ci_2D_8_25PKvPv
librocfft-device-3.so.0:_Z36rocfft_internal_dfn_dp_ci_ci_2D_8_27PKvPv
librocfft-device-3.so.0:_Z36rocfft_internal_dfn_dp_ci_ci_2D_8_32PKvPv
librocfft-device-3.so.0:_Z36rocfft_internal_dfn_dp_ci_ci_2D_8_64PKvPv
librocfft-device-3.so.0:_Z36rocfft_internal_dfn_dp_ci_ci_2D_8_81PKvPv
librocfft-device-3.so.0:_Z36rocfft_internal_dfn_dp_ci_ci_2D_9_16PKvPv
librocfft-device-3.so.0:_Z36rocfft_internal_dfn_dp_ci_ci_2D_9_25PKvPv
librocfft-device-3.so.0:_Z36rocfft_internal_dfn_dp_ci_ci_2D_9_27PKvPv
librocfft-device-3.so.0:_Z36rocfft_internal_dfn_dp_ci_ci_2D_9_32PKvPv
librocfft-device-3.so.0:_Z36rocfft_internal_dfn_dp_ci_ci_2D_9_64PKvPv
librocfft-device-3.so.0:_Z36rocfft_internal_dfn_dp_ci_ci_2D_9_81PKvPv
librocfft-device-3.so.0:_Z36rocfft_internal_dfn_dp_ci_ci_sbcc_72PKvPv
librocfft-device-3.so.0:_Z36rocfft_internal_dfn_dp_ci_ci_sbcc_80PKvPv
librocfft-device-3.so.0:_Z36rocfft_internal_dfn_dp_ci_ci_sbcc_81PKvPv
librocfft-device-3.so.0:_Z36rocfft_internal_dfn_dp_ci_ci_sbcc_84PKvPv
librocfft-device-3.so.0:_Z36rocfft_internal_dfn_dp_ci_ci_sbcc_96PKvPv
librocfft-device-3.so.0:_Z36rocfft_internal_dfn_dp_ci_ci_stoc_72PKvPv
librocfft-device-3.so.0:_Z36rocfft_internal_dfn_dp_ci_ci_stoc_75PKvPv
librocfft-device-3.so.0:_Z36rocfft_internal_dfn_dp_ci_ci_stoc_80PKvPv
librocfft-device-3.so.0:_Z36rocfft_internal_dfn_dp_ci_ci_stoc_81PKvPv
librocfft-device-3.so.0:_Z36rocfft_internal_dfn_dp_ci_ci_stoc_84PKvPv
librocfft-device-3.so.0:_Z36rocfft_internal_dfn_dp_ci_ci_stoc_88PKvPv
librocfft-device-3.so.0:_Z36rocfft_internal_dfn_dp_ci_ci_stoc_90PKvPv
librocfft-device-3.so.0:_Z36rocfft_internal_dfn_dp_ci_ci_stoc_96PKvPv
librocfft-device-3.so.0:_Z36rocfft_internal_dfn_sp_ci_ci_2D_64_4PKvPv
librocfft-device-3.so.0:_Z36rocfft_internal_dfn_sp_ci_ci_2D_64_8PKvPv
librocfft-device-3.so.0:_Z36rocfft_internal_dfn_sp_ci_ci_2D_64_9PKvPv
librocfft-device-3.so.0:_Z36rocfft_internal_dfn_sp_ci_ci_2D_81_4PKvPv
librocfft-device-3.so.0:_Z36rocfft_internal_dfn_sp_ci_ci_2D_81_8PKvPv
librocfft-device-3.so.0:_Z36rocfft_internal_dfn_sp_ci_ci_2D_81_9PKvPv
librocfft-device-3.so.0:_Z36rocfft_internal_dfn_sp_ci_ci_2D_8_16PKvPv
librocfft-device-3.so.0:_Z36rocfft_internal_dfn_sp_ci_ci_2D_8_25PKvPv
librocfft-device-3.so.0:_Z36rocfft_internal_dfn_sp_ci_ci_2D_8_27PKvPv
librocfft-device-3.so.0:_Z36rocfft_internal_dfn_sp_ci_ci_2D_8_32PKvPv
librocfft-device-3.so.0:_Z36rocfft_internal_dfn_sp_ci_ci_2D_8_64PKvPv
librocfft-device-3.so.0:_Z36rocfft_internal_dfn_sp_ci_ci_2D_8_81PKvPv
librocfft-device-3.so.0:_Z36rocfft_internal_dfn_sp_ci_ci_2D_9_16PKvPv
librocfft-device-3.so.0:_Z36rocfft_internal_dfn_sp_ci_ci_2D_9_25PKvPv
librocfft-device-3.so.0:_Z36rocfft_internal_dfn_sp_ci_ci_2D_9_27PKvPv
librocfft-device-3.so.0:_Z36rocfft_internal_dfn_sp_ci_ci_2D_9_32PKvPv
librocfft-device-3.so.0:_Z36rocfft_internal_dfn_sp_ci_ci_2D_9_64PKvPv
librocfft-device-3.so.0:_Z36rocfft_internal_dfn_sp_ci_ci_2D_9_81PKvPv
librocfft-device-3.so.0:_Z36rocfft_internal_dfn_sp_ci_ci_sbcc_72PKvPv
librocfft-device-3.so.0:_Z36rocfft_internal_dfn_sp_ci_ci_sbcc_80PKvPv
librocfft-device-3.so.0:_Z36rocfft_internal_dfn_sp_ci_ci_sbcc_81PKvPv
librocfft-device-3.so.0:_Z36rocfft_internal_dfn_sp_ci_ci_sbcc_84PKvPv
librocfft-device-3.so.0:_Z36rocfft_internal_dfn_sp_ci_ci_sbcc_96PKvPv
librocfft-device-3.so.0:_Z36rocfft_internal_dfn_sp_ci_ci_stoc_72PKvPv
librocfft-device-3.so.0:_Z36rocfft_internal_dfn_sp_ci_ci_stoc_75PKvPv
librocfft-device-3.so.0:_Z36rocfft_internal_dfn_sp_ci_ci_stoc_80PKvPv
librocfft-device-3.so.0:_Z36rocfft_internal_dfn_sp_ci_ci_stoc_81PKvPv
librocfft-device-3.so.0:_Z36rocfft_internal_dfn_sp_ci_ci_stoc_84PKvPv
librocfft-device-3.so.0:_Z36rocfft_internal_dfn_sp_ci_ci_stoc_88PKvPv
librocfft-device-3.so.0:_Z36rocfft_internal_dfn_sp_ci_ci_stoc_90PKvPv
librocfft-device-3.so.0:_Z36rocfft_internal_dfn_sp_ci_ci_stoc_96PKvPv
librocfft-device-3.so.0:_Z37rocfft_internal_dfn_dp_ci_ci_2D_64_16PKvPv
librocfft-device-3.so.0:_Z37rocfft_internal_dfn_dp_ci_ci_2D_64_25PKvPv
librocfft-device-3.so.0:_Z37rocfft_internal_dfn_dp_ci_ci_2D_64_27PKvPv
librocfft-device-3.so.0:_Z37rocfft_internal_dfn_dp_ci_ci_2D_64_32PKvPv
librocfft-device-3.so.0:_Z37rocfft_internal_dfn_dp_ci_ci_2D_81_16PKvPv
librocfft-device-3.so.0:_Z37rocfft_internal_dfn_dp_ci_ci_2D_81_25PKvPv
librocfft-device-3.so.0:_Z37rocfft_internal_dfn_dp_ci_ci_2D_81_27PKvPv
librocfft-device-3.so.0:_Z37rocfft_internal_dfn_dp_ci_ci_2D_81_32PKvPv
librocfft-device-3.so.0:_Z37rocfft_internal_dfn_dp_ci_ci_2D_8_125PKvPv
librocfft-device-3.so.0:_Z37rocfft_internal_dfn_dp_ci_ci_2D_8_128PKvPv
librocfft-device-3.so.0:_Z37rocfft_internal_dfn_dp_ci_ci_2D_8_243PKvPv
librocfft-device-3.so.0:_Z37rocfft_internal_dfn_dp_ci_ci_2D_8_256PKvPv
librocfft-device-3.so.0:_Z37rocfft_internal_dfn_dp_ci_ci_2D_9_125PKvPv
librocfft-device-3.so.0:_Z37rocfft_internal_dfn_dp_ci_ci_2D_9_128PKvPv
librocfft-device-3.so.0:_Z37rocfft_internal_dfn_dp_ci_ci_2D_9_243PKvPv
librocfft-device-3.so.0:_Z37rocfft_internal_dfn_dp_ci_ci_2D_9_256PKvPv
librocfft-device-3.so.0:_Z37rocfft_internal_dfn_dp_ci_ci_stoc_675PKvPv
librocfft-device-3.so.0:_Z37rocfft_internal_dfn_dp_ci_ci_stoc_720PKvPv
librocfft-device-3.so.0:_Z37rocfft_internal_dfn_dp_ci_ci_stoc_729PKvPv
librocfft-device-3.so.0:_Z37rocfft_internal_dfn_dp_ci_ci_stoc_750PKvPv
librocfft-device-3.so.0:_Z37rocfft_internal_dfn_dp_ci_ci_stoc_768PKvPv
librocfft-device-3.so.0:_Z37rocfft_internal_dfn_dp_ci_ci_stoc_800PKvPv
librocfft-device-3.so.0:_Z37rocfft_internal_dfn_dp_ci_ci_stoc_810PKvPv
librocfft-device-3.so.0:_Z37rocfft_internal_dfn_dp_ci_ci_stoc_864PKvPv
librocfft-device-3.so.0:_Z37rocfft_internal_dfn_dp_ci_ci_stoc_900PKvPv
librocfft-device-3.so.0:_Z37rocfft_internal_dfn_dp_ci_ci_stoc_960PKvPv
librocfft-device-3.so.0:_Z37rocfft_internal_dfn_dp_ci_ci_stoc_972PKvPv
librocfft-device-3.so.0:_Z37rocfft_internal_dfn_sp_ci_ci_2D_64_16PKvPv
librocfft-device-3.so.0:_Z37rocfft_internal_dfn_sp_ci_ci_2D_64_25PKvPv
librocfft-device-3.so.0:_Z37rocfft_internal_dfn_sp_ci_ci_2D_64_27PKvPv
librocfft-device-3.so.0:_Z37rocfft_internal_dfn_sp_ci_ci_2D_64_32PKvPv
librocfft-device-3.so.0:_Z37rocfft_internal_dfn_sp_ci_ci_2D_81_16PKvPv
librocfft-device-3.so.0:_Z37rocfft_internal_dfn_sp_ci_ci_2D_81_25PKvPv
librocfft-device-3.so.0:_Z37rocfft_internal_dfn_sp_ci_ci_2D_81_27PKvPv
librocfft-device-3.so.0:_Z37rocfft_internal_dfn_sp_ci_ci_2D_81_32PKvPv
librocfft-device-3.so.0:_Z37rocfft_internal_dfn_sp_ci_ci_2D_8_125PKvPv
librocfft-device-3.so.0:_Z37rocfft_internal_dfn_sp_ci_ci_2D_8_128PKvPv
librocfft-device-3.so.0:_Z37rocfft_internal_dfn_sp_ci_ci_2D_8_243PKvPv
librocfft-device-3.so.0:_Z37rocfft_internal_dfn_sp_ci_ci_2D_8_256PKvPv
librocfft-device-3.so.0:_Z37rocfft_internal_dfn_sp_ci_ci_2D_9_125PKvPv
librocfft-device-3.so.0:_Z37rocfft_internal_dfn_sp_ci_ci_2D_9_128PKvPv
librocfft-device-3.so.0:_Z37rocfft_internal_dfn_sp_ci_ci_2D_9_243PKvPv
librocfft-device-3.so.0:_Z37rocfft_internal_dfn_sp_ci_ci_2D_9_256PKvPv
librocfft-device-3.so.0:_Z37rocfft_internal_dfn_sp_ci_ci_stoc_675PKvPv
librocfft-device-3.so.0:_Z37rocfft_internal_dfn_sp_ci_ci_stoc_720PKvPv
librocfft-device-3.so.0:_Z37rocfft_internal_dfn_sp_ci_ci_stoc_729PKvPv
librocfft-device-3.so.0:_Z37rocfft_internal_dfn_sp_ci_ci_stoc_750PKvPv
librocfft-device-3.so.0:_Z37rocfft_internal_dfn_sp_ci_ci_stoc_768PKvPv
librocfft-device-3.so.0:_Z37rocfft_internal_dfn_sp_ci_ci_stoc_800PKvPv
librocfft-device-3.so.0:_Z37rocfft_internal_dfn_sp_ci_ci_stoc_810PKvPv
librocfft-device-3.so.0:_Z37rocfft_internal_dfn_sp_ci_ci_stoc_864PKvPv
librocfft-device-3.so.0:_Z37rocfft_internal_dfn_sp_ci_ci_stoc_900PKvPv
librocfft-device-3.so.0:_Z37rocfft_internal_dfn_sp_ci_ci_stoc_960PKvPv
librocfft-device-3.so.0:_Z37rocfft_internal_dfn_sp_ci_ci_stoc_972PKvPv
librocfft-device-3.so.0:_Z39rocfft_internal_dfn_dp_op_ci_ci_sbrc_64PKvPv
librocfft-device-3.so.0:_Z39rocfft_internal_dfn_dp_op_ci_ci_sbrc_81PKvPv
librocfft-device-3.so.0:_Z39rocfft_internal_dfn_sp_op_ci_ci_sbrc_64PKvPv
librocfft-device-3.so.0:_Z39rocfft_internal_dfn_sp_op_ci_ci_sbrc_81PKvPv
librocfft-device-3.so.0:_Z49rocfft_internal_dfn_dp_op_ci_ci_sbrc_unaligned_64PKvPv
librocfft-device-3.so.0:_Z49rocfft_internal_dfn_dp_op_ci_ci_sbrc_unaligned_81PKvPv
librocfft-device-3.so.0:_Z49rocfft_internal_dfn_sp_op_ci_ci_sbrc_unaligned_64PKvPv
librocfft-device-3.so.0:_Z49rocfft_internal_dfn_sp_op_ci_ci_sbrc_unaligned_81PKvPv
librocfft-device-3.so.0:_Z65rocfft_internal_dfn_dp_op_ci_ci_sbrc3d_fft_trans_xy_z_diagonal_64PKvPv
librocfft-device-3.so.0:_Z65rocfft_internal_dfn_dp_op_ci_ci_sbrc3d_fft_trans_xy_z_diagonal_81PKvPv
librocfft-device-3.so.0:_Z65rocfft_internal_dfn_dp_op_ci_ci_sbrc3d_fft_trans_z_xy_diagonal_64PKvPv
librocfft-device-3.so.0:_Z65rocfft_internal_dfn_dp_op_ci_ci_sbrc3d_fft_trans_z_xy_diagonal_81PKvPv
librocfft-device-3.so.0:_Z65rocfft_internal_dfn_sp_op_ci_ci_sbrc3d_fft_trans_xy_z_diagonal_64PKvPv
librocfft-device-3.so.0:_Z65rocfft_internal_dfn_sp_op_ci_ci_sbrc3d_fft_trans_xy_z_diagonal_81PKvPv
librocfft-device-3.so.0:_Z65rocfft_internal_dfn_sp_op_ci_ci_sbrc3d_fft_trans_z_xy_diagonal_64PKvPv
librocfft-device-3.so.0:_Z65rocfft_internal_dfn_sp_op_ci_ci_sbrc3d_fft_trans_z_xy_diagonal_81PKvPv
librocfft-device-3.so.0:_Z69rocfft_internal_dfn_dp_op_ci_ci_sbrc3d_fft_trans_xy_z_tile_aligned_64PKvPv
librocfft-device-3.so.0:_Z69rocfft_internal_dfn_dp_op_ci_ci_sbrc3d_fft_trans_xy_z_tile_aligned_81PKvPv
librocfft-device-3.so.0:_Z69rocfft_internal_dfn_dp_op_ci_ci_sbrc3d_fft_trans_z_xy_tile_aligned_64PKvPv
librocfft-device-3.so.0:_Z69rocfft_internal_dfn_dp_op_ci_ci_sbrc3d_fft_trans_z_xy_tile_aligned_81PKvPv
librocfft-device-3.so.0:_Z69rocfft_internal_dfn_sp_op_ci_ci_sbrc3d_fft_trans_xy_z_tile_aligned_64PKvPv
librocfft-device-3.so.0:_Z69rocfft_internal_dfn_sp_op_ci_ci_sbrc3d_fft_trans_xy_z_tile_aligned_81PKvPv
librocfft-device-3.so.0:_Z69rocfft_internal_dfn_sp_op_ci_ci_sbrc3d_fft_trans_z_xy_tile_aligned_64PKvPv
librocfft-device-3.so.0:_Z69rocfft_internal_dfn_sp_op_ci_ci_sbrc3d_fft_trans_z_xy_tile_aligned_81PKvPv
librocfft-device-3.so.0:_Z71rocfft_internal_dfn_dp_op_ci_ci_sbrc3d_fft_trans_xy_z_tile_unaligned_64PKvPv
librocfft-device-3.so.0:_Z71rocfft_internal_dfn_dp_op_ci_ci_sbrc3d_fft_trans_xy_z_tile_unaligned_81PKvPv
librocfft-device-3.so.0:_Z71rocfft_internal_dfn_dp_op_ci_ci_sbrc3d_fft_trans_z_xy_tile_unaligned_64PKvPv
librocfft-device-3.so.0:_Z71rocfft_internal_dfn_dp_op_ci_ci_sbrc3d_fft_trans_z_xy_tile_unaligned_81PKvPv
librocfft-device-3.so.0:_Z71rocfft_internal_dfn_sp_op_ci_ci_sbrc3d_fft_trans_xy_z_tile_unaligned_64PKvPv
librocfft-device-3.so.0:_Z71rocfft_internal_dfn_sp_op_ci_ci_sbrc3d_fft_trans_xy_z_tile_unaligned_81PKvPv
librocfft-device-3.so.0:_Z71rocfft_internal_dfn_sp_op_ci_ci_sbrc3d_fft_trans_z_xy_tile_unaligned_64PKvPv
librocfft-device-3.so.0:_Z71rocfft_internal_dfn_sp_op_ci_ci_sbrc3d_fft_trans_z_xy_tile_unaligned_81PKvPv
librocfft-device-3.so.0:_Z73rocfft_internal_dfn_dp_op_ci_ci_sbrc3d_fft_erc_trans_z_xy_tile_aligned_64PKvPv
librocfft-device-3.so.0:_Z73rocfft_internal_dfn_dp_op_ci_ci_sbrc3d_fft_erc_trans_z_xy_tile_aligned_81PKvPv
librocfft-device-3.so.0:_Z73rocfft_internal_dfn_sp_op_ci_ci_sbrc3d_fft_erc_trans_z_xy_tile_aligned_64PKvPv
librocfft-device-3.so.0:_Z73rocfft_internal_dfn_sp_op_ci_ci_sbrc3d_fft_erc_trans_z_xy_tile_aligned_81PKvPv
librocfft.so.0:rocfft_cache_buffer_free
librocfft.so.0:rocfft_cache_deserialize
librocfft.so.0:rocfft_cache_serialize
librocfft.so.0:rocfft_cleanup
librocfft.so.0:rocfft_execute
librocfft.so.0:rocfft_execution_info_create
librocfft.so.0:rocfft_execution_info_destroy
librocfft.so.0:rocfft_execution_info_set_load_callback
librocfft.so.0:rocfft_execution_info_set_store_callback
librocfft.so.0:rocfft_execution_info_set_stream
librocfft.so.0:rocfft_execution_info_set_work_buffer
librocfft.so.0:rocfft_get_version_string
librocfft.so.0:rocfft_plan_create
librocfft.so.0:rocfft_plan_description_create
librocfft.so.0:rocfft_plan_description_destroy
librocfft.so.0:rocfft_plan_description_set_data_layout
librocfft.so.0:rocfft_plan_destroy
librocfft.so.0:rocfft_plan_get_print
librocfft.so.0:rocfft_plan_get_work_buffer_size
librocfft.so.0:rocfft_setup
